;******************************************************************************
;* MSP430 G3 C/C++ Codegen                                              PC v21.6.1.LTS *
;* Date/Time created: Mon Feb 24 13:22:57 2025                                *
;******************************************************************************
	.compiler_opts --abi=eabi --diag_wrap=off --hll_source=on --mem_model:code=large --mem_model:data=large --object_format=elf --silicon_errata=CPU21 --silicon_errata=CPU22 --silicon_errata=CPU40 --silicon_version=mspx --symdebug:dwarf --symdebug:dwarf_version=3 

$C$DW$CU	.dwtag  DW_TAG_compile_unit
	.dwattr $C$DW$CU, DW_AT_name("../main.c")
	.dwattr $C$DW$CU, DW_AT_producer("TI MSP430 G3 C/C++ Codegen PC v21.6.1.LTS Copyright (c) 2003-2018 Texas Instruments Incorporated")
	.dwattr $C$DW$CU, DW_AT_TI_version(0x01)
	.dwattr $C$DW$CU, DW_AT_comp_dir("C:\Users\kyle_\Documents\CodeComposerStudio\PIXIE_MSP430\Debug")
;	Interrupt vector table mappings
	.intvec	".int50",	DMA_ISR
	.intvec	".int42",	RTCISR
$C$DW$1	.dwtag  DW_TAG_variable
	.dwattr $C$DW$1, DW_AT_name("BAKCTL")
	.dwattr $C$DW$1, DW_AT_TI_symbol_name("BAKCTL")
	.dwattr $C$DW$1, DW_AT_type(*$C$DW$T$141)
	.dwattr $C$DW$1, DW_AT_declaration
	.dwattr $C$DW$1, DW_AT_external
	.dwattr $C$DW$1, DW_AT_decl_file("C:\ti\ccs1250\ccs\ccs_base\msp430\include\msp430fg6626.h")
	.dwattr $C$DW$1, DW_AT_decl_line(0xaf)
	.dwattr $C$DW$1, DW_AT_decl_column(0x01)

$C$DW$2	.dwtag  DW_TAG_variable
	.dwattr $C$DW$2, DW_AT_name("DAC12_0DAT")
	.dwattr $C$DW$2, DW_AT_TI_symbol_name("DAC12_0DAT")
	.dwattr $C$DW$2, DW_AT_type(*$C$DW$T$141)
	.dwattr $C$DW$2, DW_AT_declaration
	.dwattr $C$DW$2, DW_AT_external
	.dwattr $C$DW$2, DW_AT_decl_file("C:\ti\ccs1250\ccs\ccs_base\msp430\include\msp430fg6626.h")
	.dwattr $C$DW$2, DW_AT_decl_line(0x2ee)
	.dwattr $C$DW$2, DW_AT_decl_column(0x01)

$C$DW$3	.dwtag  DW_TAG_variable
	.dwattr $C$DW$3, DW_AT_name("DAC12_1DAT")
	.dwattr $C$DW$3, DW_AT_TI_symbol_name("DAC12_1DAT")
	.dwattr $C$DW$3, DW_AT_type(*$C$DW$T$141)
	.dwattr $C$DW$3, DW_AT_declaration
	.dwattr $C$DW$3, DW_AT_external
	.dwattr $C$DW$3, DW_AT_decl_file("C:\ti\ccs1250\ccs\ccs_base\msp430\include\msp430fg6626.h")
	.dwattr $C$DW$3, DW_AT_decl_line(0x2f3)
	.dwattr $C$DW$3, DW_AT_decl_column(0x01)

$C$DW$4	.dwtag  DW_TAG_variable
	.dwattr $C$DW$4, DW_AT_name("DMAIV")
	.dwattr $C$DW$4, DW_AT_TI_symbol_name("DMAIV")
	.dwattr $C$DW$4, DW_AT_type(*$C$DW$T$141)
	.dwattr $C$DW$4, DW_AT_declaration
	.dwattr $C$DW$4, DW_AT_external
	.dwattr $C$DW$4, DW_AT_decl_file("C:\ti\ccs1250\ccs\ccs_base\msp430\include\msp430fg6626.h")
	.dwattr $C$DW$4, DW_AT_decl_line(0x337)
	.dwattr $C$DW$4, DW_AT_decl_column(0x01)

$C$DW$5	.dwtag  DW_TAG_variable
	.dwattr $C$DW$5, DW_AT_name("PAOUT_L")
	.dwattr $C$DW$5, DW_AT_TI_symbol_name("PAOUT_L")
	.dwattr $C$DW$5, DW_AT_type(*$C$DW$T$86)
	.dwattr $C$DW$5, DW_AT_declaration
	.dwattr $C$DW$5, DW_AT_external
	.dwattr $C$DW$5, DW_AT_decl_file("C:\ti\ccs1250\ccs\ccs_base\msp430\include\msp430fg6626.h")
	.dwattr $C$DW$5, DW_AT_decl_line(0x8a3)
	.dwattr $C$DW$5, DW_AT_decl_column(0x01)

$C$DW$6	.dwtag  DW_TAG_variable
	.dwattr $C$DW$6, DW_AT_name("PBOUT_L")
	.dwattr $C$DW$6, DW_AT_TI_symbol_name("PBOUT_L")
	.dwattr $C$DW$6, DW_AT_type(*$C$DW$T$86)
	.dwattr $C$DW$6, DW_AT_declaration
	.dwattr $C$DW$6, DW_AT_external
	.dwattr $C$DW$6, DW_AT_decl_file("C:\ti\ccs1250\ccs\ccs_base\msp430\include\msp430fg6626.h")
	.dwattr $C$DW$6, DW_AT_decl_line(0x8fd)
	.dwattr $C$DW$6, DW_AT_decl_column(0x01)

$C$DW$7	.dwtag  DW_TAG_variable
	.dwattr $C$DW$7, DW_AT_name("PCOUT_L")
	.dwattr $C$DW$7, DW_AT_TI_symbol_name("PCOUT_L")
	.dwattr $C$DW$7, DW_AT_type(*$C$DW$T$86)
	.dwattr $C$DW$7, DW_AT_declaration
	.dwattr $C$DW$7, DW_AT_external
	.dwattr $C$DW$7, DW_AT_decl_file("C:\ti\ccs1250\ccs\ccs_base\msp430\include\msp430fg6626.h")
	.dwattr $C$DW$7, DW_AT_decl_line(0x957)
	.dwattr $C$DW$7, DW_AT_decl_column(0x01)

$C$DW$8	.dwtag  DW_TAG_variable
	.dwattr $C$DW$8, DW_AT_name("PCOUT_H")
	.dwattr $C$DW$8, DW_AT_TI_symbol_name("PCOUT_H")
	.dwattr $C$DW$8, DW_AT_type(*$C$DW$T$86)
	.dwattr $C$DW$8, DW_AT_declaration
	.dwattr $C$DW$8, DW_AT_external
	.dwattr $C$DW$8, DW_AT_decl_file("C:\ti\ccs1250\ccs\ccs_base\msp430\include\msp430fg6626.h")
	.dwattr $C$DW$8, DW_AT_decl_line(0x958)
	.dwattr $C$DW$8, DW_AT_decl_column(0x01)

$C$DW$9	.dwtag  DW_TAG_variable
	.dwattr $C$DW$9, DW_AT_name("PEOUT_L")
	.dwattr $C$DW$9, DW_AT_TI_symbol_name("PEOUT_L")
	.dwattr $C$DW$9, DW_AT_type(*$C$DW$T$86)
	.dwattr $C$DW$9, DW_AT_declaration
	.dwattr $C$DW$9, DW_AT_external
	.dwattr $C$DW$9, DW_AT_decl_file("C:\ti\ccs1250\ccs\ccs_base\msp430\include\msp430fg6626.h")
	.dwattr $C$DW$9, DW_AT_decl_line(0x9b9)
	.dwattr $C$DW$9, DW_AT_decl_column(0x01)

$C$DW$10	.dwtag  DW_TAG_variable
	.dwattr $C$DW$10, DW_AT_name("RTCIV")
	.dwattr $C$DW$10, DW_AT_TI_symbol_name("RTCIV")
	.dwattr $C$DW$10, DW_AT_type(*$C$DW$T$141)
	.dwattr $C$DW$10, DW_AT_declaration
	.dwattr $C$DW$10, DW_AT_external
	.dwattr $C$DW$10, DW_AT_decl_file("C:\ti\ccs1250\ccs\ccs_base\msp430\include\msp430fg6626.h")
	.dwattr $C$DW$10, DW_AT_decl_line(0xb9c)
	.dwattr $C$DW$10, DW_AT_decl_column(0x01)

$C$DW$11	.dwtag  DW_TAG_variable
	.dwattr $C$DW$11, DW_AT_name("SINE_cosADC")
	.dwattr $C$DW$11, DW_AT_TI_symbol_name("SINE_cosADC")
	.dwattr $C$DW$11, DW_AT_type(*$C$DW$T$133)
	.dwattr $C$DW$11, DW_AT_declaration
	.dwattr $C$DW$11, DW_AT_external
	.dwattr $C$DW$11, DW_AT_decl_file("C:/Users/kyle_/Documents/CodeComposerStudio/PIXIE_MSP430/inc/sineref.h")
	.dwattr $C$DW$11, DW_AT_decl_line(0x2c)
	.dwattr $C$DW$11, DW_AT_decl_column(0x19)

$C$DW$12	.dwtag  DW_TAG_variable
	.dwattr $C$DW$12, DW_AT_name("SINE_sinADC")
	.dwattr $C$DW$12, DW_AT_TI_symbol_name("SINE_sinADC")
	.dwattr $C$DW$12, DW_AT_type(*$C$DW$T$133)
	.dwattr $C$DW$12, DW_AT_declaration
	.dwattr $C$DW$12, DW_AT_external
	.dwattr $C$DW$12, DW_AT_decl_file("C:/Users/kyle_/Documents/CodeComposerStudio/PIXIE_MSP430/inc/sineref.h")
	.dwattr $C$DW$12, DW_AT_decl_line(0x2d)
	.dwattr $C$DW$12, DW_AT_decl_column(0x19)

$C$DW$13	.dwtag  DW_TAG_variable
	.dwattr $C$DW$13, DW_AT_name("SINE_cosDAC")
	.dwattr $C$DW$13, DW_AT_TI_symbol_name("SINE_cosDAC")
	.dwattr $C$DW$13, DW_AT_type(*$C$DW$T$173)
	.dwattr $C$DW$13, DW_AT_declaration
	.dwattr $C$DW$13, DW_AT_external
	.dwattr $C$DW$13, DW_AT_decl_file("C:/Users/kyle_/Documents/CodeComposerStudio/PIXIE_MSP430/inc/sineref.h")
	.dwattr $C$DW$13, DW_AT_decl_line(0x2f)
	.dwattr $C$DW$13, DW_AT_decl_column(0x19)

$C$DW$14	.dwtag  DW_TAG_variable
	.dwattr $C$DW$14, DW_AT_name("SINE_sinDAC")
	.dwattr $C$DW$14, DW_AT_TI_symbol_name("SINE_sinDAC")
	.dwattr $C$DW$14, DW_AT_type(*$C$DW$T$173)
	.dwattr $C$DW$14, DW_AT_declaration
	.dwattr $C$DW$14, DW_AT_external
	.dwattr $C$DW$14, DW_AT_decl_file("C:/Users/kyle_/Documents/CodeComposerStudio/PIXIE_MSP430/inc/sineref.h")
	.dwattr $C$DW$14, DW_AT_decl_line(0x30)
	.dwattr $C$DW$14, DW_AT_decl_column(0x19)

$C$DW$15	.dwtag  DW_TAG_variable
	.dwattr $C$DW$15, DW_AT_name("CH_Channels")
	.dwattr $C$DW$15, DW_AT_TI_symbol_name("CH_Channels")
	.dwattr $C$DW$15, DW_AT_type(*$C$DW$T$54)
	.dwattr $C$DW$15, DW_AT_declaration
	.dwattr $C$DW$15, DW_AT_external
	.dwattr $C$DW$15, DW_AT_decl_file("C:/Users/kyle_/Documents/CodeComposerStudio/PIXIE_MSP430/inc/channels.h")
	.dwattr $C$DW$15, DW_AT_decl_line(0x3e)
	.dwattr $C$DW$15, DW_AT_decl_column(0x19)

$C$DW$16	.dwtag  DW_TAG_variable
	.dwattr $C$DW$16, DW_AT_name("CH_ActiveChannel")
	.dwattr $C$DW$16, DW_AT_TI_symbol_name("CH_ActiveChannel")
	.dwattr $C$DW$16, DW_AT_type(*$C$DW$T$53)
	.dwattr $C$DW$16, DW_AT_declaration
	.dwattr $C$DW$16, DW_AT_external
	.dwattr $C$DW$16, DW_AT_decl_file("C:/Users/kyle_/Documents/CodeComposerStudio/PIXIE_MSP430/inc/channels.h")
	.dwattr $C$DW$16, DW_AT_decl_line(0x3f)
	.dwattr $C$DW$16, DW_AT_decl_column(0x19)

$C$DW$17	.dwtag  DW_TAG_variable
	.dwattr $C$DW$17, DW_AT_name("CH_ChannelSequence")
	.dwattr $C$DW$17, DW_AT_TI_symbol_name("CH_ChannelSequence")
	.dwattr $C$DW$17, DW_AT_type(*$C$DW$T$55)
	.dwattr $C$DW$17, DW_AT_declaration
	.dwattr $C$DW$17, DW_AT_external
	.dwattr $C$DW$17, DW_AT_decl_file("C:/Users/kyle_/Documents/CodeComposerStudio/PIXIE_MSP430/inc/channels.h")
	.dwattr $C$DW$17, DW_AT_decl_line(0x42)
	.dwattr $C$DW$17, DW_AT_decl_column(0x19)

$C$DW$18	.dwtag  DW_TAG_variable
	.dwattr $C$DW$18, DW_AT_name("CH_RunCycles")
	.dwattr $C$DW$18, DW_AT_TI_symbol_name("CH_RunCycles")
	.dwattr $C$DW$18, DW_AT_type(*$C$DW$T$23)
	.dwattr $C$DW$18, DW_AT_declaration
	.dwattr $C$DW$18, DW_AT_external
	.dwattr $C$DW$18, DW_AT_decl_file("C:/Users/kyle_/Documents/CodeComposerStudio/PIXIE_MSP430/inc/channels.h")
	.dwattr $C$DW$18, DW_AT_decl_line(0x47)
	.dwattr $C$DW$18, DW_AT_decl_column(0x19)

$C$DW$19	.dwtag  DW_TAG_variable
	.dwattr $C$DW$19, DW_AT_name("CH_RunExclusions")
	.dwattr $C$DW$19, DW_AT_TI_symbol_name("CH_RunExclusions")
	.dwattr $C$DW$19, DW_AT_type(*$C$DW$T$23)
	.dwattr $C$DW$19, DW_AT_declaration
	.dwattr $C$DW$19, DW_AT_external
	.dwattr $C$DW$19, DW_AT_decl_file("C:/Users/kyle_/Documents/CodeComposerStudio/PIXIE_MSP430/inc/channels.h")
	.dwattr $C$DW$19, DW_AT_decl_line(0x48)
	.dwattr $C$DW$19, DW_AT_decl_column(0x19)

$C$DW$20	.dwtag  DW_TAG_variable
	.dwattr $C$DW$20, DW_AT_name("CMD_Command")
	.dwattr $C$DW$20, DW_AT_TI_symbol_name("CMD_Command")
	.dwattr $C$DW$20, DW_AT_type(*$C$DW$T$60)
	.dwattr $C$DW$20, DW_AT_declaration
	.dwattr $C$DW$20, DW_AT_external
	.dwattr $C$DW$20, DW_AT_decl_file("C:/Users/kyle_/Documents/CodeComposerStudio/PIXIE_MSP430/inc/cmd.h")
	.dwattr $C$DW$20, DW_AT_decl_line(0x8f)
	.dwattr $C$DW$20, DW_AT_decl_column(0x1d)

$C$DW$21	.dwtag  DW_TAG_variable
	.dwattr $C$DW$21, DW_AT_name("UART1_Output")
	.dwattr $C$DW$21, DW_AT_TI_symbol_name("UART1_Output")
	.dwattr $C$DW$21, DW_AT_type(*$C$DW$T$62)
	.dwattr $C$DW$21, DW_AT_declaration
	.dwattr $C$DW$21, DW_AT_external
	.dwattr $C$DW$21, DW_AT_decl_file("C:/Users/kyle_/Documents/CodeComposerStudio/PIXIE_MSP430/inc/uart.h")
	.dwattr $C$DW$21, DW_AT_decl_line(0x33)
	.dwattr $C$DW$21, DW_AT_decl_column(0x14)

$C$DW$22	.dwtag  DW_TAG_variable
	.dwattr $C$DW$22, DW_AT_name("UART1_Input")
	.dwattr $C$DW$22, DW_AT_TI_symbol_name("UART1_Input")
	.dwattr $C$DW$22, DW_AT_type(*$C$DW$T$62)
	.dwattr $C$DW$22, DW_AT_declaration
	.dwattr $C$DW$22, DW_AT_external
	.dwattr $C$DW$22, DW_AT_decl_file("C:/Users/kyle_/Documents/CodeComposerStudio/PIXIE_MSP430/inc/uart.h")
	.dwattr $C$DW$22, DW_AT_decl_line(0x34)
	.dwattr $C$DW$22, DW_AT_decl_column(0x14)

	.global	MAIN_ResetFlag
	.data
	.align	2
	.elfsym	MAIN_ResetFlag,SYM_SIZE(2)
MAIN_ResetFlag:
	.bits		0xffff,16
			; MAIN_ResetFlag @ 0

$C$DW$23	.dwtag  DW_TAG_variable
	.dwattr $C$DW$23, DW_AT_name("MAIN_ResetFlag")
	.dwattr $C$DW$23, DW_AT_TI_symbol_name("MAIN_ResetFlag")
	.dwattr $C$DW$23, DW_AT_location[DW_OP_addr MAIN_ResetFlag]
	.dwattr $C$DW$23, DW_AT_type(*$C$DW$T$174)
	.dwattr $C$DW$23, DW_AT_external
	.dwattr $C$DW$23, DW_AT_decl_file("../main.c")
	.dwattr $C$DW$23, DW_AT_decl_line(0x50)
	.dwattr $C$DW$23, DW_AT_decl_column(0x15)

	.global	MAIN_PendingRTCSetFlag
	.data
	.align	2
	.elfsym	MAIN_PendingRTCSetFlag,SYM_SIZE(2)
MAIN_PendingRTCSetFlag:
	.bits		0,16
			; MAIN_PendingRTCSetFlag @ 0

$C$DW$24	.dwtag  DW_TAG_variable
	.dwattr $C$DW$24, DW_AT_name("MAIN_PendingRTCSetFlag")
	.dwattr $C$DW$24, DW_AT_TI_symbol_name("MAIN_PendingRTCSetFlag")
	.dwattr $C$DW$24, DW_AT_location[DW_OP_addr MAIN_PendingRTCSetFlag]
	.dwattr $C$DW$24, DW_AT_type(*$C$DW$T$174)
	.dwattr $C$DW$24, DW_AT_external
	.dwattr $C$DW$24, DW_AT_decl_file("../main.c")
	.dwattr $C$DW$24, DW_AT_decl_line(0x51)
	.dwattr $C$DW$24, DW_AT_decl_column(0x15)

	.global	MAIN_CurrentTime
	.sect	".data:MAIN_CurrentTime", RW
	.align	2
	.elfsym	MAIN_CurrentTime,SYM_SIZE(12)
MAIN_CurrentTime:
	.bits		0,16
			; MAIN_CurrentTime.year @ 0
	.space	10

$C$DW$25	.dwtag  DW_TAG_variable
	.dwattr $C$DW$25, DW_AT_name("MAIN_CurrentTime")
	.dwattr $C$DW$25, DW_AT_TI_symbol_name("MAIN_CurrentTime")
	.dwattr $C$DW$25, DW_AT_location[DW_OP_addr MAIN_CurrentTime]
	.dwattr $C$DW$25, DW_AT_type(*$C$DW$T$43)
	.dwattr $C$DW$25, DW_AT_external
	.dwattr $C$DW$25, DW_AT_decl_file("../main.c")
	.dwattr $C$DW$25, DW_AT_decl_line(0x52)
	.dwattr $C$DW$25, DW_AT_decl_column(0x15)

	.global	MAIN_DACBuffer
	.data
	.align	2
	.elfsym	MAIN_DACBuffer,SYM_SIZE(4)
MAIN_DACBuffer:
	.bits		0,32
			; MAIN_DACBuffer @ 0

$C$DW$26	.dwtag  DW_TAG_variable
	.dwattr $C$DW$26, DW_AT_name("MAIN_DACBuffer")
	.dwattr $C$DW$26, DW_AT_TI_symbol_name("MAIN_DACBuffer")
	.dwattr $C$DW$26, DW_AT_location[DW_OP_addr MAIN_DACBuffer]
	.dwattr $C$DW$26, DW_AT_type(*$C$DW$T$175)
	.dwattr $C$DW$26, DW_AT_external
	.dwattr $C$DW$26, DW_AT_decl_file("../main.c")
	.dwattr $C$DW$26, DW_AT_decl_line(0x55)
	.dwattr $C$DW$26, DW_AT_decl_column(0x15)

	.global	MAIN_ADCBuffer
	.sect	".data:MAIN_ADCBuffer", RW
	.align	2
	.elfsym	MAIN_ADCBuffer,SYM_SIZE(1024)
MAIN_ADCBuffer:
	.bits		0,16
			; MAIN_ADCBuffer[0] @ 0
	.space	1022

$C$DW$27	.dwtag  DW_TAG_variable
	.dwattr $C$DW$27, DW_AT_name("MAIN_ADCBuffer")
	.dwattr $C$DW$27, DW_AT_TI_symbol_name("MAIN_ADCBuffer")
	.dwattr $C$DW$27, DW_AT_location[DW_OP_addr MAIN_ADCBuffer]
	.dwattr $C$DW$27, DW_AT_type(*$C$DW$T$135)
	.dwattr $C$DW$27, DW_AT_external
	.dwattr $C$DW$27, DW_AT_decl_file("../main.c")
	.dwattr $C$DW$27, DW_AT_decl_line(0x56)
	.dwattr $C$DW$27, DW_AT_decl_column(0x15)

	.global	MAIN_LockInXRef
	.sect	".data:MAIN_LockInXRef", RW
	.align	2
	.elfsym	MAIN_LockInXRef,SYM_SIZE(64)
MAIN_LockInXRef:
	.bits		0,32
			; MAIN_LockInXRef[0] @ 0
	.space	60

$C$DW$28	.dwtag  DW_TAG_variable
	.dwattr $C$DW$28, DW_AT_name("MAIN_LockInXRef")
	.dwattr $C$DW$28, DW_AT_TI_symbol_name("MAIN_LockInXRef")
	.dwattr $C$DW$28, DW_AT_location[DW_OP_addr MAIN_LockInXRef]
	.dwattr $C$DW$28, DW_AT_type(*$C$DW$T$198)
	.dwattr $C$DW$28, DW_AT_external
	.dwattr $C$DW$28, DW_AT_decl_file("../main.c")
	.dwattr $C$DW$28, DW_AT_decl_line(0x58)
	.dwattr $C$DW$28, DW_AT_decl_column(0x15)

	.global	MAIN_LockInYRef
	.sect	".data:MAIN_LockInYRef", RW
	.align	2
	.elfsym	MAIN_LockInYRef,SYM_SIZE(64)
MAIN_LockInYRef:
	.bits		0,32
			; MAIN_LockInYRef[0] @ 0
	.space	60

$C$DW$29	.dwtag  DW_TAG_variable
	.dwattr $C$DW$29, DW_AT_name("MAIN_LockInYRef")
	.dwattr $C$DW$29, DW_AT_TI_symbol_name("MAIN_LockInYRef")
	.dwattr $C$DW$29, DW_AT_location[DW_OP_addr MAIN_LockInYRef]
	.dwattr $C$DW$29, DW_AT_type(*$C$DW$T$198)
	.dwattr $C$DW$29, DW_AT_external
	.dwattr $C$DW$29, DW_AT_decl_file("../main.c")
	.dwattr $C$DW$29, DW_AT_decl_line(0x59)
	.dwattr $C$DW$29, DW_AT_decl_column(0x15)

	.global	MAIN_FilterTap1
	.data
	.align	2
	.elfsym	MAIN_FilterTap1,SYM_SIZE(4)
MAIN_FilterTap1:
	.bits		0,32
			; MAIN_FilterTap1 @ 0

$C$DW$30	.dwtag  DW_TAG_variable
	.dwattr $C$DW$30, DW_AT_name("MAIN_FilterTap1")
	.dwattr $C$DW$30, DW_AT_TI_symbol_name("MAIN_FilterTap1")
	.dwattr $C$DW$30, DW_AT_location[DW_OP_addr MAIN_FilterTap1]
	.dwattr $C$DW$30, DW_AT_type(*$C$DW$T$197)
	.dwattr $C$DW$30, DW_AT_external
	.dwattr $C$DW$30, DW_AT_decl_file("../main.c")
	.dwattr $C$DW$30, DW_AT_decl_line(0x5b)
	.dwattr $C$DW$30, DW_AT_decl_column(0x15)

	.global	MAIN_FilterTap2
	.data
	.align	2
	.elfsym	MAIN_FilterTap2,SYM_SIZE(4)
MAIN_FilterTap2:
	.bits		0,32
			; MAIN_FilterTap2 @ 0

$C$DW$31	.dwtag  DW_TAG_variable
	.dwattr $C$DW$31, DW_AT_name("MAIN_FilterTap2")
	.dwattr $C$DW$31, DW_AT_TI_symbol_name("MAIN_FilterTap2")
	.dwattr $C$DW$31, DW_AT_location[DW_OP_addr MAIN_FilterTap2]
	.dwattr $C$DW$31, DW_AT_type(*$C$DW$T$197)
	.dwattr $C$DW$31, DW_AT_external
	.dwattr $C$DW$31, DW_AT_decl_file("../main.c")
	.dwattr $C$DW$31, DW_AT_decl_line(0x5c)
	.dwattr $C$DW$31, DW_AT_decl_column(0x15)

	.global	MAIN_XFilterTap1
	.data
	.align	2
	.elfsym	MAIN_XFilterTap1,SYM_SIZE(4)
MAIN_XFilterTap1:
	.bits		0,32
			; MAIN_XFilterTap1 @ 0

$C$DW$32	.dwtag  DW_TAG_variable
	.dwattr $C$DW$32, DW_AT_name("MAIN_XFilterTap1")
	.dwattr $C$DW$32, DW_AT_TI_symbol_name("MAIN_XFilterTap1")
	.dwattr $C$DW$32, DW_AT_location[DW_OP_addr MAIN_XFilterTap1]
	.dwattr $C$DW$32, DW_AT_type(*$C$DW$T$197)
	.dwattr $C$DW$32, DW_AT_external
	.dwattr $C$DW$32, DW_AT_decl_file("../main.c")
	.dwattr $C$DW$32, DW_AT_decl_line(0x5e)
	.dwattr $C$DW$32, DW_AT_decl_column(0x15)

	.global	MAIN_XFilterTap2
	.data
	.align	2
	.elfsym	MAIN_XFilterTap2,SYM_SIZE(4)
MAIN_XFilterTap2:
	.bits		0,32
			; MAIN_XFilterTap2 @ 0

$C$DW$33	.dwtag  DW_TAG_variable
	.dwattr $C$DW$33, DW_AT_name("MAIN_XFilterTap2")
	.dwattr $C$DW$33, DW_AT_TI_symbol_name("MAIN_XFilterTap2")
	.dwattr $C$DW$33, DW_AT_location[DW_OP_addr MAIN_XFilterTap2]
	.dwattr $C$DW$33, DW_AT_type(*$C$DW$T$197)
	.dwattr $C$DW$33, DW_AT_external
	.dwattr $C$DW$33, DW_AT_decl_file("../main.c")
	.dwattr $C$DW$33, DW_AT_decl_line(0x5f)
	.dwattr $C$DW$33, DW_AT_decl_column(0x15)

	.global	MAIN_YFilterTap1
	.data
	.align	2
	.elfsym	MAIN_YFilterTap1,SYM_SIZE(4)
MAIN_YFilterTap1:
	.bits		0,32
			; MAIN_YFilterTap1 @ 0

$C$DW$34	.dwtag  DW_TAG_variable
	.dwattr $C$DW$34, DW_AT_name("MAIN_YFilterTap1")
	.dwattr $C$DW$34, DW_AT_TI_symbol_name("MAIN_YFilterTap1")
	.dwattr $C$DW$34, DW_AT_location[DW_OP_addr MAIN_YFilterTap1]
	.dwattr $C$DW$34, DW_AT_type(*$C$DW$T$197)
	.dwattr $C$DW$34, DW_AT_external
	.dwattr $C$DW$34, DW_AT_decl_file("../main.c")
	.dwattr $C$DW$34, DW_AT_decl_line(0x60)
	.dwattr $C$DW$34, DW_AT_decl_column(0x15)

	.global	MAIN_YFilterTap2
	.data
	.align	2
	.elfsym	MAIN_YFilterTap2,SYM_SIZE(4)
MAIN_YFilterTap2:
	.bits		0,32
			; MAIN_YFilterTap2 @ 0

$C$DW$35	.dwtag  DW_TAG_variable
	.dwattr $C$DW$35, DW_AT_name("MAIN_YFilterTap2")
	.dwattr $C$DW$35, DW_AT_TI_symbol_name("MAIN_YFilterTap2")
	.dwattr $C$DW$35, DW_AT_location[DW_OP_addr MAIN_YFilterTap2]
	.dwattr $C$DW$35, DW_AT_type(*$C$DW$T$197)
	.dwattr $C$DW$35, DW_AT_external
	.dwattr $C$DW$35, DW_AT_decl_file("../main.c")
	.dwattr $C$DW$35, DW_AT_decl_line(0x61)
	.dwattr $C$DW$35, DW_AT_decl_column(0x15)

	.global	MAIN_XOut
	.data
	.align	2
	.elfsym	MAIN_XOut,SYM_SIZE(2)
MAIN_XOut:
	.bits		0,16
			; MAIN_XOut @ 0

$C$DW$36	.dwtag  DW_TAG_variable
	.dwattr $C$DW$36, DW_AT_name("MAIN_XOut")
	.dwattr $C$DW$36, DW_AT_TI_symbol_name("MAIN_XOut")
	.dwattr $C$DW$36, DW_AT_location[DW_OP_addr MAIN_XOut]
	.dwattr $C$DW$36, DW_AT_type(*$C$DW$T$134)
	.dwattr $C$DW$36, DW_AT_external
	.dwattr $C$DW$36, DW_AT_decl_file("../main.c")
	.dwattr $C$DW$36, DW_AT_decl_line(0x63)
	.dwattr $C$DW$36, DW_AT_decl_column(0x15)

	.global	MAIN_YOut
	.data
	.align	2
	.elfsym	MAIN_YOut,SYM_SIZE(2)
MAIN_YOut:
	.bits		0,16
			; MAIN_YOut @ 0

$C$DW$37	.dwtag  DW_TAG_variable
	.dwattr $C$DW$37, DW_AT_name("MAIN_YOut")
	.dwattr $C$DW$37, DW_AT_TI_symbol_name("MAIN_YOut")
	.dwattr $C$DW$37, DW_AT_location[DW_OP_addr MAIN_YOut]
	.dwattr $C$DW$37, DW_AT_type(*$C$DW$T$134)
	.dwattr $C$DW$37, DW_AT_external
	.dwattr $C$DW$37, DW_AT_decl_file("../main.c")
	.dwattr $C$DW$37, DW_AT_decl_line(0x64)
	.dwattr $C$DW$37, DW_AT_decl_column(0x15)

	.global	MAIN_XAcc
	.data
	.align	2
	.elfsym	MAIN_XAcc,SYM_SIZE(4)
MAIN_XAcc:
	.bits		0,32
			; MAIN_XAcc @ 0

$C$DW$38	.dwtag  DW_TAG_variable
	.dwattr $C$DW$38, DW_AT_name("MAIN_XAcc")
	.dwattr $C$DW$38, DW_AT_TI_symbol_name("MAIN_XAcc")
	.dwattr $C$DW$38, DW_AT_location[DW_OP_addr MAIN_XAcc]
	.dwattr $C$DW$38, DW_AT_type(*$C$DW$T$197)
	.dwattr $C$DW$38, DW_AT_external
	.dwattr $C$DW$38, DW_AT_decl_file("../main.c")
	.dwattr $C$DW$38, DW_AT_decl_line(0x66)
	.dwattr $C$DW$38, DW_AT_decl_column(0x15)

	.global	MAIN_YAcc
	.data
	.align	2
	.elfsym	MAIN_YAcc,SYM_SIZE(4)
MAIN_YAcc:
	.bits		0,32
			; MAIN_YAcc @ 0

$C$DW$39	.dwtag  DW_TAG_variable
	.dwattr $C$DW$39, DW_AT_name("MAIN_YAcc")
	.dwattr $C$DW$39, DW_AT_TI_symbol_name("MAIN_YAcc")
	.dwattr $C$DW$39, DW_AT_location[DW_OP_addr MAIN_YAcc]
	.dwattr $C$DW$39, DW_AT_type(*$C$DW$T$197)
	.dwattr $C$DW$39, DW_AT_external
	.dwattr $C$DW$39, DW_AT_decl_file("../main.c")
	.dwattr $C$DW$39, DW_AT_decl_line(0x67)
	.dwattr $C$DW$39, DW_AT_decl_column(0x15)

	.global	MAIN_SequenceNumber
	.data
	.align	2
	.elfsym	MAIN_SequenceNumber,SYM_SIZE(2)
MAIN_SequenceNumber:
	.bits		0,16
			; MAIN_SequenceNumber @ 0

$C$DW$40	.dwtag  DW_TAG_variable
	.dwattr $C$DW$40, DW_AT_name("MAIN_SequenceNumber")
	.dwattr $C$DW$40, DW_AT_TI_symbol_name("MAIN_SequenceNumber")
	.dwattr $C$DW$40, DW_AT_location[DW_OP_addr MAIN_SequenceNumber]
	.dwattr $C$DW$40, DW_AT_type(*$C$DW$T$134)
	.dwattr $C$DW$40, DW_AT_external
	.dwattr $C$DW$40, DW_AT_decl_file("../main.c")
	.dwattr $C$DW$40, DW_AT_decl_line(0x6c)
	.dwattr $C$DW$40, DW_AT_decl_column(0x15)

	.global	MAIN_IndexNumber
	.data
	.align	2
	.elfsym	MAIN_IndexNumber,SYM_SIZE(2)
MAIN_IndexNumber:
	.bits		0,16
			; MAIN_IndexNumber @ 0

$C$DW$41	.dwtag  DW_TAG_variable
	.dwattr $C$DW$41, DW_AT_name("MAIN_IndexNumber")
	.dwattr $C$DW$41, DW_AT_TI_symbol_name("MAIN_IndexNumber")
	.dwattr $C$DW$41, DW_AT_location[DW_OP_addr MAIN_IndexNumber]
	.dwattr $C$DW$41, DW_AT_type(*$C$DW$T$134)
	.dwattr $C$DW$41, DW_AT_external
	.dwattr $C$DW$41, DW_AT_decl_file("../main.c")
	.dwattr $C$DW$41, DW_AT_decl_line(0x6d)
	.dwattr $C$DW$41, DW_AT_decl_column(0x15)


$C$DW$42	.dwtag  DW_TAG_subprogram
	.dwattr $C$DW$42, DW_AT_name("WDT_InitializeWDT")
	.dwattr $C$DW$42, DW_AT_TI_symbol_name("WDT_InitializeWDT")
	.dwattr $C$DW$42, DW_AT_declaration
	.dwattr $C$DW$42, DW_AT_external
	.dwattr $C$DW$42, DW_AT_decl_file("C:/Users/kyle_/Documents/CodeComposerStudio/PIXIE_MSP430/inc/wdt.h")
	.dwattr $C$DW$42, DW_AT_decl_line(0x1e)
	.dwattr $C$DW$42, DW_AT_decl_column(0x0d)
	.dwendtag $C$DW$42


$C$DW$43	.dwtag  DW_TAG_subprogram
	.dwattr $C$DW$43, DW_AT_name("GPIO_InitializeGPIO")
	.dwattr $C$DW$43, DW_AT_TI_symbol_name("GPIO_InitializeGPIO")
	.dwattr $C$DW$43, DW_AT_declaration
	.dwattr $C$DW$43, DW_AT_external
	.dwattr $C$DW$43, DW_AT_decl_file("C:/Users/kyle_/Documents/CodeComposerStudio/PIXIE_MSP430/inc/gpio.h")
	.dwattr $C$DW$43, DW_AT_decl_line(0x4c)
	.dwattr $C$DW$43, DW_AT_decl_column(0x0d)
	.dwendtag $C$DW$43


$C$DW$44	.dwtag  DW_TAG_subprogram
	.dwattr $C$DW$44, DW_AT_name("ADC_InitializeADC")
	.dwattr $C$DW$44, DW_AT_TI_symbol_name("ADC_InitializeADC")
	.dwattr $C$DW$44, DW_AT_declaration
	.dwattr $C$DW$44, DW_AT_external
	.dwattr $C$DW$44, DW_AT_decl_file("C:/Users/kyle_/Documents/CodeComposerStudio/PIXIE_MSP430/inc/adc.h")
	.dwattr $C$DW$44, DW_AT_decl_line(0x1e)
	.dwattr $C$DW$44, DW_AT_decl_column(0x06)
	.dwendtag $C$DW$44


$C$DW$45	.dwtag  DW_TAG_subprogram
	.dwattr $C$DW$45, DW_AT_name("DAC_InitializeDAC")
	.dwattr $C$DW$45, DW_AT_TI_symbol_name("DAC_InitializeDAC")
	.dwattr $C$DW$45, DW_AT_declaration
	.dwattr $C$DW$45, DW_AT_external
	.dwattr $C$DW$45, DW_AT_decl_file("C:/Users/kyle_/Documents/CodeComposerStudio/PIXIE_MSP430/inc/dac.h")
	.dwattr $C$DW$45, DW_AT_decl_line(0x1c)
	.dwattr $C$DW$45, DW_AT_decl_column(0x06)
	.dwendtag $C$DW$45


$C$DW$46	.dwtag  DW_TAG_subprogram
	.dwattr $C$DW$46, DW_AT_name("OPAMP_InitializeOPAMP")
	.dwattr $C$DW$46, DW_AT_TI_symbol_name("OPAMP_InitializeOPAMP")
	.dwattr $C$DW$46, DW_AT_declaration
	.dwattr $C$DW$46, DW_AT_external
	.dwattr $C$DW$46, DW_AT_decl_file("C:/Users/kyle_/Documents/CodeComposerStudio/PIXIE_MSP430/inc/opamp.h")
	.dwattr $C$DW$46, DW_AT_decl_line(0x1b)
	.dwattr $C$DW$46, DW_AT_decl_column(0x06)
	.dwendtag $C$DW$46


$C$DW$47	.dwtag  DW_TAG_subprogram
	.dwattr $C$DW$47, DW_AT_name("CLK_InitializeCLK")
	.dwattr $C$DW$47, DW_AT_TI_symbol_name("CLK_InitializeCLK")
	.dwattr $C$DW$47, DW_AT_declaration
	.dwattr $C$DW$47, DW_AT_external
	.dwattr $C$DW$47, DW_AT_decl_file("C:\Users\kyle_\Documents\CodeComposerStudio\PIXIE_MSP430\inc\clk.h")
	.dwattr $C$DW$47, DW_AT_decl_line(0x35)
	.dwattr $C$DW$47, DW_AT_decl_column(0x06)
	.dwendtag $C$DW$47


$C$DW$48	.dwtag  DW_TAG_subprogram
	.dwattr $C$DW$48, DW_AT_name("UART_InitializeUART")
	.dwattr $C$DW$48, DW_AT_TI_symbol_name("UART_InitializeUART")
	.dwattr $C$DW$48, DW_AT_declaration
	.dwattr $C$DW$48, DW_AT_external
	.dwattr $C$DW$48, DW_AT_decl_file("C:/Users/kyle_/Documents/CodeComposerStudio/PIXIE_MSP430/inc/uart.h")
	.dwattr $C$DW$48, DW_AT_decl_line(0x39)
	.dwattr $C$DW$48, DW_AT_decl_column(0x06)
	.dwendtag $C$DW$48


$C$DW$49	.dwtag  DW_TAG_subprogram
	.dwattr $C$DW$49, DW_AT_name("DMA_InitializeDMA")
	.dwattr $C$DW$49, DW_AT_TI_symbol_name("DMA_InitializeDMA")
	.dwattr $C$DW$49, DW_AT_declaration
	.dwattr $C$DW$49, DW_AT_external
	.dwattr $C$DW$49, DW_AT_decl_file("C:/Users/kyle_/Documents/CodeComposerStudio/PIXIE_MSP430/inc/dma.h")
	.dwattr $C$DW$49, DW_AT_decl_line(0x1f)
	.dwattr $C$DW$49, DW_AT_decl_column(0x06)
	.dwendtag $C$DW$49


$C$DW$50	.dwtag  DW_TAG_subprogram
	.dwattr $C$DW$50, DW_AT_name("TIMER_InitializeTimers")
	.dwattr $C$DW$50, DW_AT_TI_symbol_name("TIMER_InitializeTimers")
	.dwattr $C$DW$50, DW_AT_declaration
	.dwattr $C$DW$50, DW_AT_external
	.dwattr $C$DW$50, DW_AT_decl_file("C:/Users/kyle_/Documents/CodeComposerStudio/PIXIE_MSP430/inc/timer.h")
	.dwattr $C$DW$50, DW_AT_decl_line(0x1e)
	.dwattr $C$DW$50, DW_AT_decl_column(0x06)
	.dwendtag $C$DW$50


$C$DW$51	.dwtag  DW_TAG_subprogram
	.dwattr $C$DW$51, DW_AT_name("STATE_InitializeState")
	.dwattr $C$DW$51, DW_AT_TI_symbol_name("STATE_InitializeState")
	.dwattr $C$DW$51, DW_AT_declaration
	.dwattr $C$DW$51, DW_AT_external
	.dwattr $C$DW$51, DW_AT_decl_file("C:/Users/kyle_/Documents/CodeComposerStudio/PIXIE_MSP430/inc/state.h")
	.dwattr $C$DW$51, DW_AT_decl_line(0x2d)
	.dwattr $C$DW$51, DW_AT_decl_column(0x0d)
	.dwendtag $C$DW$51


$C$DW$52	.dwtag  DW_TAG_subprogram
	.dwattr $C$DW$52, DW_AT_name("CH_InitializeChannels")
	.dwattr $C$DW$52, DW_AT_TI_symbol_name("CH_InitializeChannels")
	.dwattr $C$DW$52, DW_AT_declaration
	.dwattr $C$DW$52, DW_AT_external
	.dwattr $C$DW$52, DW_AT_decl_file("C:/Users/kyle_/Documents/CodeComposerStudio/PIXIE_MSP430/inc/channels.h")
	.dwattr $C$DW$52, DW_AT_decl_line(0x4d)
	.dwattr $C$DW$52, DW_AT_decl_column(0x09)
	.dwendtag $C$DW$52


$C$DW$53	.dwtag  DW_TAG_subprogram
	.dwattr $C$DW$53, DW_AT_name("BAK_AssessBatteryBackup")
	.dwattr $C$DW$53, DW_AT_TI_symbol_name("BAK_AssessBatteryBackup")
	.dwattr $C$DW$53, DW_AT_type(*$C$DW$T$23)
	.dwattr $C$DW$53, DW_AT_declaration
	.dwattr $C$DW$53, DW_AT_external
	.dwattr $C$DW$53, DW_AT_decl_file("C:/Users/kyle_/Documents/CodeComposerStudio/PIXIE_MSP430/inc/bak.h")
	.dwattr $C$DW$53, DW_AT_decl_line(0x27)
	.dwattr $C$DW$53, DW_AT_decl_column(0x0a)
	.dwendtag $C$DW$53


$C$DW$54	.dwtag  DW_TAG_subprogram
	.dwattr $C$DW$54, DW_AT_name("BAK_CommitBatteryBackup")
	.dwattr $C$DW$54, DW_AT_TI_symbol_name("BAK_CommitBatteryBackup")
	.dwattr $C$DW$54, DW_AT_declaration
	.dwattr $C$DW$54, DW_AT_external
	.dwattr $C$DW$54, DW_AT_decl_file("C:/Users/kyle_/Documents/CodeComposerStudio/PIXIE_MSP430/inc/bak.h")
	.dwattr $C$DW$54, DW_AT_decl_line(0x28)
	.dwattr $C$DW$54, DW_AT_decl_column(0x0a)
	.dwendtag $C$DW$54


$C$DW$55	.dwtag  DW_TAG_subprogram
	.dwattr $C$DW$55, DW_AT_name("STATE_IsRunning")
	.dwattr $C$DW$55, DW_AT_TI_symbol_name("STATE_IsRunning")
	.dwattr $C$DW$55, DW_AT_type(*$C$DW$T$23)
	.dwattr $C$DW$55, DW_AT_declaration
	.dwattr $C$DW$55, DW_AT_external
	.dwattr $C$DW$55, DW_AT_decl_file("C:/Users/kyle_/Documents/CodeComposerStudio/PIXIE_MSP430/inc/state.h")
	.dwattr $C$DW$55, DW_AT_decl_line(0x32)
	.dwattr $C$DW$55, DW_AT_decl_column(0x0d)
	.dwendtag $C$DW$55


$C$DW$56	.dwtag  DW_TAG_subprogram
	.dwattr $C$DW$56, DW_AT_name("UART1_puts")
	.dwattr $C$DW$56, DW_AT_TI_symbol_name("UART1_puts")
	.dwattr $C$DW$56, DW_AT_type(*$C$DW$T$23)
	.dwattr $C$DW$56, DW_AT_declaration
	.dwattr $C$DW$56, DW_AT_external
	.dwattr $C$DW$56, DW_AT_decl_file("C:/Users/kyle_/Documents/CodeComposerStudio/PIXIE_MSP430/inc/uart.h")
	.dwattr $C$DW$56, DW_AT_decl_line(0x3c)
	.dwattr $C$DW$56, DW_AT_decl_column(0x0a)
$C$DW$57	.dwtag  DW_TAG_formal_parameter
	.dwattr $C$DW$57, DW_AT_type(*$C$DW$T$10)

	.dwendtag $C$DW$56


$C$DW$58	.dwtag  DW_TAG_subprogram
	.dwattr $C$DW$58, DW_AT_name("sprintf")
	.dwattr $C$DW$58, DW_AT_TI_symbol_name("sprintf")
	.dwattr $C$DW$58, DW_AT_type(*$C$DW$T$10)
	.dwattr $C$DW$58, DW_AT_declaration
	.dwattr $C$DW$58, DW_AT_external
	.dwattr $C$DW$58, DW_AT_decl_file("C:/ti/ccs1250/ccs/tools/compiler/ti-cgt-msp430_21.6.1.LTS/include/stdio.h")
	.dwattr $C$DW$58, DW_AT_decl_line(0x104)
	.dwattr $C$DW$58, DW_AT_decl_column(0x19)
$C$DW$59	.dwtag  DW_TAG_formal_parameter
	.dwattr $C$DW$59, DW_AT_type(*$C$DW$T$100)

$C$DW$60	.dwtag  DW_TAG_formal_parameter
	.dwattr $C$DW$60, DW_AT_type(*$C$DW$T$103)

$C$DW$61	.dwtag  DW_TAG_unspecified_parameters

	.dwendtag $C$DW$58


$C$DW$62	.dwtag  DW_TAG_subprogram
	.dwattr $C$DW$62, DW_AT_name("WDT_SoftwareReset")
	.dwattr $C$DW$62, DW_AT_TI_symbol_name("WDT_SoftwareReset")
	.dwattr $C$DW$62, DW_AT_declaration
	.dwattr $C$DW$62, DW_AT_external
	.dwattr $C$DW$62, DW_AT_decl_file("C:/Users/kyle_/Documents/CodeComposerStudio/PIXIE_MSP430/inc/wdt.h")
	.dwattr $C$DW$62, DW_AT_decl_line(0x1f)
	.dwattr $C$DW$62, DW_AT_decl_column(0x0d)
	.dwendtag $C$DW$62


$C$DW$63	.dwtag  DW_TAG_subprogram
	.dwattr $C$DW$63, DW_AT_name("CMD_ParseCommand")
	.dwattr $C$DW$63, DW_AT_TI_symbol_name("CMD_ParseCommand")
	.dwattr $C$DW$63, DW_AT_type(*$C$DW$T$23)
	.dwattr $C$DW$63, DW_AT_declaration
	.dwattr $C$DW$63, DW_AT_external
	.dwattr $C$DW$63, DW_AT_decl_file("C:/Users/kyle_/Documents/CodeComposerStudio/PIXIE_MSP430/inc/cmd.h")
	.dwattr $C$DW$63, DW_AT_decl_line(0x94)
	.dwattr $C$DW$63, DW_AT_decl_column(0x0a)
$C$DW$64	.dwtag  DW_TAG_formal_parameter
	.dwattr $C$DW$64, DW_AT_type(*$C$DW$T$99)

	.dwendtag $C$DW$63


$C$DW$65	.dwtag  DW_TAG_subprogram
	.dwattr $C$DW$65, DW_AT_name("STATE_IsIdle")
	.dwattr $C$DW$65, DW_AT_TI_symbol_name("STATE_IsIdle")
	.dwattr $C$DW$65, DW_AT_type(*$C$DW$T$23)
	.dwattr $C$DW$65, DW_AT_declaration
	.dwattr $C$DW$65, DW_AT_external
	.dwattr $C$DW$65, DW_AT_decl_file("C:/Users/kyle_/Documents/CodeComposerStudio/PIXIE_MSP430/inc/state.h")
	.dwattr $C$DW$65, DW_AT_decl_line(0x30)
	.dwattr $C$DW$65, DW_AT_decl_column(0x0d)
	.dwendtag $C$DW$65


$C$DW$66	.dwtag  DW_TAG_subprogram
	.dwattr $C$DW$66, DW_AT_name("STATE_SetState")
	.dwattr $C$DW$66, DW_AT_TI_symbol_name("STATE_SetState")
	.dwattr $C$DW$66, DW_AT_type(*$C$DW$T$23)
	.dwattr $C$DW$66, DW_AT_declaration
	.dwattr $C$DW$66, DW_AT_external
	.dwattr $C$DW$66, DW_AT_decl_file("C:/Users/kyle_/Documents/CodeComposerStudio/PIXIE_MSP430/inc/state.h")
	.dwattr $C$DW$66, DW_AT_decl_line(0x2e)
	.dwattr $C$DW$66, DW_AT_decl_column(0x0d)
$C$DW$67	.dwtag  DW_TAG_formal_parameter
	.dwattr $C$DW$67, DW_AT_type(*$C$DW$T$23)

	.dwendtag $C$DW$66


$C$DW$68	.dwtag  DW_TAG_subprogram
	.dwattr $C$DW$68, DW_AT_name("DMA_RenewDACBuffer")
	.dwattr $C$DW$68, DW_AT_TI_symbol_name("DMA_RenewDACBuffer")
	.dwattr $C$DW$68, DW_AT_declaration
	.dwattr $C$DW$68, DW_AT_external
	.dwattr $C$DW$68, DW_AT_decl_file("C:/Users/kyle_/Documents/CodeComposerStudio/PIXIE_MSP430/inc/dma.h")
	.dwattr $C$DW$68, DW_AT_decl_line(0x25)
	.dwattr $C$DW$68, DW_AT_decl_column(0x0d)
	.dwendtag $C$DW$68


$C$DW$69	.dwtag  DW_TAG_subprogram
	.dwattr $C$DW$69, DW_AT_name("ADC_SetADCChannel")
	.dwattr $C$DW$69, DW_AT_TI_symbol_name("ADC_SetADCChannel")
	.dwattr $C$DW$69, DW_AT_declaration
	.dwattr $C$DW$69, DW_AT_external
	.dwattr $C$DW$69, DW_AT_decl_file("C:/Users/kyle_/Documents/CodeComposerStudio/PIXIE_MSP430/inc/adc.h")
	.dwattr $C$DW$69, DW_AT_decl_line(0x21)
	.dwattr $C$DW$69, DW_AT_decl_column(0x06)
$C$DW$70	.dwtag  DW_TAG_formal_parameter
	.dwattr $C$DW$70, DW_AT_type(*$C$DW$T$23)

$C$DW$71	.dwtag  DW_TAG_formal_parameter
	.dwattr $C$DW$71, DW_AT_type(*$C$DW$T$23)

	.dwendtag $C$DW$69


$C$DW$72	.dwtag  DW_TAG_subprogram
	.dwattr $C$DW$72, DW_AT_name("DMA_SetDMA0")
	.dwattr $C$DW$72, DW_AT_TI_symbol_name("DMA_SetDMA0")
	.dwattr $C$DW$72, DW_AT_declaration
	.dwattr $C$DW$72, DW_AT_external
	.dwattr $C$DW$72, DW_AT_decl_file("C:/Users/kyle_/Documents/CodeComposerStudio/PIXIE_MSP430/inc/dma.h")
	.dwattr $C$DW$72, DW_AT_decl_line(0x21)
	.dwattr $C$DW$72, DW_AT_decl_column(0x0d)
	.dwendtag $C$DW$72


$C$DW$73	.dwtag  DW_TAG_subprogram
	.dwattr $C$DW$73, DW_AT_name("DMA_SetDMA1")
	.dwattr $C$DW$73, DW_AT_TI_symbol_name("DMA_SetDMA1")
	.dwattr $C$DW$73, DW_AT_declaration
	.dwattr $C$DW$73, DW_AT_external
	.dwattr $C$DW$73, DW_AT_decl_file("C:/Users/kyle_/Documents/CodeComposerStudio/PIXIE_MSP430/inc/dma.h")
	.dwattr $C$DW$73, DW_AT_decl_line(0x22)
	.dwattr $C$DW$73, DW_AT_decl_column(0x0d)
	.dwendtag $C$DW$73


$C$DW$74	.dwtag  DW_TAG_subprogram
	.dwattr $C$DW$74, DW_AT_name("TIMER_StartTimer0AND1")
	.dwattr $C$DW$74, DW_AT_TI_symbol_name("TIMER_StartTimer0AND1")
	.dwattr $C$DW$74, DW_AT_declaration
	.dwattr $C$DW$74, DW_AT_external
	.dwattr $C$DW$74, DW_AT_decl_file("C:/Users/kyle_/Documents/CodeComposerStudio/PIXIE_MSP430/inc/timer.h")
	.dwattr $C$DW$74, DW_AT_decl_line(0x24)
	.dwattr $C$DW$74, DW_AT_decl_column(0x06)
	.dwendtag $C$DW$74


$C$DW$75	.dwtag  DW_TAG_subprogram
	.dwattr $C$DW$75, DW_AT_name("TIMER_StartTimer0")
	.dwattr $C$DW$75, DW_AT_TI_symbol_name("TIMER_StartTimer0")
	.dwattr $C$DW$75, DW_AT_declaration
	.dwattr $C$DW$75, DW_AT_external
	.dwattr $C$DW$75, DW_AT_decl_file("C:/Users/kyle_/Documents/CodeComposerStudio/PIXIE_MSP430/inc/timer.h")
	.dwattr $C$DW$75, DW_AT_decl_line(0x20)
	.dwattr $C$DW$75, DW_AT_decl_column(0x06)
	.dwendtag $C$DW$75


$C$DW$76	.dwtag  DW_TAG_subprogram
	.dwattr $C$DW$76, DW_AT_name("TIMER_ResetTimer0")
	.dwattr $C$DW$76, DW_AT_TI_symbol_name("TIMER_ResetTimer0")
	.dwattr $C$DW$76, DW_AT_declaration
	.dwattr $C$DW$76, DW_AT_external
	.dwattr $C$DW$76, DW_AT_decl_file("C:/Users/kyle_/Documents/CodeComposerStudio/PIXIE_MSP430/inc/timer.h")
	.dwattr $C$DW$76, DW_AT_decl_line(0x2a)
	.dwattr $C$DW$76, DW_AT_decl_column(0x06)
	.dwendtag $C$DW$76


$C$DW$77	.dwtag  DW_TAG_subprogram
	.dwattr $C$DW$77, DW_AT_name("TIMER_ResetTimer1")
	.dwattr $C$DW$77, DW_AT_TI_symbol_name("TIMER_ResetTimer1")
	.dwattr $C$DW$77, DW_AT_declaration
	.dwattr $C$DW$77, DW_AT_external
	.dwattr $C$DW$77, DW_AT_decl_file("C:/Users/kyle_/Documents/CodeComposerStudio/PIXIE_MSP430/inc/timer.h")
	.dwattr $C$DW$77, DW_AT_decl_line(0x2b)
	.dwattr $C$DW$77, DW_AT_decl_column(0x06)
	.dwendtag $C$DW$77


$C$DW$78	.dwtag  DW_TAG_subprogram
	.dwattr $C$DW$78, DW_AT_name("TIMER_StartTimer1")
	.dwattr $C$DW$78, DW_AT_TI_symbol_name("TIMER_StartTimer1")
	.dwattr $C$DW$78, DW_AT_declaration
	.dwattr $C$DW$78, DW_AT_external
	.dwattr $C$DW$78, DW_AT_decl_file("C:/Users/kyle_/Documents/CodeComposerStudio/PIXIE_MSP430/inc/timer.h")
	.dwattr $C$DW$78, DW_AT_decl_line(0x21)
	.dwattr $C$DW$78, DW_AT_decl_column(0x06)
	.dwendtag $C$DW$78


$C$DW$79	.dwtag  DW_TAG_subprogram
	.dwattr $C$DW$79, DW_AT_name("ADC_CheckChannelGain")
	.dwattr $C$DW$79, DW_AT_TI_symbol_name("ADC_CheckChannelGain")
	.dwattr $C$DW$79, DW_AT_type(*$C$DW$T$23)
	.dwattr $C$DW$79, DW_AT_declaration
	.dwattr $C$DW$79, DW_AT_external
	.dwattr $C$DW$79, DW_AT_decl_file("C:/Users/kyle_/Documents/CodeComposerStudio/PIXIE_MSP430/inc/adc.h")
	.dwattr $C$DW$79, DW_AT_decl_line(0x23)
	.dwattr $C$DW$79, DW_AT_decl_column(0x0a)
$C$DW$80	.dwtag  DW_TAG_formal_parameter
	.dwattr $C$DW$80, DW_AT_type(*$C$DW$T$23)

$C$DW$81	.dwtag  DW_TAG_formal_parameter
	.dwattr $C$DW$81, DW_AT_type(*$C$DW$T$23)

	.dwendtag $C$DW$79


$C$DW$82	.dwtag  DW_TAG_subprogram
	.dwattr $C$DW$82, DW_AT_name("STATE_GetStateName")
	.dwattr $C$DW$82, DW_AT_TI_symbol_name("STATE_GetStateName")
	.dwattr $C$DW$82, DW_AT_type(*$C$DW$T$102)
	.dwattr $C$DW$82, DW_AT_declaration
	.dwattr $C$DW$82, DW_AT_external
	.dwattr $C$DW$82, DW_AT_decl_file("C:/Users/kyle_/Documents/CodeComposerStudio/PIXIE_MSP430/inc/state.h")
	.dwattr $C$DW$82, DW_AT_decl_line(0x33)
	.dwattr $C$DW$82, DW_AT_decl_column(0x0d)
	.dwendtag $C$DW$82


$C$DW$83	.dwtag  DW_TAG_subprogram
	.dwattr $C$DW$83, DW_AT_name("PIXIE_TypeStrings")
	.dwattr $C$DW$83, DW_AT_TI_symbol_name("PIXIE_TypeStrings")
	.dwattr $C$DW$83, DW_AT_type(*$C$DW$T$102)
	.dwattr $C$DW$83, DW_AT_declaration
	.dwattr $C$DW$83, DW_AT_external
	.dwattr $C$DW$83, DW_AT_decl_file("..\pixie.h")
	.dwattr $C$DW$83, DW_AT_decl_line(0x51)
	.dwattr $C$DW$83, DW_AT_decl_column(0x1c)
$C$DW$84	.dwtag  DW_TAG_formal_parameter
	.dwattr $C$DW$84, DW_AT_type(*$C$DW$T$23)

	.dwendtag $C$DW$83


$C$DW$85	.dwtag  DW_TAG_subprogram
	.dwattr $C$DW$85, DW_AT_name("DSP_AnalysisLoop")
	.dwattr $C$DW$85, DW_AT_TI_symbol_name("DSP_AnalysisLoop")
	.dwattr $C$DW$85, DW_AT_declaration
	.dwattr $C$DW$85, DW_AT_external
	.dwattr $C$DW$85, DW_AT_decl_file("C:/Users/kyle_/Documents/CodeComposerStudio/PIXIE_MSP430/inc/dsp.h")
	.dwattr $C$DW$85, DW_AT_decl_line(0x20)
	.dwattr $C$DW$85, DW_AT_decl_column(0x15)
	.dwendtag $C$DW$85


$C$DW$86	.dwtag  DW_TAG_subprogram
	.dwattr $C$DW$86, DW_AT_name("sqrt")
	.dwattr $C$DW$86, DW_AT_TI_symbol_name("sqrt")
	.dwattr $C$DW$86, DW_AT_type(*$C$DW$T$17)
	.dwattr $C$DW$86, DW_AT_declaration
	.dwattr $C$DW$86, DW_AT_external
	.dwattr $C$DW$86, DW_AT_decl_file("C:/ti/ccs1250/ccs/tools/compiler/ti-cgt-msp430_21.6.1.LTS/include/math.h")
	.dwattr $C$DW$86, DW_AT_decl_line(0x1c3)
	.dwattr $C$DW$86, DW_AT_decl_column(0x1a)
$C$DW$87	.dwtag  DW_TAG_formal_parameter
	.dwattr $C$DW$87, DW_AT_type(*$C$DW$T$17)

	.dwendtag $C$DW$86


$C$DW$88	.dwtag  DW_TAG_subprogram
	.dwattr $C$DW$88, DW_AT_name("CLK_SetRTC")
	.dwattr $C$DW$88, DW_AT_TI_symbol_name("CLK_SetRTC")
	.dwattr $C$DW$88, DW_AT_declaration
	.dwattr $C$DW$88, DW_AT_external
	.dwattr $C$DW$88, DW_AT_decl_file("C:\Users\kyle_\Documents\CodeComposerStudio\PIXIE_MSP430\inc\clk.h")
	.dwattr $C$DW$88, DW_AT_decl_line(0x36)
	.dwattr $C$DW$88, DW_AT_decl_column(0x06)
$C$DW$89	.dwtag  DW_TAG_formal_parameter
	.dwattr $C$DW$89, DW_AT_type(*$C$DW$T$50)

	.dwendtag $C$DW$88


$C$DW$90	.dwtag  DW_TAG_subprogram
	.dwattr $C$DW$90, DW_AT_name("CLK_GetRTC")
	.dwattr $C$DW$90, DW_AT_TI_symbol_name("CLK_GetRTC")
	.dwattr $C$DW$90, DW_AT_declaration
	.dwattr $C$DW$90, DW_AT_external
	.dwattr $C$DW$90, DW_AT_decl_file("C:\Users\kyle_\Documents\CodeComposerStudio\PIXIE_MSP430\inc\clk.h")
	.dwattr $C$DW$90, DW_AT_decl_line(0x37)
	.dwattr $C$DW$90, DW_AT_decl_column(0x06)
$C$DW$91	.dwtag  DW_TAG_formal_parameter
	.dwattr $C$DW$91, DW_AT_type(*$C$DW$T$50)

	.dwendtag $C$DW$90


$C$DW$92	.dwtag  DW_TAG_subprogram
	.dwattr $C$DW$92, DW_AT_name("__bis_SR_register")
	.dwattr $C$DW$92, DW_AT_TI_symbol_name("__bis_SR_register")
	.dwattr $C$DW$92, DW_AT_type(*$C$DW$T$11)
	.dwattr $C$DW$92, DW_AT_declaration
	.dwattr $C$DW$92, DW_AT_external
$C$DW$93	.dwtag  DW_TAG_formal_parameter
	.dwattr $C$DW$93, DW_AT_type(*$C$DW$T$9)

	.dwendtag $C$DW$92


$C$DW$94	.dwtag  DW_TAG_subprogram
	.dwattr $C$DW$94, DW_AT_name("__bic_SR_register")
	.dwattr $C$DW$94, DW_AT_TI_symbol_name("__bic_SR_register")
	.dwattr $C$DW$94, DW_AT_type(*$C$DW$T$11)
	.dwattr $C$DW$94, DW_AT_declaration
	.dwattr $C$DW$94, DW_AT_external
$C$DW$95	.dwtag  DW_TAG_formal_parameter
	.dwattr $C$DW$95, DW_AT_type(*$C$DW$T$9)

	.dwendtag $C$DW$94


$C$DW$96	.dwtag  DW_TAG_subprogram
	.dwattr $C$DW$96, DW_AT_name("__disable_interrupt")
	.dwattr $C$DW$96, DW_AT_TI_symbol_name("__disable_interrupt")
	.dwattr $C$DW$96, DW_AT_declaration
	.dwattr $C$DW$96, DW_AT_external
	.dwendtag $C$DW$96


$C$DW$97	.dwtag  DW_TAG_subprogram
	.dwattr $C$DW$97, DW_AT_name("__enable_interrupt")
	.dwattr $C$DW$97, DW_AT_TI_symbol_name("__enable_interrupt")
	.dwattr $C$DW$97, DW_AT_declaration
	.dwattr $C$DW$97, DW_AT_external
	.dwendtag $C$DW$97

;	C:\ti\ccs1250\ccs\tools\compiler\ti-cgt-msp430_21.6.1.LTS\bin\opt430.exe C:\\Users\\kyle_\\AppData\\Local\\Temp\\{6C779641-AE2D-4FE4-BA29-94F19B31537E} C:\\Users\\kyle_\\AppData\\Local\\Temp\\{3E5E2722-1C50-4CBA-AB41-D13CA48F2E4C} 
	.sect	".text:MAIN_InitializeLockIn"
	.align	4
	.clink
	.global	MAIN_InitializeLockIn

$C$DW$98	.dwtag  DW_TAG_subprogram
	.dwattr $C$DW$98, DW_AT_name("MAIN_InitializeLockIn")
	.dwattr $C$DW$98, DW_AT_low_pc(MAIN_InitializeLockIn)
	.dwattr $C$DW$98, DW_AT_high_pc(0x00)
	.dwattr $C$DW$98, DW_AT_TI_symbol_name("MAIN_InitializeLockIn")
	.dwattr $C$DW$98, DW_AT_external
	.dwattr $C$DW$98, DW_AT_TI_begin_file("../main.c")
	.dwattr $C$DW$98, DW_AT_TI_begin_line(0x115)
	.dwattr $C$DW$98, DW_AT_TI_begin_column(0x06)
	.dwattr $C$DW$98, DW_AT_decl_file("../main.c")
	.dwattr $C$DW$98, DW_AT_decl_line(0x115)
	.dwattr $C$DW$98, DW_AT_decl_column(0x06)
	.dwattr $C$DW$98, DW_AT_TI_max_frame_size(0x04)
	.dwpsn	file "../main.c",line 278,column 1,is_stmt,address MAIN_InitializeLockIn,isa 0

	.dwfde $C$DW$CIE, MAIN_InitializeLockIn

;*****************************************************************************
;* FUNCTION NAME: MAIN_InitializeLockIn                                      *
;*                                                                           *
;*   Regs Modified     : SP,SR,r14,r15                                       *
;*   Regs Used         : SP,SR,r14,r15                                       *
;*   Local Frame Size  : 0 Args + 0 Auto + 0 Save = 0 byte                   *
;*****************************************************************************
MAIN_InitializeLockIn:
;* --------------------------------------------------------------------------*
	.dwcfi	cfa_offset, 4
	.dwcfi	save_reg_to_mem, 16, -4
	.dwpsn	file "../main.c",line 283,column 9,is_stmt,isa 0
        MOVX.W    &SINE_cosADC+0,r14    ; [] |283| 
        BIT.W     #32768,r14            ; [] |283| 
        SUBC.W    r15,r15               ; [] |283| 
        INV.W     r15                   ; [] |283| 
        MOV.W     r14,&MAIN_LockInXRef+0 ; [] |283| 
        MOV.W     r15,&MAIN_LockInXRef+2 ; [] |283| 
	.dwpsn	file "../main.c",line 284,column 9,is_stmt,isa 0
        MOVX.W    &SINE_sinADC+0,r14    ; [] |284| 
        BIT.W     #32768,r14            ; [] |284| 
        SUBC.W    r15,r15               ; [] |284| 
        INV.W     r15                   ; [] |284| 
        MOV.W     r14,&MAIN_LockInYRef+0 ; [] |284| 
        MOV.W     r15,&MAIN_LockInYRef+2 ; [] |284| 
	.dwpsn	file "../main.c",line 283,column 9,is_stmt,isa 0
        MOVX.W    &SINE_cosADC+2,r14    ; [] |283| 
        BIT.W     #32768,r14            ; [] |283| 
        SUBC.W    r15,r15               ; [] |283| 
        INV.W     r15                   ; [] |283| 
        MOV.W     r14,&MAIN_LockInXRef+4 ; [] |283| 
        MOV.W     r15,&MAIN_LockInXRef+6 ; [] |283| 
	.dwpsn	file "../main.c",line 284,column 9,is_stmt,isa 0
        MOVX.W    &SINE_sinADC+2,r14    ; [] |284| 
        BIT.W     #32768,r14            ; [] |284| 
        SUBC.W    r15,r15               ; [] |284| 
        INV.W     r15                   ; [] |284| 
        MOV.W     r14,&MAIN_LockInYRef+4 ; [] |284| 
        MOV.W     r15,&MAIN_LockInYRef+6 ; [] |284| 
	.dwpsn	file "../main.c",line 283,column 9,is_stmt,isa 0
        MOVX.W    &SINE_cosADC+4,r14    ; [] |283| 
        BIT.W     #32768,r14            ; [] |283| 
        SUBC.W    r15,r15               ; [] |283| 
        INV.W     r15                   ; [] |283| 
        MOV.W     r14,&MAIN_LockInXRef+8 ; [] |283| 
        MOV.W     r15,&MAIN_LockInXRef+10 ; [] |283| 
	.dwpsn	file "../main.c",line 284,column 9,is_stmt,isa 0
        MOVX.W    &SINE_sinADC+4,r14    ; [] |284| 
        BIT.W     #32768,r14            ; [] |284| 
        SUBC.W    r15,r15               ; [] |284| 
        INV.W     r15                   ; [] |284| 
        MOV.W     r14,&MAIN_LockInYRef+8 ; [] |284| 
        MOV.W     r15,&MAIN_LockInYRef+10 ; [] |284| 
	.dwpsn	file "../main.c",line 283,column 9,is_stmt,isa 0
        MOVX.W    &SINE_cosADC+6,r14    ; [] |283| 
        BIT.W     #32768,r14            ; [] |283| 
        SUBC.W    r15,r15               ; [] |283| 
        INV.W     r15                   ; [] |283| 
        MOV.W     r14,&MAIN_LockInXRef+12 ; [] |283| 
        MOV.W     r15,&MAIN_LockInXRef+14 ; [] |283| 
	.dwpsn	file "../main.c",line 284,column 9,is_stmt,isa 0
        MOVX.W    &SINE_sinADC+6,r14    ; [] |284| 
        BIT.W     #32768,r14            ; [] |284| 
        SUBC.W    r15,r15               ; [] |284| 
        INV.W     r15                   ; [] |284| 
        MOV.W     r14,&MAIN_LockInYRef+12 ; [] |284| 
        MOV.W     r15,&MAIN_LockInYRef+14 ; [] |284| 
	.dwpsn	file "../main.c",line 283,column 9,is_stmt,isa 0
        MOVX.W    &SINE_cosADC+8,r14    ; [] |283| 
        BIT.W     #32768,r14            ; [] |283| 
        SUBC.W    r15,r15               ; [] |283| 
        INV.W     r15                   ; [] |283| 
        MOV.W     r14,&MAIN_LockInXRef+16 ; [] |283| 
        MOV.W     r15,&MAIN_LockInXRef+18 ; [] |283| 
	.dwpsn	file "../main.c",line 284,column 9,is_stmt,isa 0
        MOVX.W    &SINE_sinADC+8,r14    ; [] |284| 
        BIT.W     #32768,r14            ; [] |284| 
        SUBC.W    r15,r15               ; [] |284| 
        INV.W     r15                   ; [] |284| 
        MOV.W     r14,&MAIN_LockInYRef+16 ; [] |284| 
        MOV.W     r15,&MAIN_LockInYRef+18 ; [] |284| 
	.dwpsn	file "../main.c",line 283,column 9,is_stmt,isa 0
        MOVX.W    &SINE_cosADC+10,r14   ; [] |283| 
        BIT.W     #32768,r14            ; [] |283| 
        SUBC.W    r15,r15               ; [] |283| 
        INV.W     r15                   ; [] |283| 
        MOV.W     r14,&MAIN_LockInXRef+20 ; [] |283| 
        MOV.W     r15,&MAIN_LockInXRef+22 ; [] |283| 
	.dwpsn	file "../main.c",line 284,column 9,is_stmt,isa 0
        MOVX.W    &SINE_sinADC+10,r14   ; [] |284| 
        BIT.W     #32768,r14            ; [] |284| 
        SUBC.W    r15,r15               ; [] |284| 
        INV.W     r15                   ; [] |284| 
        MOV.W     r14,&MAIN_LockInYRef+20 ; [] |284| 
        MOV.W     r15,&MAIN_LockInYRef+22 ; [] |284| 
	.dwpsn	file "../main.c",line 283,column 9,is_stmt,isa 0
        MOVX.W    &SINE_cosADC+12,r14   ; [] |283| 
        BIT.W     #32768,r14            ; [] |283| 
        SUBC.W    r15,r15               ; [] |283| 
        INV.W     r15                   ; [] |283| 
        MOV.W     r14,&MAIN_LockInXRef+24 ; [] |283| 
        MOV.W     r15,&MAIN_LockInXRef+26 ; [] |283| 
	.dwpsn	file "../main.c",line 284,column 9,is_stmt,isa 0
        MOVX.W    &SINE_sinADC+12,r14   ; [] |284| 
        BIT.W     #32768,r14            ; [] |284| 
        SUBC.W    r15,r15               ; [] |284| 
        INV.W     r15                   ; [] |284| 
        MOV.W     r14,&MAIN_LockInYRef+24 ; [] |284| 
        MOV.W     r15,&MAIN_LockInYRef+26 ; [] |284| 
	.dwpsn	file "../main.c",line 283,column 9,is_stmt,isa 0
        MOVX.W    &SINE_cosADC+14,r14   ; [] |283| 
        BIT.W     #32768,r14            ; [] |283| 
        SUBC.W    r15,r15               ; [] |283| 
        INV.W     r15                   ; [] |283| 
        MOV.W     r14,&MAIN_LockInXRef+28 ; [] |283| 
        MOV.W     r15,&MAIN_LockInXRef+30 ; [] |283| 
	.dwpsn	file "../main.c",line 284,column 9,is_stmt,isa 0
        MOVX.W    &SINE_sinADC+14,r14   ; [] |284| 
        BIT.W     #32768,r14            ; [] |284| 
        SUBC.W    r15,r15               ; [] |284| 
        INV.W     r15                   ; [] |284| 
        MOV.W     r14,&MAIN_LockInYRef+28 ; [] |284| 
        MOV.W     r15,&MAIN_LockInYRef+30 ; [] |284| 
	.dwpsn	file "../main.c",line 283,column 9,is_stmt,isa 0
        MOVX.W    &SINE_cosADC+16,r14   ; [] |283| 
        BIT.W     #32768,r14            ; [] |283| 
        SUBC.W    r15,r15               ; [] |283| 
        INV.W     r15                   ; [] |283| 
        MOV.W     r14,&MAIN_LockInXRef+32 ; [] |283| 
        MOV.W     r15,&MAIN_LockInXRef+34 ; [] |283| 
	.dwpsn	file "../main.c",line 284,column 9,is_stmt,isa 0
        MOVX.W    &SINE_sinADC+16,r14   ; [] |284| 
        BIT.W     #32768,r14            ; [] |284| 
        SUBC.W    r15,r15               ; [] |284| 
        INV.W     r15                   ; [] |284| 
        MOV.W     r14,&MAIN_LockInYRef+32 ; [] |284| 
        MOV.W     r15,&MAIN_LockInYRef+34 ; [] |284| 
	.dwpsn	file "../main.c",line 283,column 9,is_stmt,isa 0
        MOVX.W    &SINE_cosADC+18,r14   ; [] |283| 
        BIT.W     #32768,r14            ; [] |283| 
        SUBC.W    r15,r15               ; [] |283| 
        INV.W     r15                   ; [] |283| 
        MOV.W     r14,&MAIN_LockInXRef+36 ; [] |283| 
        MOV.W     r15,&MAIN_LockInXRef+38 ; [] |283| 
	.dwpsn	file "../main.c",line 284,column 9,is_stmt,isa 0
        MOVX.W    &SINE_sinADC+18,r14   ; [] |284| 
        BIT.W     #32768,r14            ; [] |284| 
        SUBC.W    r15,r15               ; [] |284| 
        INV.W     r15                   ; [] |284| 
        MOV.W     r14,&MAIN_LockInYRef+36 ; [] |284| 
        MOV.W     r15,&MAIN_LockInYRef+38 ; [] |284| 
	.dwpsn	file "../main.c",line 283,column 9,is_stmt,isa 0
        MOVX.W    &SINE_cosADC+20,r14   ; [] |283| 
        BIT.W     #32768,r14            ; [] |283| 
        SUBC.W    r15,r15               ; [] |283| 
        INV.W     r15                   ; [] |283| 
        MOV.W     r14,&MAIN_LockInXRef+40 ; [] |283| 
        MOV.W     r15,&MAIN_LockInXRef+42 ; [] |283| 
	.dwpsn	file "../main.c",line 284,column 9,is_stmt,isa 0
        MOVX.W    &SINE_sinADC+20,r14   ; [] |284| 
        BIT.W     #32768,r14            ; [] |284| 
        SUBC.W    r15,r15               ; [] |284| 
        INV.W     r15                   ; [] |284| 
        MOV.W     r14,&MAIN_LockInYRef+40 ; [] |284| 
        MOV.W     r15,&MAIN_LockInYRef+42 ; [] |284| 
	.dwpsn	file "../main.c",line 283,column 9,is_stmt,isa 0
        MOVX.W    &SINE_cosADC+22,r14   ; [] |283| 
        BIT.W     #32768,r14            ; [] |283| 
        SUBC.W    r15,r15               ; [] |283| 
        INV.W     r15                   ; [] |283| 
        MOV.W     r14,&MAIN_LockInXRef+44 ; [] |283| 
        MOV.W     r15,&MAIN_LockInXRef+46 ; [] |283| 
	.dwpsn	file "../main.c",line 284,column 9,is_stmt,isa 0
        MOVX.W    &SINE_sinADC+22,r14   ; [] |284| 
        BIT.W     #32768,r14            ; [] |284| 
        SUBC.W    r15,r15               ; [] |284| 
        INV.W     r15                   ; [] |284| 
        MOV.W     r14,&MAIN_LockInYRef+44 ; [] |284| 
        MOV.W     r15,&MAIN_LockInYRef+46 ; [] |284| 
	.dwpsn	file "../main.c",line 283,column 9,is_stmt,isa 0
        MOVX.W    &SINE_cosADC+24,r14   ; [] |283| 
        BIT.W     #32768,r14            ; [] |283| 
        SUBC.W    r15,r15               ; [] |283| 
        INV.W     r15                   ; [] |283| 
        MOV.W     r14,&MAIN_LockInXRef+48 ; [] |283| 
        MOV.W     r15,&MAIN_LockInXRef+50 ; [] |283| 
	.dwpsn	file "../main.c",line 284,column 9,is_stmt,isa 0
        MOVX.W    &SINE_sinADC+24,r14   ; [] |284| 
        BIT.W     #32768,r14            ; [] |284| 
        SUBC.W    r15,r15               ; [] |284| 
        INV.W     r15                   ; [] |284| 
        MOV.W     r14,&MAIN_LockInYRef+48 ; [] |284| 
        MOV.W     r15,&MAIN_LockInYRef+50 ; [] |284| 
	.dwpsn	file "../main.c",line 283,column 9,is_stmt,isa 0
        MOVX.W    &SINE_cosADC+26,r14   ; [] |283| 
        BIT.W     #32768,r14            ; [] |283| 
        SUBC.W    r15,r15               ; [] |283| 
        INV.W     r15                   ; [] |283| 
        MOV.W     r14,&MAIN_LockInXRef+52 ; [] |283| 
        MOV.W     r15,&MAIN_LockInXRef+54 ; [] |283| 
	.dwpsn	file "../main.c",line 284,column 9,is_stmt,isa 0
        MOVX.W    &SINE_sinADC+26,r14   ; [] |284| 
        BIT.W     #32768,r14            ; [] |284| 
        SUBC.W    r15,r15               ; [] |284| 
        INV.W     r15                   ; [] |284| 
        MOV.W     r14,&MAIN_LockInYRef+52 ; [] |284| 
        MOV.W     r15,&MAIN_LockInYRef+54 ; [] |284| 
	.dwpsn	file "../main.c",line 283,column 9,is_stmt,isa 0
        MOVX.W    &SINE_cosADC+28,r14   ; [] |283| 
        BIT.W     #32768,r14            ; [] |283| 
        SUBC.W    r15,r15               ; [] |283| 
        INV.W     r15                   ; [] |283| 
        MOV.W     r14,&MAIN_LockInXRef+56 ; [] |283| 
        MOV.W     r15,&MAIN_LockInXRef+58 ; [] |283| 
	.dwpsn	file "../main.c",line 284,column 9,is_stmt,isa 0
        MOVX.W    &SINE_sinADC+28,r14   ; [] |284| 
        BIT.W     #32768,r14            ; [] |284| 
        SUBC.W    r15,r15               ; [] |284| 
        INV.W     r15                   ; [] |284| 
        MOV.W     r14,&MAIN_LockInYRef+56 ; [] |284| 
        MOV.W     r15,&MAIN_LockInYRef+58 ; [] |284| 
	.dwpsn	file "../main.c",line 283,column 9,is_stmt,isa 0
        MOVX.W    &SINE_cosADC+30,r14   ; [] |283| 
        BIT.W     #32768,r14            ; [] |283| 
        SUBC.W    r15,r15               ; [] |283| 
        INV.W     r15                   ; [] |283| 
        MOV.W     r14,&MAIN_LockInXRef+60 ; [] |283| 
        MOV.W     r15,&MAIN_LockInXRef+62 ; [] |283| 
	.dwpsn	file "../main.c",line 284,column 9,is_stmt,isa 0
        MOVX.W    &SINE_sinADC+30,r14   ; [] |284| 
        BIT.W     #32768,r14            ; [] |284| 
        SUBC.W    r15,r15               ; [] |284| 
        INV.W     r15                   ; [] |284| 
        MOV.W     r14,&MAIN_LockInYRef+60 ; [] |284| 
        MOV.W     r15,&MAIN_LockInYRef+62 ; [] |284| 
	.dwpsn	file "../main.c",line 290,column 9,is_stmt,isa 0
        MOVX.A    &MAIN_DACBuffer+0,r15 ; [] |290| 
        MOVX.W    &SINE_cosDAC+0,0(r15) ; [] |290| 
        MOVX.A    &MAIN_DACBuffer+0,r15 ; [] |290| 
        MOVX.W    &SINE_cosDAC+2,2(r15) ; [] |290| 
        MOVX.A    &MAIN_DACBuffer+0,r15 ; [] |290| 
        MOVX.W    &SINE_cosDAC+4,4(r15) ; [] |290| 
        MOVX.A    &MAIN_DACBuffer+0,r15 ; [] |290| 
        MOVX.W    &SINE_cosDAC+6,6(r15) ; [] |290| 
        MOVX.A    &MAIN_DACBuffer+0,r15 ; [] |290| 
        MOVX.W    &SINE_cosDAC+8,8(r15) ; [] |290| 
        MOVX.A    &MAIN_DACBuffer+0,r15 ; [] |290| 
        MOVX.W    &SINE_cosDAC+10,10(r15) ; [] |290| 
        MOVX.A    &MAIN_DACBuffer+0,r15 ; [] |290| 
        MOVX.W    &SINE_cosDAC+12,12(r15) ; [] |290| 
        MOVX.A    &MAIN_DACBuffer+0,r15 ; [] |290| 
        MOVX.W    &SINE_cosDAC+14,14(r15) ; [] |290| 
        MOVX.A    &MAIN_DACBuffer+0,r15 ; [] |290| 
        MOVX.W    &SINE_cosDAC+16,16(r15) ; [] |290| 
        MOVX.A    &MAIN_DACBuffer+0,r15 ; [] |290| 
        MOVX.W    &SINE_cosDAC+18,18(r15) ; [] |290| 
        MOVX.A    &MAIN_DACBuffer+0,r15 ; [] |290| 
        MOVX.W    &SINE_cosDAC+20,20(r15) ; [] |290| 
        MOVX.A    &MAIN_DACBuffer+0,r15 ; [] |290| 
        MOVX.W    &SINE_cosDAC+22,22(r15) ; [] |290| 
        MOVX.A    &MAIN_DACBuffer+0,r15 ; [] |290| 
        MOVX.W    &SINE_cosDAC+24,24(r15) ; [] |290| 
        MOVX.A    &MAIN_DACBuffer+0,r15 ; [] |290| 
        MOVX.W    &SINE_cosDAC+26,26(r15) ; [] |290| 
        MOVX.A    &MAIN_DACBuffer+0,r15 ; [] |290| 
        MOVX.W    &SINE_cosDAC+28,28(r15) ; [] |290| 
        MOVX.A    &MAIN_DACBuffer+0,r15 ; [] |290| 
        MOVX.W    &SINE_cosDAC+30,30(r15) ; [] |290| 
        MOVX.A    &MAIN_DACBuffer+0,r15 ; [] |290| 
        MOVX.W    &SINE_cosDAC+32,32(r15) ; [] |290| 
        MOVX.A    &MAIN_DACBuffer+0,r15 ; [] |290| 
        MOVX.W    &SINE_cosDAC+34,34(r15) ; [] |290| 
        MOVX.A    &MAIN_DACBuffer+0,r15 ; [] |290| 
        MOVX.W    &SINE_cosDAC+36,36(r15) ; [] |290| 
        MOVX.A    &MAIN_DACBuffer+0,r15 ; [] |290| 
        MOVX.W    &SINE_cosDAC+38,38(r15) ; [] |290| 
        MOVX.A    &MAIN_DACBuffer+0,r15 ; [] |290| 
        MOVX.W    &SINE_cosDAC+40,40(r15) ; [] |290| 
        MOVX.A    &MAIN_DACBuffer+0,r15 ; [] |290| 
        MOVX.W    &SINE_cosDAC+42,42(r15) ; [] |290| 
        MOVX.A    &MAIN_DACBuffer+0,r15 ; [] |290| 
        MOVX.W    &SINE_cosDAC+44,44(r15) ; [] |290| 
        MOVX.A    &MAIN_DACBuffer+0,r15 ; [] |290| 
        MOVX.W    &SINE_cosDAC+46,46(r15) ; [] |290| 
        MOVX.A    &MAIN_DACBuffer+0,r15 ; [] |290| 
        MOVX.W    &SINE_cosDAC+48,48(r15) ; [] |290| 
        MOVX.A    &MAIN_DACBuffer+0,r15 ; [] |290| 
        MOVX.W    &SINE_cosDAC+50,50(r15) ; [] |290| 
        MOVX.A    &MAIN_DACBuffer+0,r15 ; [] |290| 
        MOVX.W    &SINE_cosDAC+52,52(r15) ; [] |290| 
        MOVX.A    &MAIN_DACBuffer+0,r15 ; [] |290| 
        MOVX.W    &SINE_cosDAC+54,54(r15) ; [] |290| 
        MOVX.A    &MAIN_DACBuffer+0,r15 ; [] |290| 
        MOVX.W    &SINE_cosDAC+56,56(r15) ; [] |290| 
        MOVX.A    &MAIN_DACBuffer+0,r15 ; [] |290| 
        MOVX.W    &SINE_cosDAC+58,58(r15) ; [] |290| 
        MOVX.A    &MAIN_DACBuffer+0,r15 ; [] |290| 
        MOVX.W    &SINE_cosDAC+60,60(r15) ; [] |290| 
        MOVX.A    &MAIN_DACBuffer+0,r15 ; [] |290| 
        MOVX.W    &SINE_cosDAC+62,62(r15) ; [] |290| 
$C$DW$99	.dwtag  DW_TAG_TI_branch
	.dwattr $C$DW$99, DW_AT_low_pc(0x00)
	.dwattr $C$DW$99, DW_AT_TI_return

        RETA      ; [] 
        ; [] 
	.dwattr $C$DW$98, DW_AT_TI_end_file("../main.c")
	.dwattr $C$DW$98, DW_AT_TI_end_line(0x124)
	.dwattr $C$DW$98, DW_AT_TI_end_column(0x01)
	.dwendentry
	.dwendtag $C$DW$98

	.sect	".text:MAIN_ExecuteRUN"
	.align	4
	.clink
	.global	MAIN_ExecuteRUN

$C$DW$100	.dwtag  DW_TAG_subprogram
	.dwattr $C$DW$100, DW_AT_name("MAIN_ExecuteRUN")
	.dwattr $C$DW$100, DW_AT_low_pc(MAIN_ExecuteRUN)
	.dwattr $C$DW$100, DW_AT_high_pc(0x00)
	.dwattr $C$DW$100, DW_AT_TI_symbol_name("MAIN_ExecuteRUN")
	.dwattr $C$DW$100, DW_AT_external
	.dwattr $C$DW$100, DW_AT_TI_begin_file("../main.c")
	.dwattr $C$DW$100, DW_AT_TI_begin_line(0x1a3)
	.dwattr $C$DW$100, DW_AT_TI_begin_column(0x06)
	.dwattr $C$DW$100, DW_AT_decl_file("../main.c")
	.dwattr $C$DW$100, DW_AT_decl_line(0x1a3)
	.dwattr $C$DW$100, DW_AT_decl_column(0x06)
	.dwattr $C$DW$100, DW_AT_TI_max_frame_size(0x14)
	.dwpsn	file "../main.c",line 420,column 1,is_stmt,address MAIN_ExecuteRUN,isa 0

	.dwfde $C$DW$CIE, MAIN_ExecuteRUN

;*****************************************************************************
;* FUNCTION NAME: MAIN_ExecuteRUN                                            *
;*                                                                           *
;*   Regs Modified     : SP,SR,r7,r8,r9,r10,r11,r12,r13,r14,r15              *
;*   Regs Used         : SP,SR,r7,r8,r9,r10,r11,r12,r13,r14,r15              *
;*   Local Frame Size  : 0 Args + 0 Auto + 16 Save = 16 byte                 *
;*****************************************************************************
MAIN_ExecuteRUN:
;* --------------------------------------------------------------------------*
;* r8    assigned to $O$C1
;* r8    assigned to $O$C2
;* r8    assigned to $O$C3
;* r8    assigned to $O$C4
;* r8    assigned to $O$C5
;* r8    assigned to $O$C6
;* r8    assigned to $O$C7
;* r8    assigned to $O$C8
;* r8    assigned to $O$C9
;* r8    assigned to $O$C10
;* r8    assigned to $O$C11
;* r8    assigned to $O$C12
;* r8    assigned to $O$C13
;* r8    assigned to $O$C14
;* r8    assigned to $O$C15
;* r8    assigned to $O$C16
;* r15   assigned to $O$C17
;* r12   assigned to $O$U242
;* r12   assigned to $O$U242
;* r9    assigned to $O$U330
;* r10   assigned to $O$U335
;* r11   assigned to $O$U343
;* r14   assigned to $O$U351
;* r15   assigned to $O$U359
;* r7    assigned to $O$L1
;* r14   assigned to $O$y118
;* r15   assigned to $O$v2
;* r15   assigned to g
$C$DW$101	.dwtag  DW_TAG_variable
	.dwattr $C$DW$101, DW_AT_name("g")
	.dwattr $C$DW$101, DW_AT_TI_symbol_name("g")
	.dwattr $C$DW$101, DW_AT_type(*$C$DW$T$23)
	.dwattr $C$DW$101, DW_AT_location[DW_OP_reg15]

;* r15   assigned to g
$C$DW$102	.dwtag  DW_TAG_variable
	.dwattr $C$DW$102, DW_AT_name("g")
	.dwattr $C$DW$102, DW_AT_TI_symbol_name("g")
	.dwattr $C$DW$102, DW_AT_type(*$C$DW$T$23)
	.dwattr $C$DW$102, DW_AT_location[DW_OP_reg15]

	.dwcfi	cfa_offset, 4
	.dwcfi	save_reg_to_mem, 16, -4
        PUSHM.A   #4,r10                ; [] 
	.dwcfi	save_reg_to_mem, 10, -8
	.dwcfi	save_reg_to_mem, 9, -12
	.dwcfi	save_reg_to_mem, 8, -16
	.dwcfi	save_reg_to_mem, 7, -20
	.dwcfi	cfa_offset, 20
	.dwpsn	file "../main.c",line 425,column 5,is_stmt,isa 0
$C$DW$103	.dwtag  DW_TAG_TI_branch
	.dwattr $C$DW$103, DW_AT_low_pc(0x00)
	.dwattr $C$DW$103, DW_AT_name("STATE_IsIdle")
	.dwattr $C$DW$103, DW_AT_TI_call

        CALLA     #STATE_IsIdle         ; [] |425| 
                                          ; [] |425| 
        TST.W     r12                   ; [] |425| 
        JEQ       $C$L77                ; [] |425| 
                                          ; [] |425| 
;* --------------------------------------------------------------------------*
	.dwpsn	file "../main.c",line 428,column 9,is_stmt,isa 0
        MOV.W     &CMD_Command+2,r15    ; [] |428| 
        CMP.W     #5,r15                ; [] |428| 
        JHS       $C$L76                ; [] |428| 
                                          ; [] |428| 
;* --------------------------------------------------------------------------*
        TST.W     &CMD_Command+4        ; [] |428| 
        JEQ       $C$L76                ; [] |428| 
                                          ; [] |428| 
;* --------------------------------------------------------------------------*
        CMP.W     #3601,&CMD_Command+4  ; [] |428| 
        JLO       $C$L1                 ; [] |428| 
                                          ; [] |428| 
;* --------------------------------------------------------------------------*
        CMP.W     #3678,&CMD_Command+4  ; [] |428| 
        JNE       $C$L76                ; [] |428| 
                                          ; [] |428| 
;* --------------------------------------------------------------------------*
$C$L1:    
	.dwpsn	file "../main.c",line 440,column 9,is_stmt,isa 0
        TST.W     r15                   ; [] |440| 
        JEQ       $C$L38                ; [] |440| 
                                          ; [] |440| 
;* --------------------------------------------------------------------------*
	.dwpsn	file "../main.c",line 498,column 13,is_stmt,isa 0
        MOV.W     #2,r12                ; [] |498| 
$C$DW$104	.dwtag  DW_TAG_TI_branch
	.dwattr $C$DW$104, DW_AT_low_pc(0x00)
	.dwattr $C$DW$104, DW_AT_name("STATE_SetState")
	.dwattr $C$DW$104, DW_AT_TI_call

        CALLA     #STATE_SetState       ; [] |498| 
                                          ; [] |498| 
	.dwpsn	file "../main.c",line 501,column 13,is_stmt,isa 0
        MOV.W     &CMD_Command+2,r15    ; [] |501| 
        RLAM.W    #2,r15                ; [] |501| 
        MOVX.A    CH_Channels+0(r15),r14 ; [] |501| 
        MOVX.A    r14,&CH_ActiveChannel+0 ; [] |501| 
	.dwpsn	file "../main.c",line 504,column 13,is_stmt,isa 0
        MOVX.A    #0,102(r14)           ; [] |504| 
	.dwpsn	file "../main.c",line 507,column 13,is_stmt,isa 0
        MOV.W     &CMD_Command+4,r15    ; [] |507| 
        RLAM.W    #4,r15                ; [] |507| 
        MOV.W     r15,&CH_RunCycles+0   ; [] |507| 
	.dwpsn	file "../main.c",line 510,column 13,is_stmt,isa 0
        MOV.W     #0,&CH_RunExclusions+0 ; [] |510| 
	.dwpsn	file "../main.c",line 515,column 17,is_stmt,isa 0
        MOV.W     #10,r15               ; [] |515| 
        ADDX.A    &CH_ActiveChannel+0,r15 ; [] |515| 
        MOV.W     8(r14),r13            ; [] |515| 
        MOVX.W    &SINE_cosDAC+0,r12    ; [] |515| 
$C$DW$105	.dwtag  DW_TAG_TI_branch
	.dwattr $C$DW$105, DW_AT_low_pc(0x00)
	.dwattr $C$DW$105, DW_AT_name("__mspabi_srli")
	.dwattr $C$DW$105, DW_AT_TI_call

        CALLA     #__mspabi_srli        ; [] |515| 
                                          ; [] |515| 
        MOV.W     r12,0(r15)            ; [] |515| 
        MOV.W     8(r14),r13            ; [] |515| 
        MOVX.W    &SINE_cosDAC+2,r12    ; [] |515| 
$C$DW$106	.dwtag  DW_TAG_TI_branch
	.dwattr $C$DW$106, DW_AT_low_pc(0x00)
	.dwattr $C$DW$106, DW_AT_name("__mspabi_srli")
	.dwattr $C$DW$106, DW_AT_TI_call

        CALLA     #__mspabi_srli        ; [] |515| 
                                          ; [] |515| 
        MOVX.A    &CH_ActiveChannel+0,r13 ; [] |515| 
        MOV.W     r12,12(r13)           ; [] |515| 
        MOV.W     8(r14),r13            ; [] |515| 
        MOVX.W    &SINE_cosDAC+4,r12    ; [] |515| 
$C$DW$107	.dwtag  DW_TAG_TI_branch
	.dwattr $C$DW$107, DW_AT_low_pc(0x00)
	.dwattr $C$DW$107, DW_AT_name("__mspabi_srli")
	.dwattr $C$DW$107, DW_AT_TI_call

        CALLA     #__mspabi_srli        ; [] |515| 
                                          ; [] |515| 
        MOVX.A    &CH_ActiveChannel+0,r13 ; [] |515| 
        MOV.W     r12,14(r13)           ; [] |515| 
        MOV.W     8(r14),r13            ; [] |515| 
        MOVX.W    &SINE_cosDAC+6,r12    ; [] |515| 
$C$DW$108	.dwtag  DW_TAG_TI_branch
	.dwattr $C$DW$108, DW_AT_low_pc(0x00)
	.dwattr $C$DW$108, DW_AT_name("__mspabi_srli")
	.dwattr $C$DW$108, DW_AT_TI_call

        CALLA     #__mspabi_srli        ; [] |515| 
                                          ; [] |515| 
        MOVX.A    &CH_ActiveChannel+0,r13 ; [] |515| 
        MOV.W     r12,16(r13)           ; [] |515| 
        MOV.W     8(r14),r13            ; [] |515| 
        MOVX.W    &SINE_cosDAC+8,r12    ; [] |515| 
$C$DW$109	.dwtag  DW_TAG_TI_branch
	.dwattr $C$DW$109, DW_AT_low_pc(0x00)
	.dwattr $C$DW$109, DW_AT_name("__mspabi_srli")
	.dwattr $C$DW$109, DW_AT_TI_call

        CALLA     #__mspabi_srli        ; [] |515| 
                                          ; [] |515| 
        MOVX.A    &CH_ActiveChannel+0,r13 ; [] |515| 
        MOV.W     r12,18(r13)           ; [] |515| 
        MOV.W     8(r14),r13            ; [] |515| 
        MOVX.W    &SINE_cosDAC+10,r12   ; [] |515| 
$C$DW$110	.dwtag  DW_TAG_TI_branch
	.dwattr $C$DW$110, DW_AT_low_pc(0x00)
	.dwattr $C$DW$110, DW_AT_name("__mspabi_srli")
	.dwattr $C$DW$110, DW_AT_TI_call

        CALLA     #__mspabi_srli        ; [] |515| 
                                          ; [] |515| 
        MOVX.A    &CH_ActiveChannel+0,r13 ; [] |515| 
        MOV.W     r12,20(r13)           ; [] |515| 
        MOV.W     8(r14),r13            ; [] |515| 
;* --------------------------------------------------------------------------*
        MOVX.W    &SINE_cosDAC+12,r12   ; [] |515| 
$C$DW$111	.dwtag  DW_TAG_TI_branch
	.dwattr $C$DW$111, DW_AT_low_pc(0x00)
	.dwattr $C$DW$111, DW_AT_name("__mspabi_srli")
	.dwattr $C$DW$111, DW_AT_TI_call

        CALLA     #__mspabi_srli        ; [] |515| 
                                          ; [] |515| 
        MOVX.A    &CH_ActiveChannel+0,r13 ; [] |515| 
        MOV.W     r12,22(r13)           ; [] |515| 
        MOV.W     8(r14),r13            ; [] |515| 
        MOVX.W    &SINE_cosDAC+14,r12   ; [] |515| 
$C$DW$112	.dwtag  DW_TAG_TI_branch
	.dwattr $C$DW$112, DW_AT_low_pc(0x00)
	.dwattr $C$DW$112, DW_AT_name("__mspabi_srli")
	.dwattr $C$DW$112, DW_AT_TI_call

        CALLA     #__mspabi_srli        ; [] |515| 
                                          ; [] |515| 
        MOVX.A    &CH_ActiveChannel+0,r13 ; [] |515| 
        MOV.W     r12,24(r13)           ; [] |515| 
        MOV.W     8(r14),r13            ; [] |515| 
        MOVX.W    &SINE_cosDAC+16,r12   ; [] |515| 
$C$DW$113	.dwtag  DW_TAG_TI_branch
	.dwattr $C$DW$113, DW_AT_low_pc(0x00)
	.dwattr $C$DW$113, DW_AT_name("__mspabi_srli")
	.dwattr $C$DW$113, DW_AT_TI_call

        CALLA     #__mspabi_srli        ; [] |515| 
                                          ; [] |515| 
        MOVX.A    &CH_ActiveChannel+0,r13 ; [] |515| 
        MOV.W     r12,26(r13)           ; [] |515| 
        MOV.W     8(r14),r13            ; [] |515| 
        MOVX.W    &SINE_cosDAC+18,r12   ; [] |515| 
$C$DW$114	.dwtag  DW_TAG_TI_branch
	.dwattr $C$DW$114, DW_AT_low_pc(0x00)
	.dwattr $C$DW$114, DW_AT_name("__mspabi_srli")
	.dwattr $C$DW$114, DW_AT_TI_call

        CALLA     #__mspabi_srli        ; [] |515| 
                                          ; [] |515| 
        MOVX.A    &CH_ActiveChannel+0,r13 ; [] |515| 
        MOV.W     r12,28(r13)           ; [] |515| 
        MOV.W     8(r14),r13            ; [] |515| 
        MOVX.W    &SINE_cosDAC+20,r12   ; [] |515| 
$C$DW$115	.dwtag  DW_TAG_TI_branch
	.dwattr $C$DW$115, DW_AT_low_pc(0x00)
	.dwattr $C$DW$115, DW_AT_name("__mspabi_srli")
	.dwattr $C$DW$115, DW_AT_TI_call

        CALLA     #__mspabi_srli        ; [] |515| 
                                          ; [] |515| 
        MOVX.A    &CH_ActiveChannel+0,r13 ; [] |515| 
        MOV.W     r12,30(r13)           ; [] |515| 
        MOV.W     8(r14),r13            ; [] |515| 
        MOVX.W    &SINE_cosDAC+22,r12   ; [] |515| 
$C$DW$116	.dwtag  DW_TAG_TI_branch
	.dwattr $C$DW$116, DW_AT_low_pc(0x00)
	.dwattr $C$DW$116, DW_AT_name("__mspabi_srli")
	.dwattr $C$DW$116, DW_AT_TI_call

        CALLA     #__mspabi_srli        ; [] |515| 
                                          ; [] |515| 
        MOVX.A    &CH_ActiveChannel+0,r13 ; [] |515| 
        MOV.W     r12,32(r13)           ; [] |515| 
        MOV.W     8(r14),r13            ; [] |515| 
        MOVX.W    &SINE_cosDAC+24,r12   ; [] |515| 
$C$DW$117	.dwtag  DW_TAG_TI_branch
	.dwattr $C$DW$117, DW_AT_low_pc(0x00)
	.dwattr $C$DW$117, DW_AT_name("__mspabi_srli")
	.dwattr $C$DW$117, DW_AT_TI_call

        CALLA     #__mspabi_srli        ; [] |515| 
                                          ; [] |515| 
        MOVX.A    &CH_ActiveChannel+0,r13 ; [] |515| 
        MOV.W     r12,34(r13)           ; [] |515| 
        MOV.W     8(r14),r13            ; [] |515| 
        MOVX.W    &SINE_cosDAC+26,r12   ; [] |515| 
$C$DW$118	.dwtag  DW_TAG_TI_branch
	.dwattr $C$DW$118, DW_AT_low_pc(0x00)
	.dwattr $C$DW$118, DW_AT_name("__mspabi_srli")
	.dwattr $C$DW$118, DW_AT_TI_call

        CALLA     #__mspabi_srli        ; [] |515| 
                                          ; [] |515| 
        MOVX.A    &CH_ActiveChannel+0,r13 ; [] |515| 
        MOV.W     r12,36(r13)           ; [] |515| 
        MOV.W     8(r14),r13            ; [] |515| 
        MOVX.W    &SINE_cosDAC+28,r12   ; [] |515| 
$C$DW$119	.dwtag  DW_TAG_TI_branch
	.dwattr $C$DW$119, DW_AT_low_pc(0x00)
	.dwattr $C$DW$119, DW_AT_name("__mspabi_srli")
	.dwattr $C$DW$119, DW_AT_TI_call

        CALLA     #__mspabi_srli        ; [] |515| 
                                          ; [] |515| 
        MOVX.A    &CH_ActiveChannel+0,r13 ; [] |515| 
        MOV.W     r12,38(r13)           ; [] |515| 
        MOV.W     8(r14),r13            ; [] |515| 
;* --------------------------------------------------------------------------*
        MOVX.W    &SINE_cosDAC+30,r12   ; [] |515| 
$C$DW$120	.dwtag  DW_TAG_TI_branch
	.dwattr $C$DW$120, DW_AT_low_pc(0x00)
	.dwattr $C$DW$120, DW_AT_name("__mspabi_srli")
	.dwattr $C$DW$120, DW_AT_TI_call

        CALLA     #__mspabi_srli        ; [] |515| 
                                          ; [] |515| 
        MOVX.A    &CH_ActiveChannel+0,r13 ; [] |515| 
        MOV.W     r12,40(r13)           ; [] |515| 
        MOV.W     8(r14),r13            ; [] |515| 
        MOVX.W    &SINE_cosDAC+32,r12   ; [] |515| 
$C$DW$121	.dwtag  DW_TAG_TI_branch
	.dwattr $C$DW$121, DW_AT_low_pc(0x00)
	.dwattr $C$DW$121, DW_AT_name("__mspabi_srli")
	.dwattr $C$DW$121, DW_AT_TI_call

        CALLA     #__mspabi_srli        ; [] |515| 
                                          ; [] |515| 
        MOVX.A    &CH_ActiveChannel+0,r13 ; [] |515| 
        MOV.W     r12,42(r13)           ; [] |515| 
        MOV.W     8(r14),r13            ; [] |515| 
        MOVX.W    &SINE_cosDAC+34,r12   ; [] |515| 
$C$DW$122	.dwtag  DW_TAG_TI_branch
	.dwattr $C$DW$122, DW_AT_low_pc(0x00)
	.dwattr $C$DW$122, DW_AT_name("__mspabi_srli")
	.dwattr $C$DW$122, DW_AT_TI_call

        CALLA     #__mspabi_srli        ; [] |515| 
                                          ; [] |515| 
        MOVX.A    &CH_ActiveChannel+0,r13 ; [] |515| 
        MOV.W     r12,44(r13)           ; [] |515| 
        MOV.W     8(r14),r13            ; [] |515| 
        MOVX.W    &SINE_cosDAC+36,r12   ; [] |515| 
$C$DW$123	.dwtag  DW_TAG_TI_branch
	.dwattr $C$DW$123, DW_AT_low_pc(0x00)
	.dwattr $C$DW$123, DW_AT_name("__mspabi_srli")
	.dwattr $C$DW$123, DW_AT_TI_call

        CALLA     #__mspabi_srli        ; [] |515| 
                                          ; [] |515| 
        MOVX.A    &CH_ActiveChannel+0,r13 ; [] |515| 
        MOV.W     r12,46(r13)           ; [] |515| 
        MOV.W     8(r14),r13            ; [] |515| 
        MOVX.W    &SINE_cosDAC+38,r12   ; [] |515| 
$C$DW$124	.dwtag  DW_TAG_TI_branch
	.dwattr $C$DW$124, DW_AT_low_pc(0x00)
	.dwattr $C$DW$124, DW_AT_name("__mspabi_srli")
	.dwattr $C$DW$124, DW_AT_TI_call

        CALLA     #__mspabi_srli        ; [] |515| 
                                          ; [] |515| 
        MOVX.A    &CH_ActiveChannel+0,r13 ; [] |515| 
        MOV.W     r12,48(r13)           ; [] |515| 
        MOV.W     8(r14),r13            ; [] |515| 
        MOVX.W    &SINE_cosDAC+40,r12   ; [] |515| 
$C$DW$125	.dwtag  DW_TAG_TI_branch
	.dwattr $C$DW$125, DW_AT_low_pc(0x00)
	.dwattr $C$DW$125, DW_AT_name("__mspabi_srli")
	.dwattr $C$DW$125, DW_AT_TI_call

        CALLA     #__mspabi_srli        ; [] |515| 
                                          ; [] |515| 
        MOVX.A    &CH_ActiveChannel+0,r13 ; [] |515| 
        MOV.W     r12,50(r13)           ; [] |515| 
        MOV.W     8(r14),r13            ; [] |515| 
        MOVX.W    &SINE_cosDAC+42,r12   ; [] |515| 
$C$DW$126	.dwtag  DW_TAG_TI_branch
	.dwattr $C$DW$126, DW_AT_low_pc(0x00)
	.dwattr $C$DW$126, DW_AT_name("__mspabi_srli")
	.dwattr $C$DW$126, DW_AT_TI_call

        CALLA     #__mspabi_srli        ; [] |515| 
                                          ; [] |515| 
        MOVX.A    &CH_ActiveChannel+0,r13 ; [] |515| 
        MOV.W     r12,52(r13)           ; [] |515| 
        MOV.W     8(r14),r13            ; [] |515| 
        MOVX.W    &SINE_cosDAC+44,r12   ; [] |515| 
$C$DW$127	.dwtag  DW_TAG_TI_branch
	.dwattr $C$DW$127, DW_AT_low_pc(0x00)
	.dwattr $C$DW$127, DW_AT_name("__mspabi_srli")
	.dwattr $C$DW$127, DW_AT_TI_call

        CALLA     #__mspabi_srli        ; [] |515| 
                                          ; [] |515| 
        MOVX.A    &CH_ActiveChannel+0,r13 ; [] |515| 
        MOV.W     r12,54(r13)           ; [] |515| 
        MOV.W     8(r14),r13            ; [] |515| 
        MOVX.W    &SINE_cosDAC+46,r12   ; [] |515| 
$C$DW$128	.dwtag  DW_TAG_TI_branch
	.dwattr $C$DW$128, DW_AT_low_pc(0x00)
	.dwattr $C$DW$128, DW_AT_name("__mspabi_srli")
	.dwattr $C$DW$128, DW_AT_TI_call

        CALLA     #__mspabi_srli        ; [] |515| 
                                          ; [] |515| 
        MOVX.A    &CH_ActiveChannel+0,r13 ; [] |515| 
        MOV.W     r12,56(r13)           ; [] |515| 
        MOV.W     8(r14),r13            ; [] |515| 
;* --------------------------------------------------------------------------*
        MOVX.W    &SINE_cosDAC+48,r12   ; [] |515| 
$C$DW$129	.dwtag  DW_TAG_TI_branch
	.dwattr $C$DW$129, DW_AT_low_pc(0x00)
	.dwattr $C$DW$129, DW_AT_name("__mspabi_srli")
	.dwattr $C$DW$129, DW_AT_TI_call

        CALLA     #__mspabi_srli        ; [] |515| 
                                          ; [] |515| 
        MOVX.A    &CH_ActiveChannel+0,r13 ; [] |515| 
        MOV.W     r12,58(r13)           ; [] |515| 
        MOV.W     8(r14),r13            ; [] |515| 
        MOVX.W    &SINE_cosDAC+50,r12   ; [] |515| 
$C$DW$130	.dwtag  DW_TAG_TI_branch
	.dwattr $C$DW$130, DW_AT_low_pc(0x00)
	.dwattr $C$DW$130, DW_AT_name("__mspabi_srli")
	.dwattr $C$DW$130, DW_AT_TI_call

        CALLA     #__mspabi_srli        ; [] |515| 
                                          ; [] |515| 
        MOVX.A    &CH_ActiveChannel+0,r13 ; [] |515| 
        MOV.W     r12,60(r13)           ; [] |515| 
        MOV.W     8(r14),r13            ; [] |515| 
        MOVX.W    &SINE_cosDAC+52,r12   ; [] |515| 
$C$DW$131	.dwtag  DW_TAG_TI_branch
	.dwattr $C$DW$131, DW_AT_low_pc(0x00)
	.dwattr $C$DW$131, DW_AT_name("__mspabi_srli")
	.dwattr $C$DW$131, DW_AT_TI_call

        CALLA     #__mspabi_srli        ; [] |515| 
                                          ; [] |515| 
        MOVX.A    &CH_ActiveChannel+0,r13 ; [] |515| 
        MOV.W     r12,62(r13)           ; [] |515| 
        MOV.W     8(r14),r13            ; [] |515| 
        MOVX.W    &SINE_cosDAC+54,r12   ; [] |515| 
$C$DW$132	.dwtag  DW_TAG_TI_branch
	.dwattr $C$DW$132, DW_AT_low_pc(0x00)
	.dwattr $C$DW$132, DW_AT_name("__mspabi_srli")
	.dwattr $C$DW$132, DW_AT_TI_call

        CALLA     #__mspabi_srli        ; [] |515| 
                                          ; [] |515| 
        MOVX.A    &CH_ActiveChannel+0,r13 ; [] |515| 
        MOV.W     r12,64(r13)           ; [] |515| 
        MOV.W     8(r14),r13            ; [] |515| 
        MOVX.W    &SINE_cosDAC+56,r12   ; [] |515| 
$C$DW$133	.dwtag  DW_TAG_TI_branch
	.dwattr $C$DW$133, DW_AT_low_pc(0x00)
	.dwattr $C$DW$133, DW_AT_name("__mspabi_srli")
	.dwattr $C$DW$133, DW_AT_TI_call

        CALLA     #__mspabi_srli        ; [] |515| 
                                          ; [] |515| 
        MOVX.A    &CH_ActiveChannel+0,r13 ; [] |515| 
        MOV.W     r12,66(r13)           ; [] |515| 
        MOV.W     8(r14),r13            ; [] |515| 
        MOVX.W    &SINE_cosDAC+58,r12   ; [] |515| 
$C$DW$134	.dwtag  DW_TAG_TI_branch
	.dwattr $C$DW$134, DW_AT_low_pc(0x00)
	.dwattr $C$DW$134, DW_AT_name("__mspabi_srli")
	.dwattr $C$DW$134, DW_AT_TI_call

        CALLA     #__mspabi_srli        ; [] |515| 
                                          ; [] |515| 
        MOVX.A    &CH_ActiveChannel+0,r13 ; [] |515| 
        MOV.W     r12,68(r13)           ; [] |515| 
        MOV.W     8(r14),r13            ; [] |515| 
        MOVX.W    &SINE_cosDAC+60,r12   ; [] |515| 
$C$DW$135	.dwtag  DW_TAG_TI_branch
	.dwattr $C$DW$135, DW_AT_low_pc(0x00)
	.dwattr $C$DW$135, DW_AT_name("__mspabi_srli")
	.dwattr $C$DW$135, DW_AT_TI_call

        CALLA     #__mspabi_srli        ; [] |515| 
                                          ; [] |515| 
        MOVX.A    &CH_ActiveChannel+0,r13 ; [] |515| 
        MOV.W     r12,70(r13)           ; [] |515| 
        MOV.W     8(r14),r13            ; [] |515| 
        MOVX.W    &SINE_cosDAC+62,r12   ; [] |515| 
$C$DW$136	.dwtag  DW_TAG_TI_branch
	.dwattr $C$DW$136, DW_AT_low_pc(0x00)
	.dwattr $C$DW$136, DW_AT_name("__mspabi_srli")
	.dwattr $C$DW$136, DW_AT_TI_call

        CALLA     #__mspabi_srli        ; [] |515| 
                                          ; [] |515| 
        MOVX.A    &CH_ActiveChannel+0,r14 ; [] |515| 
        MOV.W     r12,72(r14)           ; [] |515| 
	.dwpsn	file "../main.c",line 517,column 13,is_stmt,isa 0
        MOVX.A    r15,&MAIN_DACBuffer+0 ; [] |517| 
	.dwpsn	file "../main.c",line 520,column 13,is_stmt,isa 0
        MOV.W     #0,&MAIN_SequenceNumber+0 ; [] |520| 
	.dwpsn	file "../main.c",line 521,column 13,is_stmt,isa 0
        MOV.W     #0,&MAIN_IndexNumber+0 ; [] |521| 
	.dwpsn	file "../main.c",line 524,column 13,is_stmt,isa 0
$C$DW$137	.dwtag  DW_TAG_TI_branch
	.dwattr $C$DW$137, DW_AT_low_pc(0x00)
	.dwattr $C$DW$137, DW_AT_name("DMA_RenewDACBuffer")
	.dwattr $C$DW$137, DW_AT_TI_call

        CALLA     #DMA_RenewDACBuffer   ; [] |524| 
                                          ; [] |524| 
	.dwpsn	file "C:/Users/kyle_/Documents/CodeComposerStudio/PIXIE_MSP430/inc/gpio.h",line 86,column 5,is_stmt,isa 0
        AND.B     #191,&PCOUT_H+0       ; [] |86| 
	.dwpsn	file "C:/Users/kyle_/Documents/CodeComposerStudio/PIXIE_MSP430/inc/gpio.h",line 87,column 5,is_stmt,isa 0
        AND.B     #127,&PEOUT_L+0       ; [] |87| 
	.dwpsn	file "C:/Users/kyle_/Documents/CodeComposerStudio/PIXIE_MSP430/inc/gpio.h",line 88,column 5,is_stmt,isa 0
        AND.B     #127,&PBOUT_L+0       ; [] |88| 
	.dwpsn	file "C:/Users/kyle_/Documents/CodeComposerStudio/PIXIE_MSP430/inc/gpio.h",line 89,column 5,is_stmt,isa 0
        BIC.B     #8,&PCOUT_L+0         ; [] |89| 
	.dwpsn	file "C:/Users/kyle_/Documents/CodeComposerStudio/PIXIE_MSP430/inc/gpio.h",line 114,column 5,is_stmt,isa 0
        MOVX.A    &CH_ActiveChannel+0,r14 ; [] |114| 
        MOV.W     @r14,r12              ; [] |114| 
        MOVA      r12,r15               ; [] |114| 
        SUB.W     #1,r15                ; [] |114| 
        JEQ       $C$L4                 ; [] |114| 
                                          ; [] |114| 
;* --------------------------------------------------------------------------*
        SUB.W     #1,r15                ; [] |114| 
        JEQ       $C$L3                 ; [] |114| 
                                          ; [] |114| 
;* --------------------------------------------------------------------------*
        SUB.W     #1,r15                ; [] |114| 
        JEQ       $C$L2                 ; [] |114| 
                                          ; [] |114| 
;* --------------------------------------------------------------------------*
        SUB.W     #1,r15                ; [] |114| 
        JNE       $C$L5                 ; [] |114| 
                                          ; [] |114| 
;* --------------------------------------------------------------------------*
	.dwpsn	file "C:/Users/kyle_/Documents/CodeComposerStudio/PIXIE_MSP430/inc/gpio.h",line 126,column 9,is_stmt,isa 0
        OR.B      #8,&PCOUT_L+0         ; [] |126| 
	.dwpsn	file "C:/Users/kyle_/Documents/CodeComposerStudio/PIXIE_MSP430/inc/gpio.h",line 127,column 9,is_stmt,isa 0
        JMP       $C$L5                 ; [] |127| 
                                          ; [] |127| 
;* --------------------------------------------------------------------------*
	.align	4
$C$L2:    
	.dwpsn	file "C:/Users/kyle_/Documents/CodeComposerStudio/PIXIE_MSP430/inc/gpio.h",line 123,column 9,is_stmt,isa 0
        OR.B      #128,&PBOUT_L+0       ; [] |123| 
	.dwpsn	file "C:/Users/kyle_/Documents/CodeComposerStudio/PIXIE_MSP430/inc/gpio.h",line 124,column 9,is_stmt,isa 0
        JMP       $C$L5                 ; [] |124| 
                                          ; [] |124| 
;* --------------------------------------------------------------------------*
	.align	4
$C$L3:    
	.dwpsn	file "C:/Users/kyle_/Documents/CodeComposerStudio/PIXIE_MSP430/inc/gpio.h",line 120,column 9,is_stmt,isa 0
        OR.B      #128,&PEOUT_L+0       ; [] |120| 
	.dwpsn	file "C:/Users/kyle_/Documents/CodeComposerStudio/PIXIE_MSP430/inc/gpio.h",line 121,column 9,is_stmt,isa 0
        JMP       $C$L5                 ; [] |121| 
                                          ; [] |121| 
;* --------------------------------------------------------------------------*
	.align	4
$C$L4:    
	.dwpsn	file "C:/Users/kyle_/Documents/CodeComposerStudio/PIXIE_MSP430/inc/gpio.h",line 117,column 9,is_stmt,isa 0
        OR.B      #64,&PCOUT_H+0        ; [] |117| 
;* --------------------------------------------------------------------------*
$C$L5:    
	.dwpsn	file "C:/Users/kyle_/Documents/CodeComposerStudio/PIXIE_MSP430/inc/gpio.h",line 138,column 1,is_stmt,isa 0
        MOV.W     4(r14),r15            ; [] |138| 
	.dwpsn	file "C:/Users/kyle_/Documents/CodeComposerStudio/PIXIE_MSP430/inc/gpio.h",line 139,column 5,is_stmt,isa 0
        CMP.W     #1,r12                ; [] |139| 
        JEQ       $C$L29                ; [] |139| 
                                          ; [] |139| 
;* --------------------------------------------------------------------------*
	.dwpsn	file "C:/Users/kyle_/Documents/CodeComposerStudio/PIXIE_MSP430/inc/gpio.h",line 174,column 10,is_stmt,isa 0
        CMP.W     #2,r12                ; [] |174| 
        JEQ       $C$L21                ; [] |174| 
                                          ; [] |174| 
;* --------------------------------------------------------------------------*
	.dwpsn	file "C:/Users/kyle_/Documents/CodeComposerStudio/PIXIE_MSP430/inc/gpio.h",line 209,column 10,is_stmt,isa 0
        CMP.W     #3,r12                ; [] |209| 
        JEQ       $C$L13                ; [] |209| 
                                          ; [] |209| 
;* --------------------------------------------------------------------------*
	.dwpsn	file "C:/Users/kyle_/Documents/CodeComposerStudio/PIXIE_MSP430/inc/gpio.h",line 244,column 10,is_stmt,isa 0
        CMP.W     #4,r12                ; [] |244| 
        JNE       $C$L37                ; [] |244| 
                                          ; [] |244| 
;* --------------------------------------------------------------------------*
	.dwpsn	file "C:/Users/kyle_/Documents/CodeComposerStudio/PIXIE_MSP430/inc/gpio.h",line 247,column 9,is_stmt,isa 0
        AND.B     #143,&PAOUT_L+0       ; [] |247| 
	.dwpsn	file "C:/Users/kyle_/Documents/CodeComposerStudio/PIXIE_MSP430/inc/gpio.h",line 248,column 9,is_stmt,isa 0
        AND.B     #241,&PAOUT_L+0       ; [] |248| 
	.dwpsn	file "C:/Users/kyle_/Documents/CodeComposerStudio/PIXIE_MSP430/inc/gpio.h",line 249,column 9,is_stmt,isa 0
        AND.B     #199,&PBOUT_L+0       ; [] |249| 
	.dwpsn	file "C:/Users/kyle_/Documents/CodeComposerStudio/PIXIE_MSP430/inc/gpio.h",line 250,column 9,is_stmt,isa 0
        TST.W     r15                   ; [] |250| 
        JEQ       $C$L12                ; [] |250| 
                                          ; [] |250| 
;* --------------------------------------------------------------------------*
        SUB.W     #1,r15                ; [] |250| 
        JEQ       $C$L11                ; [] |250| 
                                          ; [] |250| 
;* --------------------------------------------------------------------------*
        SUB.W     #1,r15                ; [] |250| 
        JEQ       $C$L10                ; [] |250| 
                                          ; [] |250| 
;* --------------------------------------------------------------------------*
        SUB.W     #3,r15                ; [] |250| 
        JEQ       $C$L9                 ; [] |250| 
                                          ; [] |250| 
;* --------------------------------------------------------------------------*
        SUB.W     #5,r15                ; [] |250| 
        JEQ       $C$L8                 ; [] |250| 
                                          ; [] |250| 
;* --------------------------------------------------------------------------*
        SUB.W     #10,r15               ; [] |250| 
        JEQ       $C$L7                 ; [] |250| 
                                          ; [] |250| 
;* --------------------------------------------------------------------------*
        SUB.W     #30,r15               ; [] |250| 
        JEQ       $C$L6                 ; [] |250| 
                                          ; [] |250| 
;* --------------------------------------------------------------------------*
	.dwpsn	file "C:/Users/kyle_/Documents/CodeComposerStudio/PIXIE_MSP430/inc/gpio.h",line 275,column 13,is_stmt,isa 0
        OR.B      #7,&PBOUT_L+0         ; [] |275| 
	.dwpsn	file "C:/Users/kyle_/Documents/CodeComposerStudio/PIXIE_MSP430/inc/gpio.h",line 276,column 13,is_stmt,isa 0
        JMP       $C$L37                ; [] |276| 
                                          ; [] |276| 
;* --------------------------------------------------------------------------*
	.align	4
$C$L6:    
	.dwpsn	file "C:/Users/kyle_/Documents/CodeComposerStudio/PIXIE_MSP430/inc/gpio.h",line 271,column 13,is_stmt,isa 0
        MOV.B     &PBOUT_L+0,r15        ; [] |271| 
        BIC.B     #1,r15                ; [] |271| 
        OR.B      #6,r15                ; [] |271| 
        MOV.B     r15,&PBOUT_L+0        ; [] |271| 
	.dwpsn	file "C:/Users/kyle_/Documents/CodeComposerStudio/PIXIE_MSP430/inc/gpio.h",line 272,column 13,is_stmt,isa 0
        JMP       $C$L37                ; [] |272| 
                                          ; [] |272| 
;* --------------------------------------------------------------------------*
	.align	4
$C$L7:    
	.dwpsn	file "C:/Users/kyle_/Documents/CodeComposerStudio/PIXIE_MSP430/inc/gpio.h",line 268,column 13,is_stmt,isa 0
        MOV.W     #252,r15              ; [] |268| 
        AND.B     &PBOUT_L+0,r15        ; [] |268| 
        OR.B      #5,r15                ; [] |268| 
        MOV.B     r15,&PBOUT_L+0        ; [] |268| 
	.dwpsn	file "C:/Users/kyle_/Documents/CodeComposerStudio/PIXIE_MSP430/inc/gpio.h",line 269,column 13,is_stmt,isa 0
        JMP       $C$L37                ; [] |269| 
                                          ; [] |269| 
;* --------------------------------------------------------------------------*
	.align	4
$C$L8:    
	.dwpsn	file "C:/Users/kyle_/Documents/CodeComposerStudio/PIXIE_MSP430/inc/gpio.h",line 265,column 13,is_stmt,isa 0
        MOV.W     #252,r15              ; [] |265| 
        AND.B     &PBOUT_L+0,r15        ; [] |265| 
        OR.B      #4,r15                ; [] |265| 
        MOV.B     r15,&PBOUT_L+0        ; [] |265| 
	.dwpsn	file "C:/Users/kyle_/Documents/CodeComposerStudio/PIXIE_MSP430/inc/gpio.h",line 266,column 13,is_stmt,isa 0
        JMP       $C$L37                ; [] |266| 
                                          ; [] |266| 
;* --------------------------------------------------------------------------*
	.align	4
$C$L9:    
	.dwpsn	file "C:/Users/kyle_/Documents/CodeComposerStudio/PIXIE_MSP430/inc/gpio.h",line 262,column 13,is_stmt,isa 0
        MOV.W     #248,r15              ; [] |262| 
        AND.B     &PBOUT_L+0,r15        ; [] |262| 
        OR.B      #3,r15                ; [] |262| 
        MOV.B     r15,&PBOUT_L+0        ; [] |262| 
	.dwpsn	file "C:/Users/kyle_/Documents/CodeComposerStudio/PIXIE_MSP430/inc/gpio.h",line 263,column 13,is_stmt,isa 0
        JMP       $C$L37                ; [] |263| 
                                          ; [] |263| 
;* --------------------------------------------------------------------------*
	.align	4
$C$L10:    
	.dwpsn	file "C:/Users/kyle_/Documents/CodeComposerStudio/PIXIE_MSP430/inc/gpio.h",line 259,column 13,is_stmt,isa 0
        MOV.W     #248,r15              ; [] |259| 
        AND.B     &PBOUT_L+0,r15        ; [] |259| 
        OR.B      #2,r15                ; [] |259| 
        MOV.B     r15,&PBOUT_L+0        ; [] |259| 
	.dwpsn	file "C:/Users/kyle_/Documents/CodeComposerStudio/PIXIE_MSP430/inc/gpio.h",line 260,column 13,is_stmt,isa 0
        JMP       $C$L37                ; [] |260| 
                                          ; [] |260| 
;* --------------------------------------------------------------------------*
	.align	4
$C$L11:    
	.dwpsn	file "C:/Users/kyle_/Documents/CodeComposerStudio/PIXIE_MSP430/inc/gpio.h",line 256,column 13,is_stmt,isa 0
        MOV.W     #248,r15              ; [] |256| 
        AND.B     &PBOUT_L+0,r15        ; [] |256| 
        OR.B      #1,r15                ; [] |256| 
        MOV.B     r15,&PBOUT_L+0        ; [] |256| 
	.dwpsn	file "C:/Users/kyle_/Documents/CodeComposerStudio/PIXIE_MSP430/inc/gpio.h",line 257,column 13,is_stmt,isa 0
        JMP       $C$L37                ; [] |257| 
                                          ; [] |257| 
;* --------------------------------------------------------------------------*
	.align	4
$C$L12:    
	.dwpsn	file "C:/Users/kyle_/Documents/CodeComposerStudio/PIXIE_MSP430/inc/gpio.h",line 253,column 13,is_stmt,isa 0
        AND.B     #248,&PBOUT_L+0       ; [] |253| 
	.dwpsn	file "C:/Users/kyle_/Documents/CodeComposerStudio/PIXIE_MSP430/inc/gpio.h",line 254,column 13,is_stmt,isa 0
        JMP       $C$L37                ; [] |254| 
                                          ; [] |254| 
;* --------------------------------------------------------------------------*
	.align	4
$C$L13:    
	.dwpsn	file "C:/Users/kyle_/Documents/CodeComposerStudio/PIXIE_MSP430/inc/gpio.h",line 212,column 9,is_stmt,isa 0
        AND.B     #143,&PAOUT_L+0       ; [] |212| 
	.dwpsn	file "C:/Users/kyle_/Documents/CodeComposerStudio/PIXIE_MSP430/inc/gpio.h",line 213,column 9,is_stmt,isa 0
        AND.B     #241,&PAOUT_L+0       ; [] |213| 
	.dwpsn	file "C:/Users/kyle_/Documents/CodeComposerStudio/PIXIE_MSP430/inc/gpio.h",line 214,column 9,is_stmt,isa 0
        AND.B     #248,&PBOUT_L+0       ; [] |214| 
	.dwpsn	file "C:/Users/kyle_/Documents/CodeComposerStudio/PIXIE_MSP430/inc/gpio.h",line 215,column 9,is_stmt,isa 0
        TST.W     r15                   ; [] |215| 
        JEQ       $C$L20                ; [] |215| 
                                          ; [] |215| 
;* --------------------------------------------------------------------------*
        SUB.W     #1,r15                ; [] |215| 
        JEQ       $C$L19                ; [] |215| 
                                          ; [] |215| 
;* --------------------------------------------------------------------------*
        SUB.W     #1,r15                ; [] |215| 
        JEQ       $C$L18                ; [] |215| 
                                          ; [] |215| 
;* --------------------------------------------------------------------------*
        SUB.W     #3,r15                ; [] |215| 
        JEQ       $C$L17                ; [] |215| 
                                          ; [] |215| 
;* --------------------------------------------------------------------------*
        SUB.W     #5,r15                ; [] |215| 
        JEQ       $C$L16                ; [] |215| 
                                          ; [] |215| 
;* --------------------------------------------------------------------------*
        SUB.W     #10,r15               ; [] |215| 
        JEQ       $C$L15                ; [] |215| 
                                          ; [] |215| 
;* --------------------------------------------------------------------------*
        SUB.W     #30,r15               ; [] |215| 
        JEQ       $C$L14                ; [] |215| 
                                          ; [] |215| 
;* --------------------------------------------------------------------------*
	.dwpsn	file "C:/Users/kyle_/Documents/CodeComposerStudio/PIXIE_MSP430/inc/gpio.h",line 240,column 13,is_stmt,isa 0
        OR.B      #56,&PBOUT_L+0        ; [] |240| 
	.dwpsn	file "C:/Users/kyle_/Documents/CodeComposerStudio/PIXIE_MSP430/inc/gpio.h",line 241,column 13,is_stmt,isa 0
        JMP       $C$L37                ; [] |241| 
                                          ; [] |241| 
;* --------------------------------------------------------------------------*
	.align	4
$C$L14:    
	.dwpsn	file "C:/Users/kyle_/Documents/CodeComposerStudio/PIXIE_MSP430/inc/gpio.h",line 236,column 13,is_stmt,isa 0
        MOV.B     &PBOUT_L+0,r15        ; [] |236| 
        BIC.B     #8,r15                ; [] |236| 
        OR.B      #48,r15               ; [] |236| 
        MOV.B     r15,&PBOUT_L+0        ; [] |236| 
	.dwpsn	file "C:/Users/kyle_/Documents/CodeComposerStudio/PIXIE_MSP430/inc/gpio.h",line 237,column 13,is_stmt,isa 0
        JMP       $C$L37                ; [] |237| 
                                          ; [] |237| 
;* --------------------------------------------------------------------------*
	.align	4
$C$L15:    
	.dwpsn	file "C:/Users/kyle_/Documents/CodeComposerStudio/PIXIE_MSP430/inc/gpio.h",line 233,column 13,is_stmt,isa 0
        MOV.W     #239,r15              ; [] |233| 
        AND.B     &PBOUT_L+0,r15        ; [] |233| 
        OR.B      #40,r15               ; [] |233| 
        MOV.B     r15,&PBOUT_L+0        ; [] |233| 
	.dwpsn	file "C:/Users/kyle_/Documents/CodeComposerStudio/PIXIE_MSP430/inc/gpio.h",line 234,column 13,is_stmt,isa 0
        JMP       $C$L37                ; [] |234| 
                                          ; [] |234| 
;* --------------------------------------------------------------------------*
	.align	4
$C$L16:    
	.dwpsn	file "C:/Users/kyle_/Documents/CodeComposerStudio/PIXIE_MSP430/inc/gpio.h",line 230,column 13,is_stmt,isa 0
        MOV.W     #231,r15              ; [] |230| 
        AND.B     &PBOUT_L+0,r15        ; [] |230| 
        OR.B      #32,r15               ; [] |230| 
        MOV.B     r15,&PBOUT_L+0        ; [] |230| 
	.dwpsn	file "C:/Users/kyle_/Documents/CodeComposerStudio/PIXIE_MSP430/inc/gpio.h",line 231,column 13,is_stmt,isa 0
        JMP       $C$L37                ; [] |231| 
                                          ; [] |231| 
;* --------------------------------------------------------------------------*
	.align	4
$C$L17:    
	.dwpsn	file "C:/Users/kyle_/Documents/CodeComposerStudio/PIXIE_MSP430/inc/gpio.h",line 227,column 13,is_stmt,isa 0
        MOV.W     #223,r15              ; [] |227| 
        AND.B     &PBOUT_L+0,r15        ; [] |227| 
        OR.B      #24,r15               ; [] |227| 
        MOV.B     r15,&PBOUT_L+0        ; [] |227| 
	.dwpsn	file "C:/Users/kyle_/Documents/CodeComposerStudio/PIXIE_MSP430/inc/gpio.h",line 228,column 13,is_stmt,isa 0
        JMP       $C$L37                ; [] |228| 
                                          ; [] |228| 
;* --------------------------------------------------------------------------*
	.align	4
$C$L18:    
	.dwpsn	file "C:/Users/kyle_/Documents/CodeComposerStudio/PIXIE_MSP430/inc/gpio.h",line 224,column 13,is_stmt,isa 0
        MOV.W     #199,r15              ; [] |224| 
        AND.B     &PBOUT_L+0,r15        ; [] |224| 
        OR.B      #16,r15               ; [] |224| 
        MOV.B     r15,&PBOUT_L+0        ; [] |224| 
	.dwpsn	file "C:/Users/kyle_/Documents/CodeComposerStudio/PIXIE_MSP430/inc/gpio.h",line 225,column 13,is_stmt,isa 0
        JMP       $C$L37                ; [] |225| 
                                          ; [] |225| 
;* --------------------------------------------------------------------------*
	.align	4
$C$L19:    
	.dwpsn	file "C:/Users/kyle_/Documents/CodeComposerStudio/PIXIE_MSP430/inc/gpio.h",line 221,column 13,is_stmt,isa 0
        MOV.W     #207,r15              ; [] |221| 
        AND.B     &PBOUT_L+0,r15        ; [] |221| 
        OR.B      #8,r15                ; [] |221| 
        MOV.B     r15,&PBOUT_L+0        ; [] |221| 
	.dwpsn	file "C:/Users/kyle_/Documents/CodeComposerStudio/PIXIE_MSP430/inc/gpio.h",line 222,column 13,is_stmt,isa 0
        JMP       $C$L37                ; [] |222| 
                                          ; [] |222| 
;* --------------------------------------------------------------------------*
	.align	4
$C$L20:    
	.dwpsn	file "C:/Users/kyle_/Documents/CodeComposerStudio/PIXIE_MSP430/inc/gpio.h",line 218,column 13,is_stmt,isa 0
        AND.B     #199,&PBOUT_L+0       ; [] |218| 
	.dwpsn	file "C:/Users/kyle_/Documents/CodeComposerStudio/PIXIE_MSP430/inc/gpio.h",line 219,column 13,is_stmt,isa 0
        JMP       $C$L37                ; [] |219| 
                                          ; [] |219| 
;* --------------------------------------------------------------------------*
	.align	4
$C$L21:    
	.dwpsn	file "C:/Users/kyle_/Documents/CodeComposerStudio/PIXIE_MSP430/inc/gpio.h",line 177,column 9,is_stmt,isa 0
        AND.B     #143,&PAOUT_L+0       ; [] |177| 
	.dwpsn	file "C:/Users/kyle_/Documents/CodeComposerStudio/PIXIE_MSP430/inc/gpio.h",line 178,column 9,is_stmt,isa 0
        AND.B     #199,&PBOUT_L+0       ; [] |178| 
	.dwpsn	file "C:/Users/kyle_/Documents/CodeComposerStudio/PIXIE_MSP430/inc/gpio.h",line 179,column 9,is_stmt,isa 0
        AND.B     #248,&PBOUT_L+0       ; [] |179| 
	.dwpsn	file "C:/Users/kyle_/Documents/CodeComposerStudio/PIXIE_MSP430/inc/gpio.h",line 180,column 9,is_stmt,isa 0
        TST.W     r15                   ; [] |180| 
        JEQ       $C$L28                ; [] |180| 
                                          ; [] |180| 
;* --------------------------------------------------------------------------*
        SUB.W     #1,r15                ; [] |180| 
        JEQ       $C$L27                ; [] |180| 
                                          ; [] |180| 
;* --------------------------------------------------------------------------*
        SUB.W     #1,r15                ; [] |180| 
        JEQ       $C$L26                ; [] |180| 
                                          ; [] |180| 
;* --------------------------------------------------------------------------*
        SUB.W     #3,r15                ; [] |180| 
        JEQ       $C$L25                ; [] |180| 
                                          ; [] |180| 
;* --------------------------------------------------------------------------*
        SUB.W     #5,r15                ; [] |180| 
        JEQ       $C$L24                ; [] |180| 
                                          ; [] |180| 
;* --------------------------------------------------------------------------*
        SUB.W     #10,r15               ; [] |180| 
        JEQ       $C$L23                ; [] |180| 
                                          ; [] |180| 
;* --------------------------------------------------------------------------*
        SUB.W     #30,r15               ; [] |180| 
        JEQ       $C$L22                ; [] |180| 
                                          ; [] |180| 
;* --------------------------------------------------------------------------*
	.dwpsn	file "C:/Users/kyle_/Documents/CodeComposerStudio/PIXIE_MSP430/inc/gpio.h",line 205,column 13,is_stmt,isa 0
        OR.B      #14,&PAOUT_L+0        ; [] |205| 
	.dwpsn	file "C:/Users/kyle_/Documents/CodeComposerStudio/PIXIE_MSP430/inc/gpio.h",line 206,column 13,is_stmt,isa 0
        JMP       $C$L37                ; [] |206| 
                                          ; [] |206| 
;* --------------------------------------------------------------------------*
	.align	4
$C$L22:    
	.dwpsn	file "C:/Users/kyle_/Documents/CodeComposerStudio/PIXIE_MSP430/inc/gpio.h",line 201,column 13,is_stmt,isa 0
        MOV.B     &PAOUT_L+0,r15        ; [] |201| 
        BIC.B     #2,r15                ; [] |201| 
        OR.B      #12,r15               ; [] |201| 
        MOV.B     r15,&PAOUT_L+0        ; [] |201| 
	.dwpsn	file "C:/Users/kyle_/Documents/CodeComposerStudio/PIXIE_MSP430/inc/gpio.h",line 202,column 13,is_stmt,isa 0
        JMP       $C$L37                ; [] |202| 
                                          ; [] |202| 
;* --------------------------------------------------------------------------*
	.align	4
$C$L23:    
	.dwpsn	file "C:/Users/kyle_/Documents/CodeComposerStudio/PIXIE_MSP430/inc/gpio.h",line 198,column 13,is_stmt,isa 0
        MOV.B     &PAOUT_L+0,r15        ; [] |198| 
        BIC.B     #4,r15                ; [] |198| 
        OR.B      #10,r15               ; [] |198| 
        MOV.B     r15,&PAOUT_L+0        ; [] |198| 
	.dwpsn	file "C:/Users/kyle_/Documents/CodeComposerStudio/PIXIE_MSP430/inc/gpio.h",line 199,column 13,is_stmt,isa 0
        JMP       $C$L37                ; [] |199| 
                                          ; [] |199| 
;* --------------------------------------------------------------------------*
	.align	4
$C$L24:    
	.dwpsn	file "C:/Users/kyle_/Documents/CodeComposerStudio/PIXIE_MSP430/inc/gpio.h",line 195,column 13,is_stmt,isa 0
        MOV.W     #249,r15              ; [] |195| 
        AND.B     &PAOUT_L+0,r15        ; [] |195| 
        OR.B      #8,r15                ; [] |195| 
        MOV.B     r15,&PAOUT_L+0        ; [] |195| 
	.dwpsn	file "C:/Users/kyle_/Documents/CodeComposerStudio/PIXIE_MSP430/inc/gpio.h",line 196,column 13,is_stmt,isa 0
        JMP       $C$L37                ; [] |196| 
                                          ; [] |196| 
;* --------------------------------------------------------------------------*
	.align	4
$C$L25:    
	.dwpsn	file "C:/Users/kyle_/Documents/CodeComposerStudio/PIXIE_MSP430/inc/gpio.h",line 192,column 13,is_stmt,isa 0
        MOV.B     &PAOUT_L+0,r15        ; [] |192| 
        BIC.B     #8,r15                ; [] |192| 
        OR.B      #6,r15                ; [] |192| 
        MOV.B     r15,&PAOUT_L+0        ; [] |192| 
	.dwpsn	file "C:/Users/kyle_/Documents/CodeComposerStudio/PIXIE_MSP430/inc/gpio.h",line 193,column 13,is_stmt,isa 0
        JMP       $C$L37                ; [] |193| 
                                          ; [] |193| 
;* --------------------------------------------------------------------------*
	.align	4
$C$L26:    
	.dwpsn	file "C:/Users/kyle_/Documents/CodeComposerStudio/PIXIE_MSP430/inc/gpio.h",line 189,column 13,is_stmt,isa 0
        MOV.W     #241,r15              ; [] |189| 
        AND.B     &PAOUT_L+0,r15        ; [] |189| 
        OR.B      #4,r15                ; [] |189| 
        MOV.B     r15,&PAOUT_L+0        ; [] |189| 
	.dwpsn	file "C:/Users/kyle_/Documents/CodeComposerStudio/PIXIE_MSP430/inc/gpio.h",line 190,column 13,is_stmt,isa 0
        JMP       $C$L37                ; [] |190| 
                                          ; [] |190| 
;* --------------------------------------------------------------------------*
	.align	4
$C$L27:    
	.dwpsn	file "C:/Users/kyle_/Documents/CodeComposerStudio/PIXIE_MSP430/inc/gpio.h",line 186,column 13,is_stmt,isa 0
        MOV.W     #243,r15              ; [] |186| 
        AND.B     &PAOUT_L+0,r15        ; [] |186| 
        OR.B      #2,r15                ; [] |186| 
        MOV.B     r15,&PAOUT_L+0        ; [] |186| 
	.dwpsn	file "C:/Users/kyle_/Documents/CodeComposerStudio/PIXIE_MSP430/inc/gpio.h",line 187,column 13,is_stmt,isa 0
        JMP       $C$L37                ; [] |187| 
                                          ; [] |187| 
;* --------------------------------------------------------------------------*
	.align	4
$C$L28:    
	.dwpsn	file "C:/Users/kyle_/Documents/CodeComposerStudio/PIXIE_MSP430/inc/gpio.h",line 183,column 13,is_stmt,isa 0
        AND.B     #241,&PAOUT_L+0       ; [] |183| 
	.dwpsn	file "C:/Users/kyle_/Documents/CodeComposerStudio/PIXIE_MSP430/inc/gpio.h",line 184,column 13,is_stmt,isa 0
        JMP       $C$L37                ; [] |184| 
                                          ; [] |184| 
;* --------------------------------------------------------------------------*
	.align	4
$C$L29:    
	.dwpsn	file "C:/Users/kyle_/Documents/CodeComposerStudio/PIXIE_MSP430/inc/gpio.h",line 142,column 9,is_stmt,isa 0
        AND.B     #241,&PAOUT_L+0       ; [] |142| 
	.dwpsn	file "C:/Users/kyle_/Documents/CodeComposerStudio/PIXIE_MSP430/inc/gpio.h",line 143,column 9,is_stmt,isa 0
        AND.B     #199,&PBOUT_L+0       ; [] |143| 
	.dwpsn	file "C:/Users/kyle_/Documents/CodeComposerStudio/PIXIE_MSP430/inc/gpio.h",line 144,column 9,is_stmt,isa 0
        AND.B     #248,&PBOUT_L+0       ; [] |144| 
	.dwpsn	file "C:/Users/kyle_/Documents/CodeComposerStudio/PIXIE_MSP430/inc/gpio.h",line 145,column 9,is_stmt,isa 0
        TST.W     r15                   ; [] |145| 
        JEQ       $C$L36                ; [] |145| 
                                          ; [] |145| 
;* --------------------------------------------------------------------------*
        SUB.W     #1,r15                ; [] |145| 
        JEQ       $C$L35                ; [] |145| 
                                          ; [] |145| 
;* --------------------------------------------------------------------------*
        SUB.W     #1,r15                ; [] |145| 
        JEQ       $C$L34                ; [] |145| 
                                          ; [] |145| 
;* --------------------------------------------------------------------------*
        SUB.W     #3,r15                ; [] |145| 
        JEQ       $C$L33                ; [] |145| 
                                          ; [] |145| 
;* --------------------------------------------------------------------------*
        SUB.W     #5,r15                ; [] |145| 
        JEQ       $C$L32                ; [] |145| 
                                          ; [] |145| 
;* --------------------------------------------------------------------------*
        SUB.W     #10,r15               ; [] |145| 
        JEQ       $C$L31                ; [] |145| 
                                          ; [] |145| 
;* --------------------------------------------------------------------------*
        SUB.W     #30,r15               ; [] |145| 
        JEQ       $C$L30                ; [] |145| 
                                          ; [] |145| 
;* --------------------------------------------------------------------------*
	.dwpsn	file "C:/Users/kyle_/Documents/CodeComposerStudio/PIXIE_MSP430/inc/gpio.h",line 170,column 13,is_stmt,isa 0
        OR.B      #112,&PAOUT_L+0       ; [] |170| 
	.dwpsn	file "C:/Users/kyle_/Documents/CodeComposerStudio/PIXIE_MSP430/inc/gpio.h",line 171,column 13,is_stmt,isa 0
        JMP       $C$L37                ; [] |171| 
                                          ; [] |171| 
;* --------------------------------------------------------------------------*
	.align	4
$C$L30:    
	.dwpsn	file "C:/Users/kyle_/Documents/CodeComposerStudio/PIXIE_MSP430/inc/gpio.h",line 166,column 13,is_stmt,isa 0
        MOV.W     #239,r15              ; [] |166| 
        AND.B     &PAOUT_L+0,r15        ; [] |166| 
        OR.B      #96,r15               ; [] |166| 
        MOV.B     r15,&PAOUT_L+0        ; [] |166| 
	.dwpsn	file "C:/Users/kyle_/Documents/CodeComposerStudio/PIXIE_MSP430/inc/gpio.h",line 167,column 13,is_stmt,isa 0
        JMP       $C$L37                ; [] |167| 
                                          ; [] |167| 
;* --------------------------------------------------------------------------*
	.align	4
$C$L31:    
	.dwpsn	file "C:/Users/kyle_/Documents/CodeComposerStudio/PIXIE_MSP430/inc/gpio.h",line 163,column 13,is_stmt,isa 0
        MOV.W     #223,r15              ; [] |163| 
        AND.B     &PAOUT_L+0,r15        ; [] |163| 
        OR.B      #80,r15               ; [] |163| 
        MOV.B     r15,&PAOUT_L+0        ; [] |163| 
	.dwpsn	file "C:/Users/kyle_/Documents/CodeComposerStudio/PIXIE_MSP430/inc/gpio.h",line 164,column 13,is_stmt,isa 0
        JMP       $C$L37                ; [] |164| 
                                          ; [] |164| 
;* --------------------------------------------------------------------------*
	.align	4
$C$L32:    
	.dwpsn	file "C:/Users/kyle_/Documents/CodeComposerStudio/PIXIE_MSP430/inc/gpio.h",line 160,column 13,is_stmt,isa 0
        MOV.W     #207,r15              ; [] |160| 
        AND.B     &PAOUT_L+0,r15        ; [] |160| 
        OR.B      #64,r15               ; [] |160| 
        MOV.B     r15,&PAOUT_L+0        ; [] |160| 
	.dwpsn	file "C:/Users/kyle_/Documents/CodeComposerStudio/PIXIE_MSP430/inc/gpio.h",line 161,column 13,is_stmt,isa 0
        JMP       $C$L37                ; [] |161| 
                                          ; [] |161| 
;* --------------------------------------------------------------------------*
	.align	4
$C$L33:    
	.dwpsn	file "C:/Users/kyle_/Documents/CodeComposerStudio/PIXIE_MSP430/inc/gpio.h",line 157,column 13,is_stmt,isa 0
        MOV.W     #191,r15              ; [] |157| 
        AND.B     &PAOUT_L+0,r15        ; [] |157| 
        OR.B      #48,r15               ; [] |157| 
        MOV.B     r15,&PAOUT_L+0        ; [] |157| 
	.dwpsn	file "C:/Users/kyle_/Documents/CodeComposerStudio/PIXIE_MSP430/inc/gpio.h",line 158,column 13,is_stmt,isa 0
        JMP       $C$L37                ; [] |158| 
                                          ; [] |158| 
;* --------------------------------------------------------------------------*
	.align	4
$C$L34:    
	.dwpsn	file "C:/Users/kyle_/Documents/CodeComposerStudio/PIXIE_MSP430/inc/gpio.h",line 154,column 13,is_stmt,isa 0
        MOV.W     #143,r15              ; [] |154| 
        AND.B     &PAOUT_L+0,r15        ; [] |154| 
        OR.B      #32,r15               ; [] |154| 
        MOV.B     r15,&PAOUT_L+0        ; [] |154| 
	.dwpsn	file "C:/Users/kyle_/Documents/CodeComposerStudio/PIXIE_MSP430/inc/gpio.h",line 155,column 13,is_stmt,isa 0
        JMP       $C$L37                ; [] |155| 
                                          ; [] |155| 
;* --------------------------------------------------------------------------*
	.align	4
$C$L35:    
	.dwpsn	file "C:/Users/kyle_/Documents/CodeComposerStudio/PIXIE_MSP430/inc/gpio.h",line 151,column 13,is_stmt,isa 0
        MOV.W     #159,r15              ; [] |151| 
        AND.B     &PAOUT_L+0,r15        ; [] |151| 
        OR.B      #16,r15               ; [] |151| 
        MOV.B     r15,&PAOUT_L+0        ; [] |151| 
	.dwpsn	file "C:/Users/kyle_/Documents/CodeComposerStudio/PIXIE_MSP430/inc/gpio.h",line 152,column 13,is_stmt,isa 0
        JMP       $C$L37                ; [] |152| 
                                          ; [] |152| 
;* --------------------------------------------------------------------------*
	.align	4
$C$L36:    
	.dwpsn	file "C:/Users/kyle_/Documents/CodeComposerStudio/PIXIE_MSP430/inc/gpio.h",line 148,column 13,is_stmt,isa 0
        AND.B     #143,&PAOUT_L+0       ; [] |148| 
;* --------------------------------------------------------------------------*
$C$L37:    
	.dwpsn	file "../main.c",line 534,column 13,is_stmt,isa 0
        MOV.W     6(r14),r13            ; [] |534| 
$C$DW$138	.dwtag  DW_TAG_TI_branch
	.dwattr $C$DW$138, DW_AT_low_pc(0x00)
	.dwattr $C$DW$138, DW_AT_name("ADC_SetADCChannel")
	.dwattr $C$DW$138, DW_AT_TI_call

        CALLA     #ADC_SetADCChannel    ; [] |534| 
                                          ; [] |534| 
	.dwpsn	file "../main.c",line 537,column 13,is_stmt,isa 0
$C$DW$139	.dwtag  DW_TAG_TI_branch
	.dwattr $C$DW$139, DW_AT_low_pc(0x00)
	.dwattr $C$DW$139, DW_AT_name("DMA_SetDMA0")
	.dwattr $C$DW$139, DW_AT_TI_call

        CALLA     #DMA_SetDMA0          ; [] |537| 
                                          ; [] |537| 
	.dwpsn	file "../main.c",line 540,column 13,is_stmt,isa 0
$C$DW$140	.dwtag  DW_TAG_TI_branch
	.dwattr $C$DW$140, DW_AT_low_pc(0x00)
	.dwattr $C$DW$140, DW_AT_name("DMA_SetDMA1")
	.dwattr $C$DW$140, DW_AT_TI_call

        CALLA     #DMA_SetDMA1          ; [] |540| 
                                          ; [] |540| 
	.dwpsn	file "../main.c",line 543,column 13,is_stmt,isa 0
$C$DW$141	.dwtag  DW_TAG_TI_branch
	.dwattr $C$DW$141, DW_AT_low_pc(0x00)
	.dwattr $C$DW$141, DW_AT_name("TIMER_StartTimer0AND1")
	.dwattr $C$DW$141, DW_AT_TI_call

        CALLA     #TIMER_StartTimer0AND1 ; [] |543| 
                                          ; [] |543| 
        JMP       $C$L78                ; [] |543| 
                                          ; [] |543| 
;* --------------------------------------------------------------------------*
	.align	4
$C$L38:    
	.dwpsn	file "../main.c",line 444,column 13,is_stmt,isa 0
        MOV.W     #2,r12                ; [] |444| 
$C$DW$142	.dwtag  DW_TAG_TI_branch
	.dwattr $C$DW$142, DW_AT_low_pc(0x00)
	.dwattr $C$DW$142, DW_AT_name("STATE_SetState")
	.dwattr $C$DW$142, DW_AT_TI_call

        CALLA     #STATE_SetState       ; [] |444| 
                                          ; [] |444| 
	.dwpsn	file "../main.c",line 447,column 13,is_stmt,isa 0
        MOVX.A    #CH_ChannelSequence+0,&CH_ActiveChannel+0 ; [] |447| 
	.dwpsn	file "../main.c",line 450,column 13,is_stmt,isa 0
        MOV.W     &CMD_Command+4,r15    ; [] |450| 
        RLAM.W    #4,r15                ; [] |450| 
        MOV.W     r15,&CH_RunCycles+0   ; [] |450| 
	.dwpsn	file "../main.c",line 453,column 13,is_stmt,isa 0
        MOV.W     #0,&CH_RunExclusions+0 ; [] |453| 
	.dwpsn	file "../main.c",line 456,column 13,is_stmt,isa 0
        MOV.W     &CH_ChannelSequence+100,&CH_ChannelSequence+98 ; [] |456| 
        MOVX.A    #CH_ChannelSequence+10,r10 ; [] 
        MOVX.A    #CH_ChannelSequence+116,r11 ; [] 
        MOVX.A    #CH_ChannelSequence+222,r14 ; [] 
        MOVX.A    #CH_ChannelSequence+328,r15 ; [] 
        MOV.W     #2,r7                 ; [] 
        MOVX.A    #SINE_cosDAC+0,r9     ; [] 
;* --------------------------------------------------------------------------*
;*   BEGIN LOOP $C$L39
;*
;*   Loop source line                : 459
;*   Loop closing brace source line  : 465
;*   Known Minimum Trip Count        : 2
;*   Known Maximum Trip Count        : 2
;*   Known Max Trip Count Factor     : 2
;* --------------------------------------------------------------------------*
	.align	4
$C$L39:    
	.dwpsn	file "../main.c",line 463,column 21,is_stmt,isa 0
        MOV.W     @r9+,r8               ; [] |463| 
        MOVA      r8,r12                ; [] |463| 
        MOV.W     &CH_ChannelSequence+8,r13 ; [] |463| 
$C$DW$143	.dwtag  DW_TAG_TI_branch
	.dwattr $C$DW$143, DW_AT_low_pc(0x00)
	.dwattr $C$DW$143, DW_AT_name("__mspabi_srli")
	.dwattr $C$DW$143, DW_AT_TI_call

        CALLA     #__mspabi_srli        ; [] |463| 
                                          ; [] |463| 
        ADDA      #2,r10                ; [] |463| 
        MOV.W     r12,-2(r10)           ; [] |463| 
        MOVA      r8,r12                ; [] |463| 
        MOV.W     &CH_ChannelSequence+114,r13 ; [] |463| 
$C$DW$144	.dwtag  DW_TAG_TI_branch
	.dwattr $C$DW$144, DW_AT_low_pc(0x00)
	.dwattr $C$DW$144, DW_AT_name("__mspabi_srli")
	.dwattr $C$DW$144, DW_AT_TI_call

        CALLA     #__mspabi_srli        ; [] |463| 
                                          ; [] |463| 
        ADDA      #2,r11                ; [] |463| 
        MOV.W     r12,-2(r11)           ; [] |463| 
        MOVA      r8,r12                ; [] |463| 
        MOV.W     &CH_ChannelSequence+220,r13 ; [] |463| 
$C$DW$145	.dwtag  DW_TAG_TI_branch
	.dwattr $C$DW$145, DW_AT_low_pc(0x00)
	.dwattr $C$DW$145, DW_AT_name("__mspabi_srli")
	.dwattr $C$DW$145, DW_AT_TI_call

        CALLA     #__mspabi_srli        ; [] |463| 
                                          ; [] |463| 
        ADDA      #2,r14                ; [] |463| 
        MOV.W     r12,-2(r14)           ; [] |463| 
        MOVA      r8,r12                ; [] |463| 
        MOV.W     &CH_ChannelSequence+326,r13 ; [] |463| 
$C$DW$146	.dwtag  DW_TAG_TI_branch
	.dwattr $C$DW$146, DW_AT_low_pc(0x00)
	.dwattr $C$DW$146, DW_AT_name("__mspabi_srli")
	.dwattr $C$DW$146, DW_AT_TI_call

        CALLA     #__mspabi_srli        ; [] |463| 
                                          ; [] |463| 
        ADDA      #2,r15                ; [] |463| 
        MOV.W     r12,-2(r15)           ; [] |463| 
        MOV.W     @r9+,r8               ; [] |463| 
;* --------------------------------------------------------------------------*
        MOVA      r8,r12                ; [] |463| 
        MOV.W     &CH_ChannelSequence+8,r13 ; [] |463| 
$C$DW$147	.dwtag  DW_TAG_TI_branch
	.dwattr $C$DW$147, DW_AT_low_pc(0x00)
	.dwattr $C$DW$147, DW_AT_name("__mspabi_srli")
	.dwattr $C$DW$147, DW_AT_TI_call

        CALLA     #__mspabi_srli        ; [] |463| 
                                          ; [] |463| 
        ADDA      #2,r10                ; [] |463| 
        MOV.W     r12,-2(r10)           ; [] |463| 
        MOVA      r8,r12                ; [] |463| 
        MOV.W     &CH_ChannelSequence+114,r13 ; [] |463| 
$C$DW$148	.dwtag  DW_TAG_TI_branch
	.dwattr $C$DW$148, DW_AT_low_pc(0x00)
	.dwattr $C$DW$148, DW_AT_name("__mspabi_srli")
	.dwattr $C$DW$148, DW_AT_TI_call

        CALLA     #__mspabi_srli        ; [] |463| 
                                          ; [] |463| 
        ADDA      #2,r11                ; [] |463| 
        MOV.W     r12,-2(r11)           ; [] |463| 
        MOVA      r8,r12                ; [] |463| 
        MOV.W     &CH_ChannelSequence+220,r13 ; [] |463| 
$C$DW$149	.dwtag  DW_TAG_TI_branch
	.dwattr $C$DW$149, DW_AT_low_pc(0x00)
	.dwattr $C$DW$149, DW_AT_name("__mspabi_srli")
	.dwattr $C$DW$149, DW_AT_TI_call

        CALLA     #__mspabi_srli        ; [] |463| 
                                          ; [] |463| 
        ADDA      #2,r14                ; [] |463| 
        MOV.W     r12,-2(r14)           ; [] |463| 
        MOVA      r8,r12                ; [] |463| 
        MOV.W     &CH_ChannelSequence+326,r13 ; [] |463| 
$C$DW$150	.dwtag  DW_TAG_TI_branch
	.dwattr $C$DW$150, DW_AT_low_pc(0x00)
	.dwattr $C$DW$150, DW_AT_name("__mspabi_srli")
	.dwattr $C$DW$150, DW_AT_TI_call

        CALLA     #__mspabi_srli        ; [] |463| 
                                          ; [] |463| 
        ADDA      #2,r15                ; [] |463| 
        MOV.W     r12,-2(r15)           ; [] |463| 
        MOV.W     @r9+,r8               ; [] |463| 
        MOVA      r8,r12                ; [] |463| 
        MOV.W     &CH_ChannelSequence+8,r13 ; [] |463| 
$C$DW$151	.dwtag  DW_TAG_TI_branch
	.dwattr $C$DW$151, DW_AT_low_pc(0x00)
	.dwattr $C$DW$151, DW_AT_name("__mspabi_srli")
	.dwattr $C$DW$151, DW_AT_TI_call

        CALLA     #__mspabi_srli        ; [] |463| 
                                          ; [] |463| 
        ADDA      #2,r10                ; [] |463| 
        MOV.W     r12,-2(r10)           ; [] |463| 
        MOVA      r8,r12                ; [] |463| 
        MOV.W     &CH_ChannelSequence+114,r13 ; [] |463| 
$C$DW$152	.dwtag  DW_TAG_TI_branch
	.dwattr $C$DW$152, DW_AT_low_pc(0x00)
	.dwattr $C$DW$152, DW_AT_name("__mspabi_srli")
	.dwattr $C$DW$152, DW_AT_TI_call

        CALLA     #__mspabi_srli        ; [] |463| 
                                          ; [] |463| 
        ADDA      #2,r11                ; [] |463| 
        MOV.W     r12,-2(r11)           ; [] |463| 
        MOVA      r8,r12                ; [] |463| 
        MOV.W     &CH_ChannelSequence+220,r13 ; [] |463| 
$C$DW$153	.dwtag  DW_TAG_TI_branch
	.dwattr $C$DW$153, DW_AT_low_pc(0x00)
	.dwattr $C$DW$153, DW_AT_name("__mspabi_srli")
	.dwattr $C$DW$153, DW_AT_TI_call

        CALLA     #__mspabi_srli        ; [] |463| 
                                          ; [] |463| 
        ADDA      #2,r14                ; [] |463| 
        MOV.W     r12,-2(r14)           ; [] |463| 
        MOVA      r8,r12                ; [] |463| 
        MOV.W     &CH_ChannelSequence+326,r13 ; [] |463| 
$C$DW$154	.dwtag  DW_TAG_TI_branch
	.dwattr $C$DW$154, DW_AT_low_pc(0x00)
	.dwattr $C$DW$154, DW_AT_name("__mspabi_srli")
	.dwattr $C$DW$154, DW_AT_TI_call

        CALLA     #__mspabi_srli        ; [] |463| 
                                          ; [] |463| 
        ADDA      #2,r15                ; [] |463| 
        MOV.W     r12,-2(r15)           ; [] |463| 
        MOV.W     @r9+,r8               ; [] |463| 
        MOVA      r8,r12                ; [] |463| 
        MOV.W     &CH_ChannelSequence+8,r13 ; [] |463| 
$C$DW$155	.dwtag  DW_TAG_TI_branch
	.dwattr $C$DW$155, DW_AT_low_pc(0x00)
	.dwattr $C$DW$155, DW_AT_name("__mspabi_srli")
	.dwattr $C$DW$155, DW_AT_TI_call

        CALLA     #__mspabi_srli        ; [] |463| 
                                          ; [] |463| 
        ADDA      #2,r10                ; [] |463| 
        MOV.W     r12,-2(r10)           ; [] |463| 
        MOVA      r8,r12                ; [] |463| 
        MOV.W     &CH_ChannelSequence+114,r13 ; [] |463| 
$C$DW$156	.dwtag  DW_TAG_TI_branch
	.dwattr $C$DW$156, DW_AT_low_pc(0x00)
	.dwattr $C$DW$156, DW_AT_name("__mspabi_srli")
	.dwattr $C$DW$156, DW_AT_TI_call

        CALLA     #__mspabi_srli        ; [] |463| 
                                          ; [] |463| 
        ADDA      #2,r11                ; [] |463| 
        MOV.W     r12,-2(r11)           ; [] |463| 
;* --------------------------------------------------------------------------*
        MOVA      r8,r12                ; [] |463| 
        MOV.W     &CH_ChannelSequence+220,r13 ; [] |463| 
$C$DW$157	.dwtag  DW_TAG_TI_branch
	.dwattr $C$DW$157, DW_AT_low_pc(0x00)
	.dwattr $C$DW$157, DW_AT_name("__mspabi_srli")
	.dwattr $C$DW$157, DW_AT_TI_call

        CALLA     #__mspabi_srli        ; [] |463| 
                                          ; [] |463| 
        ADDA      #2,r14                ; [] |463| 
        MOV.W     r12,-2(r14)           ; [] |463| 
        MOVA      r8,r12                ; [] |463| 
        MOV.W     &CH_ChannelSequence+326,r13 ; [] |463| 
$C$DW$158	.dwtag  DW_TAG_TI_branch
	.dwattr $C$DW$158, DW_AT_low_pc(0x00)
	.dwattr $C$DW$158, DW_AT_name("__mspabi_srli")
	.dwattr $C$DW$158, DW_AT_TI_call

        CALLA     #__mspabi_srli        ; [] |463| 
                                          ; [] |463| 
        ADDA      #2,r15                ; [] |463| 
        MOV.W     r12,-2(r15)           ; [] |463| 
        MOV.W     @r9+,r8               ; [] |463| 
        MOVA      r8,r12                ; [] |463| 
        MOV.W     &CH_ChannelSequence+8,r13 ; [] |463| 
$C$DW$159	.dwtag  DW_TAG_TI_branch
	.dwattr $C$DW$159, DW_AT_low_pc(0x00)
	.dwattr $C$DW$159, DW_AT_name("__mspabi_srli")
	.dwattr $C$DW$159, DW_AT_TI_call

        CALLA     #__mspabi_srli        ; [] |463| 
                                          ; [] |463| 
        ADDA      #2,r10                ; [] |463| 
        MOV.W     r12,-2(r10)           ; [] |463| 
        MOVA      r8,r12                ; [] |463| 
        MOV.W     &CH_ChannelSequence+114,r13 ; [] |463| 
$C$DW$160	.dwtag  DW_TAG_TI_branch
	.dwattr $C$DW$160, DW_AT_low_pc(0x00)
	.dwattr $C$DW$160, DW_AT_name("__mspabi_srli")
	.dwattr $C$DW$160, DW_AT_TI_call

        CALLA     #__mspabi_srli        ; [] |463| 
                                          ; [] |463| 
        ADDA      #2,r11                ; [] |463| 
        MOV.W     r12,-2(r11)           ; [] |463| 
        MOVA      r8,r12                ; [] |463| 
        MOV.W     &CH_ChannelSequence+220,r13 ; [] |463| 
$C$DW$161	.dwtag  DW_TAG_TI_branch
	.dwattr $C$DW$161, DW_AT_low_pc(0x00)
	.dwattr $C$DW$161, DW_AT_name("__mspabi_srli")
	.dwattr $C$DW$161, DW_AT_TI_call

        CALLA     #__mspabi_srli        ; [] |463| 
                                          ; [] |463| 
        ADDA      #2,r14                ; [] |463| 
        MOV.W     r12,-2(r14)           ; [] |463| 
        MOVA      r8,r12                ; [] |463| 
        MOV.W     &CH_ChannelSequence+326,r13 ; [] |463| 
$C$DW$162	.dwtag  DW_TAG_TI_branch
	.dwattr $C$DW$162, DW_AT_low_pc(0x00)
	.dwattr $C$DW$162, DW_AT_name("__mspabi_srli")
	.dwattr $C$DW$162, DW_AT_TI_call

        CALLA     #__mspabi_srli        ; [] |463| 
                                          ; [] |463| 
        ADDA      #2,r15                ; [] |463| 
        MOV.W     r12,-2(r15)           ; [] |463| 
        MOV.W     @r9+,r8               ; [] |463| 
        MOVA      r8,r12                ; [] |463| 
        MOV.W     &CH_ChannelSequence+8,r13 ; [] |463| 
$C$DW$163	.dwtag  DW_TAG_TI_branch
	.dwattr $C$DW$163, DW_AT_low_pc(0x00)
	.dwattr $C$DW$163, DW_AT_name("__mspabi_srli")
	.dwattr $C$DW$163, DW_AT_TI_call

        CALLA     #__mspabi_srli        ; [] |463| 
                                          ; [] |463| 
        ADDA      #2,r10                ; [] |463| 
        MOV.W     r12,-2(r10)           ; [] |463| 
        MOVA      r8,r12                ; [] |463| 
        MOV.W     &CH_ChannelSequence+114,r13 ; [] |463| 
$C$DW$164	.dwtag  DW_TAG_TI_branch
	.dwattr $C$DW$164, DW_AT_low_pc(0x00)
	.dwattr $C$DW$164, DW_AT_name("__mspabi_srli")
	.dwattr $C$DW$164, DW_AT_TI_call

        CALLA     #__mspabi_srli        ; [] |463| 
                                          ; [] |463| 
        ADDA      #2,r11                ; [] |463| 
        MOV.W     r12,-2(r11)           ; [] |463| 
        MOVA      r8,r12                ; [] |463| 
        MOV.W     &CH_ChannelSequence+220,r13 ; [] |463| 
$C$DW$165	.dwtag  DW_TAG_TI_branch
	.dwattr $C$DW$165, DW_AT_low_pc(0x00)
	.dwattr $C$DW$165, DW_AT_name("__mspabi_srli")
	.dwattr $C$DW$165, DW_AT_TI_call

        CALLA     #__mspabi_srli        ; [] |463| 
                                          ; [] |463| 
        ADDA      #2,r14                ; [] |463| 
        MOV.W     r12,-2(r14)           ; [] |463| 
        MOVA      r8,r12                ; [] |463| 
        MOV.W     &CH_ChannelSequence+326,r13 ; [] |463| 
$C$DW$166	.dwtag  DW_TAG_TI_branch
	.dwattr $C$DW$166, DW_AT_low_pc(0x00)
	.dwattr $C$DW$166, DW_AT_name("__mspabi_srli")
	.dwattr $C$DW$166, DW_AT_TI_call

        CALLA     #__mspabi_srli        ; [] |463| 
                                          ; [] |463| 
        ADDA      #2,r15                ; [] |463| 
        MOV.W     r12,-2(r15)           ; [] |463| 
        MOV.W     @r9+,r8               ; [] |463| 
;* --------------------------------------------------------------------------*
        MOVA      r8,r12                ; [] |463| 
        MOV.W     &CH_ChannelSequence+8,r13 ; [] |463| 
$C$DW$167	.dwtag  DW_TAG_TI_branch
	.dwattr $C$DW$167, DW_AT_low_pc(0x00)
	.dwattr $C$DW$167, DW_AT_name("__mspabi_srli")
	.dwattr $C$DW$167, DW_AT_TI_call

        CALLA     #__mspabi_srli        ; [] |463| 
                                          ; [] |463| 
        ADDA      #2,r10                ; [] |463| 
        MOV.W     r12,-2(r10)           ; [] |463| 
        MOVA      r8,r12                ; [] |463| 
        MOV.W     &CH_ChannelSequence+114,r13 ; [] |463| 
$C$DW$168	.dwtag  DW_TAG_TI_branch
	.dwattr $C$DW$168, DW_AT_low_pc(0x00)
	.dwattr $C$DW$168, DW_AT_name("__mspabi_srli")
	.dwattr $C$DW$168, DW_AT_TI_call

        CALLA     #__mspabi_srli        ; [] |463| 
                                          ; [] |463| 
        ADDA      #2,r11                ; [] |463| 
        MOV.W     r12,-2(r11)           ; [] |463| 
        MOVA      r8,r12                ; [] |463| 
        MOV.W     &CH_ChannelSequence+220,r13 ; [] |463| 
$C$DW$169	.dwtag  DW_TAG_TI_branch
	.dwattr $C$DW$169, DW_AT_low_pc(0x00)
	.dwattr $C$DW$169, DW_AT_name("__mspabi_srli")
	.dwattr $C$DW$169, DW_AT_TI_call

        CALLA     #__mspabi_srli        ; [] |463| 
                                          ; [] |463| 
        ADDA      #2,r14                ; [] |463| 
        MOV.W     r12,-2(r14)           ; [] |463| 
        MOVA      r8,r12                ; [] |463| 
        MOV.W     &CH_ChannelSequence+326,r13 ; [] |463| 
$C$DW$170	.dwtag  DW_TAG_TI_branch
	.dwattr $C$DW$170, DW_AT_low_pc(0x00)
	.dwattr $C$DW$170, DW_AT_name("__mspabi_srli")
	.dwattr $C$DW$170, DW_AT_TI_call

        CALLA     #__mspabi_srli        ; [] |463| 
                                          ; [] |463| 
        ADDA      #2,r15                ; [] |463| 
        MOV.W     r12,-2(r15)           ; [] |463| 
        MOV.W     @r9+,r8               ; [] |463| 
        MOVA      r8,r12                ; [] |463| 
        MOV.W     &CH_ChannelSequence+8,r13 ; [] |463| 
$C$DW$171	.dwtag  DW_TAG_TI_branch
	.dwattr $C$DW$171, DW_AT_low_pc(0x00)
	.dwattr $C$DW$171, DW_AT_name("__mspabi_srli")
	.dwattr $C$DW$171, DW_AT_TI_call

        CALLA     #__mspabi_srli        ; [] |463| 
                                          ; [] |463| 
        ADDA      #2,r10                ; [] |463| 
        MOV.W     r12,-2(r10)           ; [] |463| 
        MOVA      r8,r12                ; [] |463| 
        MOV.W     &CH_ChannelSequence+114,r13 ; [] |463| 
$C$DW$172	.dwtag  DW_TAG_TI_branch
	.dwattr $C$DW$172, DW_AT_low_pc(0x00)
	.dwattr $C$DW$172, DW_AT_name("__mspabi_srli")
	.dwattr $C$DW$172, DW_AT_TI_call

        CALLA     #__mspabi_srli        ; [] |463| 
                                          ; [] |463| 
        ADDA      #2,r11                ; [] |463| 
        MOV.W     r12,-2(r11)           ; [] |463| 
        MOVA      r8,r12                ; [] |463| 
        MOV.W     &CH_ChannelSequence+220,r13 ; [] |463| 
$C$DW$173	.dwtag  DW_TAG_TI_branch
	.dwattr $C$DW$173, DW_AT_low_pc(0x00)
	.dwattr $C$DW$173, DW_AT_name("__mspabi_srli")
	.dwattr $C$DW$173, DW_AT_TI_call

        CALLA     #__mspabi_srli        ; [] |463| 
                                          ; [] |463| 
        ADDA      #2,r14                ; [] |463| 
        MOV.W     r12,-2(r14)           ; [] |463| 
        MOVA      r8,r12                ; [] |463| 
        MOV.W     &CH_ChannelSequence+326,r13 ; [] |463| 
$C$DW$174	.dwtag  DW_TAG_TI_branch
	.dwattr $C$DW$174, DW_AT_low_pc(0x00)
	.dwattr $C$DW$174, DW_AT_name("__mspabi_srli")
	.dwattr $C$DW$174, DW_AT_TI_call

        CALLA     #__mspabi_srli        ; [] |463| 
                                          ; [] |463| 
        ADDA      #2,r15                ; [] |463| 
        MOV.W     r12,-2(r15)           ; [] |463| 
        MOV.W     @r9+,r8               ; [] |463| 
        MOVA      r8,r12                ; [] |463| 
        MOV.W     &CH_ChannelSequence+8,r13 ; [] |463| 
$C$DW$175	.dwtag  DW_TAG_TI_branch
	.dwattr $C$DW$175, DW_AT_low_pc(0x00)
	.dwattr $C$DW$175, DW_AT_name("__mspabi_srli")
	.dwattr $C$DW$175, DW_AT_TI_call

        CALLA     #__mspabi_srli        ; [] |463| 
                                          ; [] |463| 
        ADDA      #2,r10                ; [] |463| 
        MOV.W     r12,-2(r10)           ; [] |463| 
        MOVA      r8,r12                ; [] |463| 
        MOV.W     &CH_ChannelSequence+114,r13 ; [] |463| 
$C$DW$176	.dwtag  DW_TAG_TI_branch
	.dwattr $C$DW$176, DW_AT_low_pc(0x00)
	.dwattr $C$DW$176, DW_AT_name("__mspabi_srli")
	.dwattr $C$DW$176, DW_AT_TI_call

        CALLA     #__mspabi_srli        ; [] |463| 
                                          ; [] |463| 
        ADDA      #2,r11                ; [] |463| 
        MOV.W     r12,-2(r11)           ; [] |463| 
;* --------------------------------------------------------------------------*
        MOVA      r8,r12                ; [] |463| 
        MOV.W     &CH_ChannelSequence+220,r13 ; [] |463| 
$C$DW$177	.dwtag  DW_TAG_TI_branch
	.dwattr $C$DW$177, DW_AT_low_pc(0x00)
	.dwattr $C$DW$177, DW_AT_name("__mspabi_srli")
	.dwattr $C$DW$177, DW_AT_TI_call

        CALLA     #__mspabi_srli        ; [] |463| 
                                          ; [] |463| 
        ADDA      #2,r14                ; [] |463| 
        MOV.W     r12,-2(r14)           ; [] |463| 
        MOVA      r8,r12                ; [] |463| 
        MOV.W     &CH_ChannelSequence+326,r13 ; [] |463| 
$C$DW$178	.dwtag  DW_TAG_TI_branch
	.dwattr $C$DW$178, DW_AT_low_pc(0x00)
	.dwattr $C$DW$178, DW_AT_name("__mspabi_srli")
	.dwattr $C$DW$178, DW_AT_TI_call

        CALLA     #__mspabi_srli        ; [] |463| 
                                          ; [] |463| 
        ADDA      #2,r15                ; [] |463| 
        MOV.W     r12,-2(r15)           ; [] |463| 
        MOV.W     @r9+,r8               ; [] |463| 
        MOVA      r8,r12                ; [] |463| 
        MOV.W     &CH_ChannelSequence+8,r13 ; [] |463| 
$C$DW$179	.dwtag  DW_TAG_TI_branch
	.dwattr $C$DW$179, DW_AT_low_pc(0x00)
	.dwattr $C$DW$179, DW_AT_name("__mspabi_srli")
	.dwattr $C$DW$179, DW_AT_TI_call

        CALLA     #__mspabi_srli        ; [] |463| 
                                          ; [] |463| 
        ADDA      #2,r10                ; [] |463| 
        MOV.W     r12,-2(r10)           ; [] |463| 
        MOVA      r8,r12                ; [] |463| 
        MOV.W     &CH_ChannelSequence+114,r13 ; [] |463| 
$C$DW$180	.dwtag  DW_TAG_TI_branch
	.dwattr $C$DW$180, DW_AT_low_pc(0x00)
	.dwattr $C$DW$180, DW_AT_name("__mspabi_srli")
	.dwattr $C$DW$180, DW_AT_TI_call

        CALLA     #__mspabi_srli        ; [] |463| 
                                          ; [] |463| 
        ADDA      #2,r11                ; [] |463| 
        MOV.W     r12,-2(r11)           ; [] |463| 
        MOVA      r8,r12                ; [] |463| 
        MOV.W     &CH_ChannelSequence+220,r13 ; [] |463| 
$C$DW$181	.dwtag  DW_TAG_TI_branch
	.dwattr $C$DW$181, DW_AT_low_pc(0x00)
	.dwattr $C$DW$181, DW_AT_name("__mspabi_srli")
	.dwattr $C$DW$181, DW_AT_TI_call

        CALLA     #__mspabi_srli        ; [] |463| 
                                          ; [] |463| 
        ADDA      #2,r14                ; [] |463| 
        MOV.W     r12,-2(r14)           ; [] |463| 
        MOVA      r8,r12                ; [] |463| 
        MOV.W     &CH_ChannelSequence+326,r13 ; [] |463| 
$C$DW$182	.dwtag  DW_TAG_TI_branch
	.dwattr $C$DW$182, DW_AT_low_pc(0x00)
	.dwattr $C$DW$182, DW_AT_name("__mspabi_srli")
	.dwattr $C$DW$182, DW_AT_TI_call

        CALLA     #__mspabi_srli        ; [] |463| 
                                          ; [] |463| 
        ADDA      #2,r15                ; [] |463| 
        MOV.W     r12,-2(r15)           ; [] |463| 
        MOV.W     @r9+,r8               ; [] |463| 
        MOVA      r8,r12                ; [] |463| 
        MOV.W     &CH_ChannelSequence+8,r13 ; [] |463| 
$C$DW$183	.dwtag  DW_TAG_TI_branch
	.dwattr $C$DW$183, DW_AT_low_pc(0x00)
	.dwattr $C$DW$183, DW_AT_name("__mspabi_srli")
	.dwattr $C$DW$183, DW_AT_TI_call

        CALLA     #__mspabi_srli        ; [] |463| 
                                          ; [] |463| 
        ADDA      #2,r10                ; [] |463| 
        MOV.W     r12,-2(r10)           ; [] |463| 
        MOVA      r8,r12                ; [] |463| 
        MOV.W     &CH_ChannelSequence+114,r13 ; [] |463| 
$C$DW$184	.dwtag  DW_TAG_TI_branch
	.dwattr $C$DW$184, DW_AT_low_pc(0x00)
	.dwattr $C$DW$184, DW_AT_name("__mspabi_srli")
	.dwattr $C$DW$184, DW_AT_TI_call

        CALLA     #__mspabi_srli        ; [] |463| 
                                          ; [] |463| 
        ADDA      #2,r11                ; [] |463| 
        MOV.W     r12,-2(r11)           ; [] |463| 
        MOVA      r8,r12                ; [] |463| 
        MOV.W     &CH_ChannelSequence+220,r13 ; [] |463| 
$C$DW$185	.dwtag  DW_TAG_TI_branch
	.dwattr $C$DW$185, DW_AT_low_pc(0x00)
	.dwattr $C$DW$185, DW_AT_name("__mspabi_srli")
	.dwattr $C$DW$185, DW_AT_TI_call

        CALLA     #__mspabi_srli        ; [] |463| 
                                          ; [] |463| 
        ADDA      #2,r14                ; [] |463| 
        MOV.W     r12,-2(r14)           ; [] |463| 
        MOVA      r8,r12                ; [] |463| 
        MOV.W     &CH_ChannelSequence+326,r13 ; [] |463| 
$C$DW$186	.dwtag  DW_TAG_TI_branch
	.dwattr $C$DW$186, DW_AT_low_pc(0x00)
	.dwattr $C$DW$186, DW_AT_name("__mspabi_srli")
	.dwattr $C$DW$186, DW_AT_TI_call

        CALLA     #__mspabi_srli        ; [] |463| 
                                          ; [] |463| 
        ADDA      #2,r15                ; [] |463| 
        MOV.W     r12,-2(r15)           ; [] |463| 
        MOV.W     @r9+,r8               ; [] |463| 
;* --------------------------------------------------------------------------*
        MOVA      r8,r12                ; [] |463| 
        MOV.W     &CH_ChannelSequence+8,r13 ; [] |463| 
$C$DW$187	.dwtag  DW_TAG_TI_branch
	.dwattr $C$DW$187, DW_AT_low_pc(0x00)
	.dwattr $C$DW$187, DW_AT_name("__mspabi_srli")
	.dwattr $C$DW$187, DW_AT_TI_call

        CALLA     #__mspabi_srli        ; [] |463| 
                                          ; [] |463| 
        ADDA      #2,r10                ; [] |463| 
        MOV.W     r12,-2(r10)           ; [] |463| 
        MOVA      r8,r12                ; [] |463| 
        MOV.W     &CH_ChannelSequence+114,r13 ; [] |463| 
$C$DW$188	.dwtag  DW_TAG_TI_branch
	.dwattr $C$DW$188, DW_AT_low_pc(0x00)
	.dwattr $C$DW$188, DW_AT_name("__mspabi_srli")
	.dwattr $C$DW$188, DW_AT_TI_call

        CALLA     #__mspabi_srli        ; [] |463| 
                                          ; [] |463| 
        ADDA      #2,r11                ; [] |463| 
        MOV.W     r12,-2(r11)           ; [] |463| 
        MOVA      r8,r12                ; [] |463| 
        MOV.W     &CH_ChannelSequence+220,r13 ; [] |463| 
$C$DW$189	.dwtag  DW_TAG_TI_branch
	.dwattr $C$DW$189, DW_AT_low_pc(0x00)
	.dwattr $C$DW$189, DW_AT_name("__mspabi_srli")
	.dwattr $C$DW$189, DW_AT_TI_call

        CALLA     #__mspabi_srli        ; [] |463| 
                                          ; [] |463| 
        ADDA      #2,r14                ; [] |463| 
        MOV.W     r12,-2(r14)           ; [] |463| 
        MOVA      r8,r12                ; [] |463| 
        MOV.W     &CH_ChannelSequence+326,r13 ; [] |463| 
$C$DW$190	.dwtag  DW_TAG_TI_branch
	.dwattr $C$DW$190, DW_AT_low_pc(0x00)
	.dwattr $C$DW$190, DW_AT_name("__mspabi_srli")
	.dwattr $C$DW$190, DW_AT_TI_call

        CALLA     #__mspabi_srli        ; [] |463| 
                                          ; [] |463| 
        ADDA      #2,r15                ; [] |463| 
        MOV.W     r12,-2(r15)           ; [] |463| 
        MOV.W     @r9+,r8               ; [] |463| 
        MOVA      r8,r12                ; [] |463| 
        MOV.W     &CH_ChannelSequence+8,r13 ; [] |463| 
$C$DW$191	.dwtag  DW_TAG_TI_branch
	.dwattr $C$DW$191, DW_AT_low_pc(0x00)
	.dwattr $C$DW$191, DW_AT_name("__mspabi_srli")
	.dwattr $C$DW$191, DW_AT_TI_call

        CALLA     #__mspabi_srli        ; [] |463| 
                                          ; [] |463| 
        ADDA      #2,r10                ; [] |463| 
        MOV.W     r12,-2(r10)           ; [] |463| 
        MOVA      r8,r12                ; [] |463| 
        MOV.W     &CH_ChannelSequence+114,r13 ; [] |463| 
$C$DW$192	.dwtag  DW_TAG_TI_branch
	.dwattr $C$DW$192, DW_AT_low_pc(0x00)
	.dwattr $C$DW$192, DW_AT_name("__mspabi_srli")
	.dwattr $C$DW$192, DW_AT_TI_call

        CALLA     #__mspabi_srli        ; [] |463| 
                                          ; [] |463| 
        ADDA      #2,r11                ; [] |463| 
        MOV.W     r12,-2(r11)           ; [] |463| 
        MOVA      r8,r12                ; [] |463| 
        MOV.W     &CH_ChannelSequence+220,r13 ; [] |463| 
$C$DW$193	.dwtag  DW_TAG_TI_branch
	.dwattr $C$DW$193, DW_AT_low_pc(0x00)
	.dwattr $C$DW$193, DW_AT_name("__mspabi_srli")
	.dwattr $C$DW$193, DW_AT_TI_call

        CALLA     #__mspabi_srli        ; [] |463| 
                                          ; [] |463| 
        ADDA      #2,r14                ; [] |463| 
        MOV.W     r12,-2(r14)           ; [] |463| 
        MOVA      r8,r12                ; [] |463| 
        MOV.W     &CH_ChannelSequence+326,r13 ; [] |463| 
$C$DW$194	.dwtag  DW_TAG_TI_branch
	.dwattr $C$DW$194, DW_AT_low_pc(0x00)
	.dwattr $C$DW$194, DW_AT_name("__mspabi_srli")
	.dwattr $C$DW$194, DW_AT_TI_call

        CALLA     #__mspabi_srli        ; [] |463| 
                                          ; [] |463| 
        ADDA      #2,r15                ; [] |463| 
        MOV.W     r12,-2(r15)           ; [] |463| 
        MOV.W     @r9+,r8               ; [] |463| 
        MOVA      r8,r12                ; [] |463| 
        MOV.W     &CH_ChannelSequence+8,r13 ; [] |463| 
$C$DW$195	.dwtag  DW_TAG_TI_branch
	.dwattr $C$DW$195, DW_AT_low_pc(0x00)
	.dwattr $C$DW$195, DW_AT_name("__mspabi_srli")
	.dwattr $C$DW$195, DW_AT_TI_call

        CALLA     #__mspabi_srli        ; [] |463| 
                                          ; [] |463| 
        ADDA      #2,r10                ; [] |463| 
        MOV.W     r12,-2(r10)           ; [] |463| 
        MOVA      r8,r12                ; [] |463| 
        MOV.W     &CH_ChannelSequence+114,r13 ; [] |463| 
$C$DW$196	.dwtag  DW_TAG_TI_branch
	.dwattr $C$DW$196, DW_AT_low_pc(0x00)
	.dwattr $C$DW$196, DW_AT_name("__mspabi_srli")
	.dwattr $C$DW$196, DW_AT_TI_call

        CALLA     #__mspabi_srli        ; [] |463| 
                                          ; [] |463| 
        ADDA      #2,r11                ; [] |463| 
        MOV.W     r12,-2(r11)           ; [] |463| 
;* --------------------------------------------------------------------------*
        MOVA      r8,r12                ; [] |463| 
        MOV.W     &CH_ChannelSequence+220,r13 ; [] |463| 
$C$DW$197	.dwtag  DW_TAG_TI_branch
	.dwattr $C$DW$197, DW_AT_low_pc(0x00)
	.dwattr $C$DW$197, DW_AT_name("__mspabi_srli")
	.dwattr $C$DW$197, DW_AT_TI_call

        CALLA     #__mspabi_srli        ; [] |463| 
                                          ; [] |463| 
        ADDA      #2,r14                ; [] |463| 
        MOV.W     r12,-2(r14)           ; [] |463| 
        MOVA      r8,r12                ; [] |463| 
        MOV.W     &CH_ChannelSequence+326,r13 ; [] |463| 
$C$DW$198	.dwtag  DW_TAG_TI_branch
	.dwattr $C$DW$198, DW_AT_low_pc(0x00)
	.dwattr $C$DW$198, DW_AT_name("__mspabi_srli")
	.dwattr $C$DW$198, DW_AT_TI_call

        CALLA     #__mspabi_srli        ; [] |463| 
                                          ; [] |463| 
        ADDA      #2,r15                ; [] |463| 
        MOV.W     r12,-2(r15)           ; [] |463| 
        MOV.W     @r9+,r8               ; [] |463| 
        MOVA      r8,r12                ; [] |463| 
        MOV.W     &CH_ChannelSequence+8,r13 ; [] |463| 
$C$DW$199	.dwtag  DW_TAG_TI_branch
	.dwattr $C$DW$199, DW_AT_low_pc(0x00)
	.dwattr $C$DW$199, DW_AT_name("__mspabi_srli")
	.dwattr $C$DW$199, DW_AT_TI_call

        CALLA     #__mspabi_srli        ; [] |463| 
                                          ; [] |463| 
        ADDA      #2,r10                ; [] |463| 
        MOV.W     r12,-2(r10)           ; [] |463| 
        MOVA      r8,r12                ; [] |463| 
        MOV.W     &CH_ChannelSequence+114,r13 ; [] |463| 
$C$DW$200	.dwtag  DW_TAG_TI_branch
	.dwattr $C$DW$200, DW_AT_low_pc(0x00)
	.dwattr $C$DW$200, DW_AT_name("__mspabi_srli")
	.dwattr $C$DW$200, DW_AT_TI_call

        CALLA     #__mspabi_srli        ; [] |463| 
                                          ; [] |463| 
        ADDA      #2,r11                ; [] |463| 
        MOV.W     r12,-2(r11)           ; [] |463| 
        MOVA      r8,r12                ; [] |463| 
        MOV.W     &CH_ChannelSequence+220,r13 ; [] |463| 
$C$DW$201	.dwtag  DW_TAG_TI_branch
	.dwattr $C$DW$201, DW_AT_low_pc(0x00)
	.dwattr $C$DW$201, DW_AT_name("__mspabi_srli")
	.dwattr $C$DW$201, DW_AT_TI_call

        CALLA     #__mspabi_srli        ; [] |463| 
                                          ; [] |463| 
        ADDA      #2,r14                ; [] |463| 
        MOV.W     r12,-2(r14)           ; [] |463| 
        MOVA      r8,r12                ; [] |463| 
        MOV.W     &CH_ChannelSequence+326,r13 ; [] |463| 
$C$DW$202	.dwtag  DW_TAG_TI_branch
	.dwattr $C$DW$202, DW_AT_low_pc(0x00)
	.dwattr $C$DW$202, DW_AT_name("__mspabi_srli")
	.dwattr $C$DW$202, DW_AT_TI_call

        CALLA     #__mspabi_srli        ; [] |463| 
                                          ; [] |463| 
        ADDA      #2,r15                ; [] |463| 
        MOV.W     r12,-2(r15)           ; [] |463| 
        MOV.W     @r9+,r8               ; [] |463| 
        MOVA      r8,r12                ; [] |463| 
        MOV.W     &CH_ChannelSequence+8,r13 ; [] |463| 
$C$DW$203	.dwtag  DW_TAG_TI_branch
	.dwattr $C$DW$203, DW_AT_low_pc(0x00)
	.dwattr $C$DW$203, DW_AT_name("__mspabi_srli")
	.dwattr $C$DW$203, DW_AT_TI_call

        CALLA     #__mspabi_srli        ; [] |463| 
                                          ; [] |463| 
        ADDA      #2,r10                ; [] |463| 
        MOV.W     r12,-2(r10)           ; [] |463| 
        MOVA      r8,r12                ; [] |463| 
        MOV.W     &CH_ChannelSequence+114,r13 ; [] |463| 
$C$DW$204	.dwtag  DW_TAG_TI_branch
	.dwattr $C$DW$204, DW_AT_low_pc(0x00)
	.dwattr $C$DW$204, DW_AT_name("__mspabi_srli")
	.dwattr $C$DW$204, DW_AT_TI_call

        CALLA     #__mspabi_srli        ; [] |463| 
                                          ; [] |463| 
        ADDA      #2,r11                ; [] |463| 
        MOV.W     r12,-2(r11)           ; [] |463| 
        MOVA      r8,r12                ; [] |463| 
        MOV.W     &CH_ChannelSequence+220,r13 ; [] |463| 
$C$DW$205	.dwtag  DW_TAG_TI_branch
	.dwattr $C$DW$205, DW_AT_low_pc(0x00)
	.dwattr $C$DW$205, DW_AT_name("__mspabi_srli")
	.dwattr $C$DW$205, DW_AT_TI_call

        CALLA     #__mspabi_srli        ; [] |463| 
                                          ; [] |463| 
        ADDA      #2,r14                ; [] |463| 
        MOV.W     r12,-2(r14)           ; [] |463| 
        MOVA      r8,r12                ; [] |463| 
        MOV.W     &CH_ChannelSequence+326,r13 ; [] |463| 
$C$DW$206	.dwtag  DW_TAG_TI_branch
	.dwattr $C$DW$206, DW_AT_low_pc(0x00)
	.dwattr $C$DW$206, DW_AT_name("__mspabi_srli")
	.dwattr $C$DW$206, DW_AT_TI_call

        CALLA     #__mspabi_srli        ; [] |463| 
                                          ; [] |463| 
        ADDA      #2,r15                ; [] |463| 
        MOV.W     r12,-2(r15)           ; [] |463| 
	.dwpsn	file "../main.c",line 459,column 24,is_stmt,isa 0
        SUB.W     #1,r7                 ; [] |459| 
        JNE       $C$L39                ; [] |459| 
                                          ; [] |459| 
;* --------------------------------------------------------------------------*
	.dwpsn	file "../main.c",line 466,column 13,is_stmt,isa 0
        MOV.W     #10,r15               ; [] |466| 
        ADDX.A    &CH_ActiveChannel+0,r15 ; [] |466| 
        MOVX.A    r15,&MAIN_DACBuffer+0 ; [] |466| 
	.dwpsn	file "../main.c",line 469,column 13,is_stmt,isa 0
        MOV.W     #0,&MAIN_SequenceNumber+0 ; [] |469| 
	.dwpsn	file "../main.c",line 470,column 13,is_stmt,isa 0
        MOV.W     #0,&MAIN_IndexNumber+0 ; [] |470| 
	.dwpsn	file "../main.c",line 473,column 13,is_stmt,isa 0
$C$DW$207	.dwtag  DW_TAG_TI_branch
	.dwattr $C$DW$207, DW_AT_low_pc(0x00)
	.dwattr $C$DW$207, DW_AT_name("DMA_RenewDACBuffer")
	.dwattr $C$DW$207, DW_AT_TI_call

        CALLA     #DMA_RenewDACBuffer   ; [] |473| 
                                          ; [] |473| 
	.dwpsn	file "C:/Users/kyle_/Documents/CodeComposerStudio/PIXIE_MSP430/inc/gpio.h",line 86,column 5,is_stmt,isa 0
        AND.B     #191,&PCOUT_H+0       ; [] |86| 
	.dwpsn	file "C:/Users/kyle_/Documents/CodeComposerStudio/PIXIE_MSP430/inc/gpio.h",line 87,column 5,is_stmt,isa 0
        AND.B     #127,&PEOUT_L+0       ; [] |87| 
	.dwpsn	file "C:/Users/kyle_/Documents/CodeComposerStudio/PIXIE_MSP430/inc/gpio.h",line 88,column 5,is_stmt,isa 0
        AND.B     #127,&PBOUT_L+0       ; [] |88| 
	.dwpsn	file "C:/Users/kyle_/Documents/CodeComposerStudio/PIXIE_MSP430/inc/gpio.h",line 89,column 5,is_stmt,isa 0
        BIC.B     #8,&PCOUT_L+0         ; [] |89| 
	.dwpsn	file "C:/Users/kyle_/Documents/CodeComposerStudio/PIXIE_MSP430/inc/gpio.h",line 114,column 5,is_stmt,isa 0
        MOVX.A    &CH_ActiveChannel+0,r14 ; [] |114| 
        MOV.W     @r14,r12              ; [] |114| 
        MOVA      r12,r15               ; [] |114| 
        SUB.W     #1,r15                ; [] |114| 
        JEQ       $C$L42                ; [] |114| 
                                          ; [] |114| 
;* --------------------------------------------------------------------------*
        SUB.W     #1,r15                ; [] |114| 
        JEQ       $C$L41                ; [] |114| 
                                          ; [] |114| 
;* --------------------------------------------------------------------------*
        SUB.W     #1,r15                ; [] |114| 
        JEQ       $C$L40                ; [] |114| 
                                          ; [] |114| 
;* --------------------------------------------------------------------------*
        SUB.W     #1,r15                ; [] |114| 
        JNE       $C$L43                ; [] |114| 
                                          ; [] |114| 
;* --------------------------------------------------------------------------*
	.dwpsn	file "C:/Users/kyle_/Documents/CodeComposerStudio/PIXIE_MSP430/inc/gpio.h",line 126,column 9,is_stmt,isa 0
        OR.B      #8,&PCOUT_L+0         ; [] |126| 
	.dwpsn	file "C:/Users/kyle_/Documents/CodeComposerStudio/PIXIE_MSP430/inc/gpio.h",line 127,column 9,is_stmt,isa 0
        JMP       $C$L43                ; [] |127| 
                                          ; [] |127| 
;* --------------------------------------------------------------------------*
	.align	4
$C$L40:    
	.dwpsn	file "C:/Users/kyle_/Documents/CodeComposerStudio/PIXIE_MSP430/inc/gpio.h",line 123,column 9,is_stmt,isa 0
        OR.B      #128,&PBOUT_L+0       ; [] |123| 
	.dwpsn	file "C:/Users/kyle_/Documents/CodeComposerStudio/PIXIE_MSP430/inc/gpio.h",line 124,column 9,is_stmt,isa 0
        JMP       $C$L43                ; [] |124| 
                                          ; [] |124| 
;* --------------------------------------------------------------------------*
	.align	4
$C$L41:    
	.dwpsn	file "C:/Users/kyle_/Documents/CodeComposerStudio/PIXIE_MSP430/inc/gpio.h",line 120,column 9,is_stmt,isa 0
        OR.B      #128,&PEOUT_L+0       ; [] |120| 
	.dwpsn	file "C:/Users/kyle_/Documents/CodeComposerStudio/PIXIE_MSP430/inc/gpio.h",line 121,column 9,is_stmt,isa 0
        JMP       $C$L43                ; [] |121| 
                                          ; [] |121| 
;* --------------------------------------------------------------------------*
	.align	4
$C$L42:    
	.dwpsn	file "C:/Users/kyle_/Documents/CodeComposerStudio/PIXIE_MSP430/inc/gpio.h",line 117,column 9,is_stmt,isa 0
        OR.B      #64,&PCOUT_H+0        ; [] |117| 
;* --------------------------------------------------------------------------*
$C$L43:    
	.dwpsn	file "C:/Users/kyle_/Documents/CodeComposerStudio/PIXIE_MSP430/inc/gpio.h",line 138,column 1,is_stmt,isa 0
        MOV.W     4(r14),r15            ; [] |138| 
	.dwpsn	file "C:/Users/kyle_/Documents/CodeComposerStudio/PIXIE_MSP430/inc/gpio.h",line 139,column 5,is_stmt,isa 0
        CMP.W     #1,r12                ; [] |139| 
        JEQ       $C$L67                ; [] |139| 
                                          ; [] |139| 
;* --------------------------------------------------------------------------*
	.dwpsn	file "C:/Users/kyle_/Documents/CodeComposerStudio/PIXIE_MSP430/inc/gpio.h",line 174,column 10,is_stmt,isa 0
        CMP.W     #2,r12                ; [] |174| 
        JEQ       $C$L59                ; [] |174| 
                                          ; [] |174| 
;* --------------------------------------------------------------------------*
	.dwpsn	file "C:/Users/kyle_/Documents/CodeComposerStudio/PIXIE_MSP430/inc/gpio.h",line 209,column 10,is_stmt,isa 0
        CMP.W     #3,r12                ; [] |209| 
        JEQ       $C$L51                ; [] |209| 
                                          ; [] |209| 
;* --------------------------------------------------------------------------*
	.dwpsn	file "C:/Users/kyle_/Documents/CodeComposerStudio/PIXIE_MSP430/inc/gpio.h",line 244,column 10,is_stmt,isa 0
        CMP.W     #4,r12                ; [] |244| 
        JNE       $C$L75                ; [] |244| 
                                          ; [] |244| 
;* --------------------------------------------------------------------------*
	.dwpsn	file "C:/Users/kyle_/Documents/CodeComposerStudio/PIXIE_MSP430/inc/gpio.h",line 247,column 9,is_stmt,isa 0
        AND.B     #143,&PAOUT_L+0       ; [] |247| 
	.dwpsn	file "C:/Users/kyle_/Documents/CodeComposerStudio/PIXIE_MSP430/inc/gpio.h",line 248,column 9,is_stmt,isa 0
        AND.B     #241,&PAOUT_L+0       ; [] |248| 
	.dwpsn	file "C:/Users/kyle_/Documents/CodeComposerStudio/PIXIE_MSP430/inc/gpio.h",line 249,column 9,is_stmt,isa 0
        AND.B     #199,&PBOUT_L+0       ; [] |249| 
	.dwpsn	file "C:/Users/kyle_/Documents/CodeComposerStudio/PIXIE_MSP430/inc/gpio.h",line 250,column 9,is_stmt,isa 0
        TST.W     r15                   ; [] |250| 
        JEQ       $C$L50                ; [] |250| 
                                          ; [] |250| 
;* --------------------------------------------------------------------------*
        SUB.W     #1,r15                ; [] |250| 
        JEQ       $C$L49                ; [] |250| 
                                          ; [] |250| 
;* --------------------------------------------------------------------------*
        SUB.W     #1,r15                ; [] |250| 
        JEQ       $C$L48                ; [] |250| 
                                          ; [] |250| 
;* --------------------------------------------------------------------------*
        SUB.W     #3,r15                ; [] |250| 
        JEQ       $C$L47                ; [] |250| 
                                          ; [] |250| 
;* --------------------------------------------------------------------------*
        SUB.W     #5,r15                ; [] |250| 
        JEQ       $C$L46                ; [] |250| 
                                          ; [] |250| 
;* --------------------------------------------------------------------------*
        SUB.W     #10,r15               ; [] |250| 
        JEQ       $C$L45                ; [] |250| 
                                          ; [] |250| 
;* --------------------------------------------------------------------------*
        SUB.W     #30,r15               ; [] |250| 
        JEQ       $C$L44                ; [] |250| 
                                          ; [] |250| 
;* --------------------------------------------------------------------------*
	.dwpsn	file "C:/Users/kyle_/Documents/CodeComposerStudio/PIXIE_MSP430/inc/gpio.h",line 275,column 13,is_stmt,isa 0
        OR.B      #7,&PBOUT_L+0         ; [] |275| 
	.dwpsn	file "C:/Users/kyle_/Documents/CodeComposerStudio/PIXIE_MSP430/inc/gpio.h",line 276,column 13,is_stmt,isa 0
        JMP       $C$L75                ; [] |276| 
                                          ; [] |276| 
;* --------------------------------------------------------------------------*
	.align	4
$C$L44:    
	.dwpsn	file "C:/Users/kyle_/Documents/CodeComposerStudio/PIXIE_MSP430/inc/gpio.h",line 271,column 13,is_stmt,isa 0
        MOV.B     &PBOUT_L+0,r15        ; [] |271| 
        BIC.B     #1,r15                ; [] |271| 
        OR.B      #6,r15                ; [] |271| 
        MOV.B     r15,&PBOUT_L+0        ; [] |271| 
	.dwpsn	file "C:/Users/kyle_/Documents/CodeComposerStudio/PIXIE_MSP430/inc/gpio.h",line 272,column 13,is_stmt,isa 0
        JMP       $C$L75                ; [] |272| 
                                          ; [] |272| 
;* --------------------------------------------------------------------------*
	.align	4
$C$L45:    
	.dwpsn	file "C:/Users/kyle_/Documents/CodeComposerStudio/PIXIE_MSP430/inc/gpio.h",line 268,column 13,is_stmt,isa 0
        MOV.W     #252,r15              ; [] |268| 
        AND.B     &PBOUT_L+0,r15        ; [] |268| 
        OR.B      #5,r15                ; [] |268| 
        MOV.B     r15,&PBOUT_L+0        ; [] |268| 
	.dwpsn	file "C:/Users/kyle_/Documents/CodeComposerStudio/PIXIE_MSP430/inc/gpio.h",line 269,column 13,is_stmt,isa 0
        JMP       $C$L75                ; [] |269| 
                                          ; [] |269| 
;* --------------------------------------------------------------------------*
	.align	4
$C$L46:    
	.dwpsn	file "C:/Users/kyle_/Documents/CodeComposerStudio/PIXIE_MSP430/inc/gpio.h",line 265,column 13,is_stmt,isa 0
        MOV.W     #252,r15              ; [] |265| 
        AND.B     &PBOUT_L+0,r15        ; [] |265| 
        OR.B      #4,r15                ; [] |265| 
        MOV.B     r15,&PBOUT_L+0        ; [] |265| 
	.dwpsn	file "C:/Users/kyle_/Documents/CodeComposerStudio/PIXIE_MSP430/inc/gpio.h",line 266,column 13,is_stmt,isa 0
        JMP       $C$L75                ; [] |266| 
                                          ; [] |266| 
;* --------------------------------------------------------------------------*
	.align	4
$C$L47:    
	.dwpsn	file "C:/Users/kyle_/Documents/CodeComposerStudio/PIXIE_MSP430/inc/gpio.h",line 262,column 13,is_stmt,isa 0
        MOV.W     #248,r15              ; [] |262| 
        AND.B     &PBOUT_L+0,r15        ; [] |262| 
        OR.B      #3,r15                ; [] |262| 
        MOV.B     r15,&PBOUT_L+0        ; [] |262| 
	.dwpsn	file "C:/Users/kyle_/Documents/CodeComposerStudio/PIXIE_MSP430/inc/gpio.h",line 263,column 13,is_stmt,isa 0
        JMP       $C$L75                ; [] |263| 
                                          ; [] |263| 
;* --------------------------------------------------------------------------*
	.align	4
$C$L48:    
	.dwpsn	file "C:/Users/kyle_/Documents/CodeComposerStudio/PIXIE_MSP430/inc/gpio.h",line 259,column 13,is_stmt,isa 0
        MOV.W     #248,r15              ; [] |259| 
        AND.B     &PBOUT_L+0,r15        ; [] |259| 
        OR.B      #2,r15                ; [] |259| 
        MOV.B     r15,&PBOUT_L+0        ; [] |259| 
	.dwpsn	file "C:/Users/kyle_/Documents/CodeComposerStudio/PIXIE_MSP430/inc/gpio.h",line 260,column 13,is_stmt,isa 0
        JMP       $C$L75                ; [] |260| 
                                          ; [] |260| 
;* --------------------------------------------------------------------------*
	.align	4
$C$L49:    
	.dwpsn	file "C:/Users/kyle_/Documents/CodeComposerStudio/PIXIE_MSP430/inc/gpio.h",line 256,column 13,is_stmt,isa 0
        MOV.W     #248,r15              ; [] |256| 
        AND.B     &PBOUT_L+0,r15        ; [] |256| 
        OR.B      #1,r15                ; [] |256| 
        MOV.B     r15,&PBOUT_L+0        ; [] |256| 
	.dwpsn	file "C:/Users/kyle_/Documents/CodeComposerStudio/PIXIE_MSP430/inc/gpio.h",line 257,column 13,is_stmt,isa 0
        JMP       $C$L75                ; [] |257| 
                                          ; [] |257| 
;* --------------------------------------------------------------------------*
	.align	4
$C$L50:    
	.dwpsn	file "C:/Users/kyle_/Documents/CodeComposerStudio/PIXIE_MSP430/inc/gpio.h",line 253,column 13,is_stmt,isa 0
        AND.B     #248,&PBOUT_L+0       ; [] |253| 
	.dwpsn	file "C:/Users/kyle_/Documents/CodeComposerStudio/PIXIE_MSP430/inc/gpio.h",line 254,column 13,is_stmt,isa 0
        JMP       $C$L75                ; [] |254| 
                                          ; [] |254| 
;* --------------------------------------------------------------------------*
	.align	4
$C$L51:    
	.dwpsn	file "C:/Users/kyle_/Documents/CodeComposerStudio/PIXIE_MSP430/inc/gpio.h",line 212,column 9,is_stmt,isa 0
        AND.B     #143,&PAOUT_L+0       ; [] |212| 
	.dwpsn	file "C:/Users/kyle_/Documents/CodeComposerStudio/PIXIE_MSP430/inc/gpio.h",line 213,column 9,is_stmt,isa 0
        AND.B     #241,&PAOUT_L+0       ; [] |213| 
	.dwpsn	file "C:/Users/kyle_/Documents/CodeComposerStudio/PIXIE_MSP430/inc/gpio.h",line 214,column 9,is_stmt,isa 0
        AND.B     #248,&PBOUT_L+0       ; [] |214| 
	.dwpsn	file "C:/Users/kyle_/Documents/CodeComposerStudio/PIXIE_MSP430/inc/gpio.h",line 215,column 9,is_stmt,isa 0
        TST.W     r15                   ; [] |215| 
        JEQ       $C$L58                ; [] |215| 
                                          ; [] |215| 
;* --------------------------------------------------------------------------*
        SUB.W     #1,r15                ; [] |215| 
        JEQ       $C$L57                ; [] |215| 
                                          ; [] |215| 
;* --------------------------------------------------------------------------*
        SUB.W     #1,r15                ; [] |215| 
        JEQ       $C$L56                ; [] |215| 
                                          ; [] |215| 
;* --------------------------------------------------------------------------*
        SUB.W     #3,r15                ; [] |215| 
        JEQ       $C$L55                ; [] |215| 
                                          ; [] |215| 
;* --------------------------------------------------------------------------*
        SUB.W     #5,r15                ; [] |215| 
        JEQ       $C$L54                ; [] |215| 
                                          ; [] |215| 
;* --------------------------------------------------------------------------*
        SUB.W     #10,r15               ; [] |215| 
        JEQ       $C$L53                ; [] |215| 
                                          ; [] |215| 
;* --------------------------------------------------------------------------*
        SUB.W     #30,r15               ; [] |215| 
        JEQ       $C$L52                ; [] |215| 
                                          ; [] |215| 
;* --------------------------------------------------------------------------*
	.dwpsn	file "C:/Users/kyle_/Documents/CodeComposerStudio/PIXIE_MSP430/inc/gpio.h",line 240,column 13,is_stmt,isa 0
        OR.B      #56,&PBOUT_L+0        ; [] |240| 
	.dwpsn	file "C:/Users/kyle_/Documents/CodeComposerStudio/PIXIE_MSP430/inc/gpio.h",line 241,column 13,is_stmt,isa 0
        JMP       $C$L75                ; [] |241| 
                                          ; [] |241| 
;* --------------------------------------------------------------------------*
	.align	4
$C$L52:    
	.dwpsn	file "C:/Users/kyle_/Documents/CodeComposerStudio/PIXIE_MSP430/inc/gpio.h",line 236,column 13,is_stmt,isa 0
        MOV.B     &PBOUT_L+0,r15        ; [] |236| 
        BIC.B     #8,r15                ; [] |236| 
        OR.B      #48,r15               ; [] |236| 
        MOV.B     r15,&PBOUT_L+0        ; [] |236| 
	.dwpsn	file "C:/Users/kyle_/Documents/CodeComposerStudio/PIXIE_MSP430/inc/gpio.h",line 237,column 13,is_stmt,isa 0
        JMP       $C$L75                ; [] |237| 
                                          ; [] |237| 
;* --------------------------------------------------------------------------*
	.align	4
$C$L53:    
	.dwpsn	file "C:/Users/kyle_/Documents/CodeComposerStudio/PIXIE_MSP430/inc/gpio.h",line 233,column 13,is_stmt,isa 0
        MOV.W     #239,r15              ; [] |233| 
        AND.B     &PBOUT_L+0,r15        ; [] |233| 
        OR.B      #40,r15               ; [] |233| 
        MOV.B     r15,&PBOUT_L+0        ; [] |233| 
	.dwpsn	file "C:/Users/kyle_/Documents/CodeComposerStudio/PIXIE_MSP430/inc/gpio.h",line 234,column 13,is_stmt,isa 0
        JMP       $C$L75                ; [] |234| 
                                          ; [] |234| 
;* --------------------------------------------------------------------------*
	.align	4
$C$L54:    
	.dwpsn	file "C:/Users/kyle_/Documents/CodeComposerStudio/PIXIE_MSP430/inc/gpio.h",line 230,column 13,is_stmt,isa 0
        MOV.W     #231,r15              ; [] |230| 
        AND.B     &PBOUT_L+0,r15        ; [] |230| 
        OR.B      #32,r15               ; [] |230| 
        MOV.B     r15,&PBOUT_L+0        ; [] |230| 
	.dwpsn	file "C:/Users/kyle_/Documents/CodeComposerStudio/PIXIE_MSP430/inc/gpio.h",line 231,column 13,is_stmt,isa 0
        JMP       $C$L75                ; [] |231| 
                                          ; [] |231| 
;* --------------------------------------------------------------------------*
	.align	4
$C$L55:    
	.dwpsn	file "C:/Users/kyle_/Documents/CodeComposerStudio/PIXIE_MSP430/inc/gpio.h",line 227,column 13,is_stmt,isa 0
        MOV.W     #223,r15              ; [] |227| 
        AND.B     &PBOUT_L+0,r15        ; [] |227| 
        OR.B      #24,r15               ; [] |227| 
        MOV.B     r15,&PBOUT_L+0        ; [] |227| 
	.dwpsn	file "C:/Users/kyle_/Documents/CodeComposerStudio/PIXIE_MSP430/inc/gpio.h",line 228,column 13,is_stmt,isa 0
        JMP       $C$L75                ; [] |228| 
                                          ; [] |228| 
;* --------------------------------------------------------------------------*
	.align	4
$C$L56:    
	.dwpsn	file "C:/Users/kyle_/Documents/CodeComposerStudio/PIXIE_MSP430/inc/gpio.h",line 224,column 13,is_stmt,isa 0
        MOV.W     #199,r15              ; [] |224| 
        AND.B     &PBOUT_L+0,r15        ; [] |224| 
        OR.B      #16,r15               ; [] |224| 
        MOV.B     r15,&PBOUT_L+0        ; [] |224| 
	.dwpsn	file "C:/Users/kyle_/Documents/CodeComposerStudio/PIXIE_MSP430/inc/gpio.h",line 225,column 13,is_stmt,isa 0
        JMP       $C$L75                ; [] |225| 
                                          ; [] |225| 
;* --------------------------------------------------------------------------*
	.align	4
$C$L57:    
	.dwpsn	file "C:/Users/kyle_/Documents/CodeComposerStudio/PIXIE_MSP430/inc/gpio.h",line 221,column 13,is_stmt,isa 0
        MOV.W     #207,r15              ; [] |221| 
        AND.B     &PBOUT_L+0,r15        ; [] |221| 
        OR.B      #8,r15                ; [] |221| 
        MOV.B     r15,&PBOUT_L+0        ; [] |221| 
	.dwpsn	file "C:/Users/kyle_/Documents/CodeComposerStudio/PIXIE_MSP430/inc/gpio.h",line 222,column 13,is_stmt,isa 0
        JMP       $C$L75                ; [] |222| 
                                          ; [] |222| 
;* --------------------------------------------------------------------------*
	.align	4
$C$L58:    
	.dwpsn	file "C:/Users/kyle_/Documents/CodeComposerStudio/PIXIE_MSP430/inc/gpio.h",line 218,column 13,is_stmt,isa 0
        AND.B     #199,&PBOUT_L+0       ; [] |218| 
	.dwpsn	file "C:/Users/kyle_/Documents/CodeComposerStudio/PIXIE_MSP430/inc/gpio.h",line 219,column 13,is_stmt,isa 0
        JMP       $C$L75                ; [] |219| 
                                          ; [] |219| 
;* --------------------------------------------------------------------------*
	.align	4
$C$L59:    
	.dwpsn	file "C:/Users/kyle_/Documents/CodeComposerStudio/PIXIE_MSP430/inc/gpio.h",line 177,column 9,is_stmt,isa 0
        AND.B     #143,&PAOUT_L+0       ; [] |177| 
	.dwpsn	file "C:/Users/kyle_/Documents/CodeComposerStudio/PIXIE_MSP430/inc/gpio.h",line 178,column 9,is_stmt,isa 0
        AND.B     #199,&PBOUT_L+0       ; [] |178| 
	.dwpsn	file "C:/Users/kyle_/Documents/CodeComposerStudio/PIXIE_MSP430/inc/gpio.h",line 179,column 9,is_stmt,isa 0
        AND.B     #248,&PBOUT_L+0       ; [] |179| 
	.dwpsn	file "C:/Users/kyle_/Documents/CodeComposerStudio/PIXIE_MSP430/inc/gpio.h",line 180,column 9,is_stmt,isa 0
        TST.W     r15                   ; [] |180| 
        JEQ       $C$L66                ; [] |180| 
                                          ; [] |180| 
;* --------------------------------------------------------------------------*
        SUB.W     #1,r15                ; [] |180| 
        JEQ       $C$L65                ; [] |180| 
                                          ; [] |180| 
;* --------------------------------------------------------------------------*
        SUB.W     #1,r15                ; [] |180| 
        JEQ       $C$L64                ; [] |180| 
                                          ; [] |180| 
;* --------------------------------------------------------------------------*
        SUB.W     #3,r15                ; [] |180| 
        JEQ       $C$L63                ; [] |180| 
                                          ; [] |180| 
;* --------------------------------------------------------------------------*
        SUB.W     #5,r15                ; [] |180| 
        JEQ       $C$L62                ; [] |180| 
                                          ; [] |180| 
;* --------------------------------------------------------------------------*
        SUB.W     #10,r15               ; [] |180| 
        JEQ       $C$L61                ; [] |180| 
                                          ; [] |180| 
;* --------------------------------------------------------------------------*
        SUB.W     #30,r15               ; [] |180| 
        JEQ       $C$L60                ; [] |180| 
                                          ; [] |180| 
;* --------------------------------------------------------------------------*
	.dwpsn	file "C:/Users/kyle_/Documents/CodeComposerStudio/PIXIE_MSP430/inc/gpio.h",line 205,column 13,is_stmt,isa 0
        OR.B      #14,&PAOUT_L+0        ; [] |205| 
	.dwpsn	file "C:/Users/kyle_/Documents/CodeComposerStudio/PIXIE_MSP430/inc/gpio.h",line 206,column 13,is_stmt,isa 0
        JMP       $C$L75                ; [] |206| 
                                          ; [] |206| 
;* --------------------------------------------------------------------------*
	.align	4
$C$L60:    
	.dwpsn	file "C:/Users/kyle_/Documents/CodeComposerStudio/PIXIE_MSP430/inc/gpio.h",line 201,column 13,is_stmt,isa 0
        MOV.B     &PAOUT_L+0,r15        ; [] |201| 
        BIC.B     #2,r15                ; [] |201| 
        OR.B      #12,r15               ; [] |201| 
        MOV.B     r15,&PAOUT_L+0        ; [] |201| 
	.dwpsn	file "C:/Users/kyle_/Documents/CodeComposerStudio/PIXIE_MSP430/inc/gpio.h",line 202,column 13,is_stmt,isa 0
        JMP       $C$L75                ; [] |202| 
                                          ; [] |202| 
;* --------------------------------------------------------------------------*
	.align	4
$C$L61:    
	.dwpsn	file "C:/Users/kyle_/Documents/CodeComposerStudio/PIXIE_MSP430/inc/gpio.h",line 198,column 13,is_stmt,isa 0
        MOV.B     &PAOUT_L+0,r15        ; [] |198| 
        BIC.B     #4,r15                ; [] |198| 
        OR.B      #10,r15               ; [] |198| 
        MOV.B     r15,&PAOUT_L+0        ; [] |198| 
	.dwpsn	file "C:/Users/kyle_/Documents/CodeComposerStudio/PIXIE_MSP430/inc/gpio.h",line 199,column 13,is_stmt,isa 0
        JMP       $C$L75                ; [] |199| 
                                          ; [] |199| 
;* --------------------------------------------------------------------------*
	.align	4
$C$L62:    
	.dwpsn	file "C:/Users/kyle_/Documents/CodeComposerStudio/PIXIE_MSP430/inc/gpio.h",line 195,column 13,is_stmt,isa 0
        MOV.W     #249,r15              ; [] |195| 
        AND.B     &PAOUT_L+0,r15        ; [] |195| 
        OR.B      #8,r15                ; [] |195| 
        MOV.B     r15,&PAOUT_L+0        ; [] |195| 
	.dwpsn	file "C:/Users/kyle_/Documents/CodeComposerStudio/PIXIE_MSP430/inc/gpio.h",line 196,column 13,is_stmt,isa 0
        JMP       $C$L75                ; [] |196| 
                                          ; [] |196| 
;* --------------------------------------------------------------------------*
	.align	4
$C$L63:    
	.dwpsn	file "C:/Users/kyle_/Documents/CodeComposerStudio/PIXIE_MSP430/inc/gpio.h",line 192,column 13,is_stmt,isa 0
        MOV.B     &PAOUT_L+0,r15        ; [] |192| 
        BIC.B     #8,r15                ; [] |192| 
        OR.B      #6,r15                ; [] |192| 
        MOV.B     r15,&PAOUT_L+0        ; [] |192| 
	.dwpsn	file "C:/Users/kyle_/Documents/CodeComposerStudio/PIXIE_MSP430/inc/gpio.h",line 193,column 13,is_stmt,isa 0
        JMP       $C$L75                ; [] |193| 
                                          ; [] |193| 
;* --------------------------------------------------------------------------*
	.align	4
$C$L64:    
	.dwpsn	file "C:/Users/kyle_/Documents/CodeComposerStudio/PIXIE_MSP430/inc/gpio.h",line 189,column 13,is_stmt,isa 0
        MOV.W     #241,r15              ; [] |189| 
        AND.B     &PAOUT_L+0,r15        ; [] |189| 
        OR.B      #4,r15                ; [] |189| 
        MOV.B     r15,&PAOUT_L+0        ; [] |189| 
	.dwpsn	file "C:/Users/kyle_/Documents/CodeComposerStudio/PIXIE_MSP430/inc/gpio.h",line 190,column 13,is_stmt,isa 0
        JMP       $C$L75                ; [] |190| 
                                          ; [] |190| 
;* --------------------------------------------------------------------------*
	.align	4
$C$L65:    
	.dwpsn	file "C:/Users/kyle_/Documents/CodeComposerStudio/PIXIE_MSP430/inc/gpio.h",line 186,column 13,is_stmt,isa 0
        MOV.W     #243,r15              ; [] |186| 
        AND.B     &PAOUT_L+0,r15        ; [] |186| 
        OR.B      #2,r15                ; [] |186| 
        MOV.B     r15,&PAOUT_L+0        ; [] |186| 
	.dwpsn	file "C:/Users/kyle_/Documents/CodeComposerStudio/PIXIE_MSP430/inc/gpio.h",line 187,column 13,is_stmt,isa 0
        JMP       $C$L75                ; [] |187| 
                                          ; [] |187| 
;* --------------------------------------------------------------------------*
	.align	4
$C$L66:    
	.dwpsn	file "C:/Users/kyle_/Documents/CodeComposerStudio/PIXIE_MSP430/inc/gpio.h",line 183,column 13,is_stmt,isa 0
        AND.B     #241,&PAOUT_L+0       ; [] |183| 
	.dwpsn	file "C:/Users/kyle_/Documents/CodeComposerStudio/PIXIE_MSP430/inc/gpio.h",line 184,column 13,is_stmt,isa 0
        JMP       $C$L75                ; [] |184| 
                                          ; [] |184| 
;* --------------------------------------------------------------------------*
	.align	4
$C$L67:    
	.dwpsn	file "C:/Users/kyle_/Documents/CodeComposerStudio/PIXIE_MSP430/inc/gpio.h",line 142,column 9,is_stmt,isa 0
        AND.B     #241,&PAOUT_L+0       ; [] |142| 
	.dwpsn	file "C:/Users/kyle_/Documents/CodeComposerStudio/PIXIE_MSP430/inc/gpio.h",line 143,column 9,is_stmt,isa 0
        AND.B     #199,&PBOUT_L+0       ; [] |143| 
	.dwpsn	file "C:/Users/kyle_/Documents/CodeComposerStudio/PIXIE_MSP430/inc/gpio.h",line 144,column 9,is_stmt,isa 0
        AND.B     #248,&PBOUT_L+0       ; [] |144| 
	.dwpsn	file "C:/Users/kyle_/Documents/CodeComposerStudio/PIXIE_MSP430/inc/gpio.h",line 145,column 9,is_stmt,isa 0
        TST.W     r15                   ; [] |145| 
        JEQ       $C$L74                ; [] |145| 
                                          ; [] |145| 
;* --------------------------------------------------------------------------*
        SUB.W     #1,r15                ; [] |145| 
        JEQ       $C$L73                ; [] |145| 
                                          ; [] |145| 
;* --------------------------------------------------------------------------*
        SUB.W     #1,r15                ; [] |145| 
        JEQ       $C$L72                ; [] |145| 
                                          ; [] |145| 
;* --------------------------------------------------------------------------*
        SUB.W     #3,r15                ; [] |145| 
        JEQ       $C$L71                ; [] |145| 
                                          ; [] |145| 
;* --------------------------------------------------------------------------*
        SUB.W     #5,r15                ; [] |145| 
        JEQ       $C$L70                ; [] |145| 
                                          ; [] |145| 
;* --------------------------------------------------------------------------*
        SUB.W     #10,r15               ; [] |145| 
        JEQ       $C$L69                ; [] |145| 
                                          ; [] |145| 
;* --------------------------------------------------------------------------*
        SUB.W     #30,r15               ; [] |145| 
        JEQ       $C$L68                ; [] |145| 
                                          ; [] |145| 
;* --------------------------------------------------------------------------*
	.dwpsn	file "C:/Users/kyle_/Documents/CodeComposerStudio/PIXIE_MSP430/inc/gpio.h",line 170,column 13,is_stmt,isa 0
        OR.B      #112,&PAOUT_L+0       ; [] |170| 
	.dwpsn	file "C:/Users/kyle_/Documents/CodeComposerStudio/PIXIE_MSP430/inc/gpio.h",line 171,column 13,is_stmt,isa 0
        JMP       $C$L75                ; [] |171| 
                                          ; [] |171| 
;* --------------------------------------------------------------------------*
	.align	4
$C$L68:    
	.dwpsn	file "C:/Users/kyle_/Documents/CodeComposerStudio/PIXIE_MSP430/inc/gpio.h",line 166,column 13,is_stmt,isa 0
        MOV.W     #239,r15              ; [] |166| 
        AND.B     &PAOUT_L+0,r15        ; [] |166| 
        OR.B      #96,r15               ; [] |166| 
        MOV.B     r15,&PAOUT_L+0        ; [] |166| 
	.dwpsn	file "C:/Users/kyle_/Documents/CodeComposerStudio/PIXIE_MSP430/inc/gpio.h",line 167,column 13,is_stmt,isa 0
        JMP       $C$L75                ; [] |167| 
                                          ; [] |167| 
;* --------------------------------------------------------------------------*
	.align	4
$C$L69:    
	.dwpsn	file "C:/Users/kyle_/Documents/CodeComposerStudio/PIXIE_MSP430/inc/gpio.h",line 163,column 13,is_stmt,isa 0
        MOV.W     #223,r15              ; [] |163| 
        AND.B     &PAOUT_L+0,r15        ; [] |163| 
        OR.B      #80,r15               ; [] |163| 
        MOV.B     r15,&PAOUT_L+0        ; [] |163| 
	.dwpsn	file "C:/Users/kyle_/Documents/CodeComposerStudio/PIXIE_MSP430/inc/gpio.h",line 164,column 13,is_stmt,isa 0
        JMP       $C$L75                ; [] |164| 
                                          ; [] |164| 
;* --------------------------------------------------------------------------*
	.align	4
$C$L70:    
	.dwpsn	file "C:/Users/kyle_/Documents/CodeComposerStudio/PIXIE_MSP430/inc/gpio.h",line 160,column 13,is_stmt,isa 0
        MOV.W     #207,r15              ; [] |160| 
        AND.B     &PAOUT_L+0,r15        ; [] |160| 
        OR.B      #64,r15               ; [] |160| 
        MOV.B     r15,&PAOUT_L+0        ; [] |160| 
	.dwpsn	file "C:/Users/kyle_/Documents/CodeComposerStudio/PIXIE_MSP430/inc/gpio.h",line 161,column 13,is_stmt,isa 0
        JMP       $C$L75                ; [] |161| 
                                          ; [] |161| 
;* --------------------------------------------------------------------------*
	.align	4
$C$L71:    
	.dwpsn	file "C:/Users/kyle_/Documents/CodeComposerStudio/PIXIE_MSP430/inc/gpio.h",line 157,column 13,is_stmt,isa 0
        MOV.W     #191,r15              ; [] |157| 
        AND.B     &PAOUT_L+0,r15        ; [] |157| 
        OR.B      #48,r15               ; [] |157| 
        MOV.B     r15,&PAOUT_L+0        ; [] |157| 
	.dwpsn	file "C:/Users/kyle_/Documents/CodeComposerStudio/PIXIE_MSP430/inc/gpio.h",line 158,column 13,is_stmt,isa 0
        JMP       $C$L75                ; [] |158| 
                                          ; [] |158| 
;* --------------------------------------------------------------------------*
	.align	4
$C$L72:    
	.dwpsn	file "C:/Users/kyle_/Documents/CodeComposerStudio/PIXIE_MSP430/inc/gpio.h",line 154,column 13,is_stmt,isa 0
        MOV.W     #143,r15              ; [] |154| 
        AND.B     &PAOUT_L+0,r15        ; [] |154| 
        OR.B      #32,r15               ; [] |154| 
        MOV.B     r15,&PAOUT_L+0        ; [] |154| 
	.dwpsn	file "C:/Users/kyle_/Documents/CodeComposerStudio/PIXIE_MSP430/inc/gpio.h",line 155,column 13,is_stmt,isa 0
        JMP       $C$L75                ; [] |155| 
                                          ; [] |155| 
;* --------------------------------------------------------------------------*
	.align	4
$C$L73:    
	.dwpsn	file "C:/Users/kyle_/Documents/CodeComposerStudio/PIXIE_MSP430/inc/gpio.h",line 151,column 13,is_stmt,isa 0
        MOV.W     #159,r15              ; [] |151| 
        AND.B     &PAOUT_L+0,r15        ; [] |151| 
        OR.B      #16,r15               ; [] |151| 
        MOV.B     r15,&PAOUT_L+0        ; [] |151| 
	.dwpsn	file "C:/Users/kyle_/Documents/CodeComposerStudio/PIXIE_MSP430/inc/gpio.h",line 152,column 13,is_stmt,isa 0
        JMP       $C$L75                ; [] |152| 
                                          ; [] |152| 
;* --------------------------------------------------------------------------*
	.align	4
$C$L74:    
	.dwpsn	file "C:/Users/kyle_/Documents/CodeComposerStudio/PIXIE_MSP430/inc/gpio.h",line 148,column 13,is_stmt,isa 0
        AND.B     #143,&PAOUT_L+0       ; [] |148| 
;* --------------------------------------------------------------------------*
$C$L75:    
	.dwpsn	file "../main.c",line 483,column 13,is_stmt,isa 0
        MOV.W     6(r14),r13            ; [] |483| 
$C$DW$208	.dwtag  DW_TAG_TI_branch
	.dwattr $C$DW$208, DW_AT_low_pc(0x00)
	.dwattr $C$DW$208, DW_AT_name("ADC_SetADCChannel")
	.dwattr $C$DW$208, DW_AT_TI_call

        CALLA     #ADC_SetADCChannel    ; [] |483| 
                                          ; [] |483| 
	.dwpsn	file "../main.c",line 486,column 13,is_stmt,isa 0
$C$DW$209	.dwtag  DW_TAG_TI_branch
	.dwattr $C$DW$209, DW_AT_low_pc(0x00)
	.dwattr $C$DW$209, DW_AT_name("DMA_SetDMA0")
	.dwattr $C$DW$209, DW_AT_TI_call

        CALLA     #DMA_SetDMA0          ; [] |486| 
                                          ; [] |486| 
	.dwpsn	file "../main.c",line 489,column 13,is_stmt,isa 0
$C$DW$210	.dwtag  DW_TAG_TI_branch
	.dwattr $C$DW$210, DW_AT_low_pc(0x00)
	.dwattr $C$DW$210, DW_AT_name("DMA_SetDMA1")
	.dwattr $C$DW$210, DW_AT_TI_call

        CALLA     #DMA_SetDMA1          ; [] |489| 
                                          ; [] |489| 
	.dwpsn	file "../main.c",line 492,column 13,is_stmt,isa 0
$C$DW$211	.dwtag  DW_TAG_TI_branch
	.dwattr $C$DW$211, DW_AT_low_pc(0x00)
	.dwattr $C$DW$211, DW_AT_name("TIMER_StartTimer0AND1")
	.dwattr $C$DW$211, DW_AT_TI_call

        CALLA     #TIMER_StartTimer0AND1 ; [] |492| 
                                          ; [] |492| 
        JMP       $C$L78                ; [] 
                                          ; [] 
;* --------------------------------------------------------------------------*
	.align	4
$C$L76:    
	.dwpsn	file "../main.c",line 430,column 13,is_stmt,isa 0
        MOV.W     #0,&CMD_Command+0     ; [] |430| 
	.dwpsn	file "../main.c",line 431,column 13,is_stmt,isa 0
        MOV.W     #3,&CMD_Command+2     ; [] |431| 
	.dwpsn	file "../main.c",line 432,column 13,is_stmt,isa 0
        JMP       $C$L78                ; [] |432| 
                                          ; [] |432| 
;* --------------------------------------------------------------------------*
	.align	4
$C$L77:    
	.dwpsn	file "../main.c",line 548,column 9,is_stmt,isa 0
        MOV.W     #0,&CMD_Command+0     ; [] |548| 
	.dwpsn	file "../main.c",line 549,column 9,is_stmt,isa 0
        MOV.W     #4,&CMD_Command+2     ; [] |549| 
;* --------------------------------------------------------------------------*
$C$L78:    
        POPM.A    #4,r10                ; [] 
	.dwcfi	restore_reg, 7
	.dwcfi	restore_reg, 8
	.dwcfi	restore_reg, 9
	.dwcfi	restore_reg, 10
	.dwcfi	cfa_offset, 4
$C$DW$212	.dwtag  DW_TAG_TI_branch
	.dwattr $C$DW$212, DW_AT_low_pc(0x00)
	.dwattr $C$DW$212, DW_AT_TI_return

        RETA      ; [] 
        ; [] 
	.dwattr $C$DW$100, DW_AT_TI_end_file("../main.c")
	.dwattr $C$DW$100, DW_AT_TI_end_line(0x228)
	.dwattr $C$DW$100, DW_AT_TI_end_column(0x01)
	.dwendentry
	.dwendtag $C$DW$100

	.sect	".text:MAIN_ExecuteSAVE"
	.align	4
	.clink
	.global	MAIN_ExecuteSAVE

$C$DW$213	.dwtag  DW_TAG_subprogram
	.dwattr $C$DW$213, DW_AT_name("MAIN_ExecuteSAVE")
	.dwattr $C$DW$213, DW_AT_low_pc(MAIN_ExecuteSAVE)
	.dwattr $C$DW$213, DW_AT_high_pc(0x00)
	.dwattr $C$DW$213, DW_AT_TI_symbol_name("MAIN_ExecuteSAVE")
	.dwattr $C$DW$213, DW_AT_external
	.dwattr $C$DW$213, DW_AT_TI_begin_file("../main.c")
	.dwattr $C$DW$213, DW_AT_TI_begin_line(0x2e3)
	.dwattr $C$DW$213, DW_AT_TI_begin_column(0x06)
	.dwattr $C$DW$213, DW_AT_decl_file("../main.c")
	.dwattr $C$DW$213, DW_AT_decl_line(0x2e3)
	.dwattr $C$DW$213, DW_AT_decl_column(0x06)
	.dwattr $C$DW$213, DW_AT_TI_max_frame_size(0x08)
	.dwpsn	file "../main.c",line 740,column 1,is_stmt,address MAIN_ExecuteSAVE,isa 0

	.dwfde $C$DW$CIE, MAIN_ExecuteSAVE

;*****************************************************************************
;* FUNCTION NAME: MAIN_ExecuteSAVE                                           *
;*                                                                           *
;*   Regs Modified     : SP,SR,r11,r12,r13,r14,r15                           *
;*   Regs Used         : SP,SR,r11,r12,r13,r14,r15                           *
;*   Local Frame Size  : 4 Args + 0 Auto + 0 Save = 4 byte                   *
;*****************************************************************************
MAIN_ExecuteSAVE:
;* --------------------------------------------------------------------------*
	.dwcfi	cfa_offset, 4
	.dwcfi	save_reg_to_mem, 16, -4
        SUBA      #4,SP                 ; [] 
	.dwcfi	cfa_offset, 8
	.dwpsn	file "../main.c",line 743,column 5,is_stmt,isa 0
$C$DW$214	.dwtag  DW_TAG_TI_branch
	.dwattr $C$DW$214, DW_AT_low_pc(0x00)
	.dwattr $C$DW$214, DW_AT_name("STATE_IsRunning")
	.dwattr $C$DW$214, DW_AT_TI_call

        CALLA     #STATE_IsRunning      ; [] |743| 
                                          ; [] |743| 
        TST.W     r12                   ; [] |743| 
        JNE       $C$L79                ; [] |743| 
                                          ; [] |743| 
;* --------------------------------------------------------------------------*
	.dwpsn	file "../main.c",line 750,column 9,is_stmt,isa 0
$C$DW$215	.dwtag  DW_TAG_TI_branch
	.dwattr $C$DW$215, DW_AT_low_pc(0x00)
	.dwattr $C$DW$215, DW_AT_name("BAK_CommitBatteryBackup")
	.dwattr $C$DW$215, DW_AT_TI_call

        CALLA     #BAK_CommitBatteryBackup ; [] |750| 
                                          ; [] |750| 
	.dwpsn	file "../main.c",line 751,column 9,is_stmt,isa 0
        MOVX.A    #$C$FSL1+0,0(SP)      ; [] |751| 
        MOVX.A    #UART1_Output+0,r12   ; [] |751| 
$C$DW$216	.dwtag  DW_TAG_TI_branch
	.dwattr $C$DW$216, DW_AT_low_pc(0x00)
	.dwattr $C$DW$216, DW_AT_name("sprintf")
	.dwattr $C$DW$216, DW_AT_TI_call

        CALLA     #sprintf              ; [] |751| 
                                          ; [] |751| 
$C$DW$217	.dwtag  DW_TAG_TI_branch
	.dwattr $C$DW$217, DW_AT_low_pc(0x00)
	.dwattr $C$DW$217, DW_AT_name("UART1_puts")
	.dwattr $C$DW$217, DW_AT_TI_call

        CALLA     #UART1_puts           ; [] |751| 
                                          ; [] |751| 
        JMP       $C$L80                ; [] |751| 
                                          ; [] |751| 
;* --------------------------------------------------------------------------*
	.align	4
$C$L79:    
	.dwpsn	file "../main.c",line 745,column 9,is_stmt,isa 0
        MOV.W     #0,&CMD_Command+0     ; [] |745| 
	.dwpsn	file "../main.c",line 746,column 9,is_stmt,isa 0
        MOV.W     #4,&CMD_Command+2     ; [] |746| 
;* --------------------------------------------------------------------------*
$C$L80:    
        ADDA      #4,SP                 ; [] 
	.dwcfi	cfa_offset, 4
$C$DW$218	.dwtag  DW_TAG_TI_branch
	.dwattr $C$DW$218, DW_AT_low_pc(0x00)
	.dwattr $C$DW$218, DW_AT_TI_return

        RETA      ; [] 
        ; [] 
	.dwattr $C$DW$213, DW_AT_TI_end_file("../main.c")
	.dwattr $C$DW$213, DW_AT_TI_end_line(0x2f3)
	.dwattr $C$DW$213, DW_AT_TI_end_column(0x01)
	.dwendentry
	.dwendtag $C$DW$213

	.sect	".text:MAIN_ExecuteGPGAIN"
	.align	4
	.clink
	.global	MAIN_ExecuteGPGAIN

$C$DW$219	.dwtag  DW_TAG_subprogram
	.dwattr $C$DW$219, DW_AT_name("MAIN_ExecuteGPGAIN")
	.dwattr $C$DW$219, DW_AT_low_pc(MAIN_ExecuteGPGAIN)
	.dwattr $C$DW$219, DW_AT_high_pc(0x00)
	.dwattr $C$DW$219, DW_AT_TI_symbol_name("MAIN_ExecuteGPGAIN")
	.dwattr $C$DW$219, DW_AT_external
	.dwattr $C$DW$219, DW_AT_TI_begin_file("../main.c")
	.dwattr $C$DW$219, DW_AT_TI_begin_line(0x45b)
	.dwattr $C$DW$219, DW_AT_TI_begin_column(0x06)
	.dwattr $C$DW$219, DW_AT_decl_file("../main.c")
	.dwattr $C$DW$219, DW_AT_decl_line(0x45b)
	.dwattr $C$DW$219, DW_AT_decl_column(0x06)
	.dwattr $C$DW$219, DW_AT_TI_max_frame_size(0x0c)
	.dwpsn	file "../main.c",line 1116,column 1,is_stmt,address MAIN_ExecuteGPGAIN,isa 0

	.dwfde $C$DW$CIE, MAIN_ExecuteGPGAIN

;*****************************************************************************
;* FUNCTION NAME: MAIN_ExecuteGPGAIN                                         *
;*                                                                           *
;*   Regs Modified     : SP,SR,r11,r12,r13,r14,r15                           *
;*   Regs Used         : SP,SR,r11,r12,r13,r14,r15                           *
;*   Local Frame Size  : 8 Args + 0 Auto + 0 Save = 8 byte                   *
;*****************************************************************************
MAIN_ExecuteGPGAIN:
;* --------------------------------------------------------------------------*
	.dwcfi	cfa_offset, 4
	.dwcfi	save_reg_to_mem, 16, -4
        SUBA      #8,SP                 ; [] 
	.dwcfi	cfa_offset, 12
	.dwpsn	file "../main.c",line 1117,column 5,is_stmt,isa 0
$C$DW$220	.dwtag  DW_TAG_TI_branch
	.dwattr $C$DW$220, DW_AT_low_pc(0x00)
	.dwattr $C$DW$220, DW_AT_name("STATE_IsIdle")
	.dwattr $C$DW$220, DW_AT_TI_call

        CALLA     #STATE_IsIdle         ; [] |1117| 
                                          ; [] |1117| 
        TST.W     r12                   ; [] |1117| 
        JEQ       $C$L82                ; [] |1117| 
                                          ; [] |1117| 
;* --------------------------------------------------------------------------*
	.dwpsn	file "../main.c",line 1119,column 9,is_stmt,isa 0
        MOV.W     &CMD_Command+2,r15    ; [] |1119| 
        SUB.W     #1,r15                ; [] |1119| 
        CMP.W     #4,r15                ; [] |1119| 
        JHS       $C$L81                ; [] |1119| 
                                          ; [] |1119| 
;* --------------------------------------------------------------------------*
	.dwpsn	file "../main.c",line 1125,column 9,is_stmt,isa 0
        MOVX.A    #$C$FSL2+0,0(SP)      ; [] |1125| 
        MOV.W     &CMD_Command+2,4(SP)  ; [] |1125| 
        MOV.W     &CMD_Command+2,r15    ; [] |1125| 
        RLAM.W    #2,r15                ; [] |1125| 
        MOVX.A    CH_Channels+0(r15),r15 ; [] |1125| 
        MOV.W     4(r15),6(SP)          ; [] |1125| 
        MOVX.A    #UART1_Output+0,r12   ; [] |1125| 
$C$DW$221	.dwtag  DW_TAG_TI_branch
	.dwattr $C$DW$221, DW_AT_low_pc(0x00)
	.dwattr $C$DW$221, DW_AT_name("sprintf")
	.dwattr $C$DW$221, DW_AT_TI_call

        CALLA     #sprintf              ; [] |1125| 
                                          ; [] |1125| 
$C$DW$222	.dwtag  DW_TAG_TI_branch
	.dwattr $C$DW$222, DW_AT_low_pc(0x00)
	.dwattr $C$DW$222, DW_AT_name("UART1_puts")
	.dwattr $C$DW$222, DW_AT_TI_call

        CALLA     #UART1_puts           ; [] |1125| 
                                          ; [] |1125| 
        JMP       $C$L83                ; [] 
                                          ; [] 
;* --------------------------------------------------------------------------*
	.align	4
$C$L81:    
	.dwpsn	file "../main.c",line 1121,column 13,is_stmt,isa 0
        MOV.W     #0,&CMD_Command+0     ; [] |1121| 
	.dwpsn	file "../main.c",line 1122,column 13,is_stmt,isa 0
        MOV.W     #3,&CMD_Command+2     ; [] |1122| 
	.dwpsn	file "../main.c",line 1123,column 13,is_stmt,isa 0
        JMP       $C$L83                ; [] |1123| 
                                          ; [] |1123| 
;* --------------------------------------------------------------------------*
	.align	4
$C$L82:    
	.dwpsn	file "../main.c",line 1129,column 9,is_stmt,isa 0
        MOV.W     #0,&CMD_Command+0     ; [] |1129| 
	.dwpsn	file "../main.c",line 1130,column 9,is_stmt,isa 0
        MOV.W     #4,&CMD_Command+2     ; [] |1130| 
;* --------------------------------------------------------------------------*
$C$L83:    
        ADDA      #8,SP                 ; [] 
	.dwcfi	cfa_offset, 4
$C$DW$223	.dwtag  DW_TAG_TI_branch
	.dwattr $C$DW$223, DW_AT_low_pc(0x00)
	.dwattr $C$DW$223, DW_AT_TI_return

        RETA      ; [] 
        ; [] 
	.dwattr $C$DW$219, DW_AT_TI_end_file("../main.c")
	.dwattr $C$DW$219, DW_AT_TI_end_line(0x46c)
	.dwattr $C$DW$219, DW_AT_TI_end_column(0x01)
	.dwendentry
	.dwendtag $C$DW$219

	.sect	".text:MAIN_ExecuteSPGAIN"
	.align	4
	.clink
	.global	MAIN_ExecuteSPGAIN

$C$DW$224	.dwtag  DW_TAG_subprogram
	.dwattr $C$DW$224, DW_AT_name("MAIN_ExecuteSPGAIN")
	.dwattr $C$DW$224, DW_AT_low_pc(MAIN_ExecuteSPGAIN)
	.dwattr $C$DW$224, DW_AT_high_pc(0x00)
	.dwattr $C$DW$224, DW_AT_TI_symbol_name("MAIN_ExecuteSPGAIN")
	.dwattr $C$DW$224, DW_AT_external
	.dwattr $C$DW$224, DW_AT_TI_begin_file("../main.c")
	.dwattr $C$DW$224, DW_AT_TI_begin_line(0x436)
	.dwattr $C$DW$224, DW_AT_TI_begin_column(0x06)
	.dwattr $C$DW$224, DW_AT_decl_file("../main.c")
	.dwattr $C$DW$224, DW_AT_decl_line(0x436)
	.dwattr $C$DW$224, DW_AT_decl_column(0x06)
	.dwattr $C$DW$224, DW_AT_TI_max_frame_size(0x0c)
	.dwpsn	file "../main.c",line 1079,column 1,is_stmt,address MAIN_ExecuteSPGAIN,isa 0

	.dwfde $C$DW$CIE, MAIN_ExecuteSPGAIN

;*****************************************************************************
;* FUNCTION NAME: MAIN_ExecuteSPGAIN                                         *
;*                                                                           *
;*   Regs Modified     : SP,SR,r11,r12,r13,r14,r15                           *
;*   Regs Used         : SP,SR,r11,r12,r13,r14,r15                           *
;*   Local Frame Size  : 8 Args + 0 Auto + 0 Save = 8 byte                   *
;*****************************************************************************
MAIN_ExecuteSPGAIN:
;* --------------------------------------------------------------------------*
;* r14   assigned to $O$v1
;* r15   assigned to ret
$C$DW$225	.dwtag  DW_TAG_variable
	.dwattr $C$DW$225, DW_AT_name("ret")
	.dwattr $C$DW$225, DW_AT_TI_symbol_name("ret")
	.dwattr $C$DW$225, DW_AT_type(*$C$DW$T$23)
	.dwattr $C$DW$225, DW_AT_location[DW_OP_reg15]

;* r15   assigned to g
$C$DW$226	.dwtag  DW_TAG_variable
	.dwattr $C$DW$226, DW_AT_name("g")
	.dwattr $C$DW$226, DW_AT_TI_symbol_name("g")
	.dwattr $C$DW$226, DW_AT_type(*$C$DW$T$23)
	.dwattr $C$DW$226, DW_AT_location[DW_OP_reg15]

	.dwcfi	cfa_offset, 4
	.dwcfi	save_reg_to_mem, 16, -4
        SUBA      #8,SP                 ; [] 
	.dwcfi	cfa_offset, 12
	.dwpsn	file "../main.c",line 1081,column 5,is_stmt,isa 0
$C$DW$227	.dwtag  DW_TAG_TI_branch
	.dwattr $C$DW$227, DW_AT_low_pc(0x00)
	.dwattr $C$DW$227, DW_AT_name("STATE_IsIdle")
	.dwattr $C$DW$227, DW_AT_TI_call

        CALLA     #STATE_IsIdle         ; [] |1081| 
                                          ; [] |1081| 
        TST.W     r12                   ; [] |1081| 
        JEQ       $C$L117               ; [] |1081| 
                                          ; [] |1081| 
;* --------------------------------------------------------------------------*
	.dwpsn	file "C:/Users/kyle_/Documents/CodeComposerStudio/PIXIE_MSP430/inc/gpio.h",line 138,column 1,is_stmt,isa 0
        MOV.W     &CMD_Command+2,r14    ; [] |138| 
        MOV.W     &CMD_Command+4,r15    ; [] |138| 
	.dwpsn	file "C:/Users/kyle_/Documents/CodeComposerStudio/PIXIE_MSP430/inc/gpio.h",line 139,column 5,is_stmt,isa 0
        CMP.W     #1,r14                ; [] |139| 
        JEQ       $C$L108               ; [] |139| 
                                          ; [] |139| 
;* --------------------------------------------------------------------------*
	.dwpsn	file "C:/Users/kyle_/Documents/CodeComposerStudio/PIXIE_MSP430/inc/gpio.h",line 174,column 10,is_stmt,isa 0
        CMP.W     #2,r14                ; [] |174| 
        JEQ       $C$L100               ; [] |174| 
                                          ; [] |174| 
;* --------------------------------------------------------------------------*
	.dwpsn	file "C:/Users/kyle_/Documents/CodeComposerStudio/PIXIE_MSP430/inc/gpio.h",line 209,column 10,is_stmt,isa 0
        CMP.W     #3,r14                ; [] |209| 
        JEQ       $C$L92                ; [] |209| 
                                          ; [] |209| 
;* --------------------------------------------------------------------------*
	.dwpsn	file "C:/Users/kyle_/Documents/CodeComposerStudio/PIXIE_MSP430/inc/gpio.h",line 244,column 10,is_stmt,isa 0
        CMP.W     #4,r14                ; [] |244| 
        JNE       $C$L91                ; [] |244| 
                                          ; [] |244| 
;* --------------------------------------------------------------------------*
	.dwpsn	file "C:/Users/kyle_/Documents/CodeComposerStudio/PIXIE_MSP430/inc/gpio.h",line 247,column 9,is_stmt,isa 0
        AND.B     #143,&PAOUT_L+0       ; [] |247| 
	.dwpsn	file "C:/Users/kyle_/Documents/CodeComposerStudio/PIXIE_MSP430/inc/gpio.h",line 248,column 9,is_stmt,isa 0
        AND.B     #241,&PAOUT_L+0       ; [] |248| 
	.dwpsn	file "C:/Users/kyle_/Documents/CodeComposerStudio/PIXIE_MSP430/inc/gpio.h",line 249,column 9,is_stmt,isa 0
        AND.B     #199,&PBOUT_L+0       ; [] |249| 
	.dwpsn	file "C:/Users/kyle_/Documents/CodeComposerStudio/PIXIE_MSP430/inc/gpio.h",line 250,column 9,is_stmt,isa 0
        TST.W     r15                   ; [] |250| 
        JEQ       $C$L90                ; [] |250| 
                                          ; [] |250| 
;* --------------------------------------------------------------------------*
        SUB.W     #1,r15                ; [] |250| 
        JEQ       $C$L89                ; [] |250| 
                                          ; [] |250| 
;* --------------------------------------------------------------------------*
        SUB.W     #1,r15                ; [] |250| 
        JEQ       $C$L88                ; [] |250| 
                                          ; [] |250| 
;* --------------------------------------------------------------------------*
        SUB.W     #3,r15                ; [] |250| 
        JEQ       $C$L87                ; [] |250| 
                                          ; [] |250| 
;* --------------------------------------------------------------------------*
        SUB.W     #5,r15                ; [] |250| 
        JEQ       $C$L86                ; [] |250| 
                                          ; [] |250| 
;* --------------------------------------------------------------------------*
        SUB.W     #10,r15               ; [] |250| 
        JEQ       $C$L85                ; [] |250| 
                                          ; [] |250| 
;* --------------------------------------------------------------------------*
        SUB.W     #30,r15               ; [] |250| 
        JEQ       $C$L84                ; [] |250| 
                                          ; [] |250| 
;* --------------------------------------------------------------------------*
	.dwpsn	file "C:/Users/kyle_/Documents/CodeComposerStudio/PIXIE_MSP430/inc/gpio.h",line 275,column 13,is_stmt,isa 0
        OR.B      #7,&PBOUT_L+0         ; [] |275| 
	.dwpsn	file "C:/Users/kyle_/Documents/CodeComposerStudio/PIXIE_MSP430/inc/gpio.h",line 276,column 13,is_stmt,isa 0
        MOV.W     #100,r15              ; [] |276| 
	.dwpsn	file "../main.c",line 1083,column 9,is_stmt,isa 0
        JMP       $C$L116               ; [] |1083| 
                                          ; [] |1083| 
;* --------------------------------------------------------------------------*
	.align	4
$C$L84:    
	.dwpsn	file "C:/Users/kyle_/Documents/CodeComposerStudio/PIXIE_MSP430/inc/gpio.h",line 271,column 13,is_stmt,isa 0
        MOV.B     &PBOUT_L+0,r15        ; [] |271| 
        BIC.B     #1,r15                ; [] |271| 
        OR.B      #6,r15                ; [] |271| 
        MOV.B     r15,&PBOUT_L+0        ; [] |271| 
	.dwpsn	file "C:/Users/kyle_/Documents/CodeComposerStudio/PIXIE_MSP430/inc/gpio.h",line 272,column 13,is_stmt,isa 0
        MOV.W     #50,r15               ; [] |272| 
	.dwpsn	file "../main.c",line 1083,column 9,is_stmt,isa 0
        JMP       $C$L116               ; [] |1083| 
                                          ; [] |1083| 
;* --------------------------------------------------------------------------*
	.align	4
$C$L85:    
	.dwpsn	file "C:/Users/kyle_/Documents/CodeComposerStudio/PIXIE_MSP430/inc/gpio.h",line 268,column 13,is_stmt,isa 0
        MOV.W     #252,r15              ; [] |268| 
        AND.B     &PBOUT_L+0,r15        ; [] |268| 
        OR.B      #5,r15                ; [] |268| 
        MOV.B     r15,&PBOUT_L+0        ; [] |268| 
	.dwpsn	file "C:/Users/kyle_/Documents/CodeComposerStudio/PIXIE_MSP430/inc/gpio.h",line 269,column 13,is_stmt,isa 0
        MOV.W     #20,r15               ; [] |269| 
	.dwpsn	file "../main.c",line 1083,column 9,is_stmt,isa 0
        JMP       $C$L116               ; [] |1083| 
                                          ; [] |1083| 
;* --------------------------------------------------------------------------*
	.align	4
$C$L86:    
	.dwpsn	file "C:/Users/kyle_/Documents/CodeComposerStudio/PIXIE_MSP430/inc/gpio.h",line 265,column 13,is_stmt,isa 0
        MOV.W     #252,r15              ; [] |265| 
        AND.B     &PBOUT_L+0,r15        ; [] |265| 
        OR.B      #4,r15                ; [] |265| 
        MOV.B     r15,&PBOUT_L+0        ; [] |265| 
	.dwpsn	file "C:/Users/kyle_/Documents/CodeComposerStudio/PIXIE_MSP430/inc/gpio.h",line 266,column 13,is_stmt,isa 0
        MOV.W     #10,r15               ; [] |266| 
	.dwpsn	file "../main.c",line 1083,column 9,is_stmt,isa 0
        JMP       $C$L116               ; [] |1083| 
                                          ; [] |1083| 
;* --------------------------------------------------------------------------*
	.align	4
$C$L87:    
	.dwpsn	file "C:/Users/kyle_/Documents/CodeComposerStudio/PIXIE_MSP430/inc/gpio.h",line 262,column 13,is_stmt,isa 0
        MOV.W     #248,r15              ; [] |262| 
        AND.B     &PBOUT_L+0,r15        ; [] |262| 
        OR.B      #3,r15                ; [] |262| 
        MOV.B     r15,&PBOUT_L+0        ; [] |262| 
	.dwpsn	file "C:/Users/kyle_/Documents/CodeComposerStudio/PIXIE_MSP430/inc/gpio.h",line 263,column 13,is_stmt,isa 0
        MOV.W     #5,r15                ; [] |263| 
	.dwpsn	file "../main.c",line 1083,column 9,is_stmt,isa 0
        JMP       $C$L116               ; [] |1083| 
                                          ; [] |1083| 
;* --------------------------------------------------------------------------*
	.align	4
$C$L88:    
	.dwpsn	file "C:/Users/kyle_/Documents/CodeComposerStudio/PIXIE_MSP430/inc/gpio.h",line 259,column 13,is_stmt,isa 0
        MOV.W     #248,r15              ; [] |259| 
        AND.B     &PBOUT_L+0,r15        ; [] |259| 
        OR.B      #2,r15                ; [] |259| 
        MOV.B     r15,&PBOUT_L+0        ; [] |259| 
	.dwpsn	file "C:/Users/kyle_/Documents/CodeComposerStudio/PIXIE_MSP430/inc/gpio.h",line 260,column 13,is_stmt,isa 0
        MOV.W     #2,r15                ; [] |260| 
	.dwpsn	file "../main.c",line 1083,column 9,is_stmt,isa 0
        JMP       $C$L116               ; [] |1083| 
                                          ; [] |1083| 
;* --------------------------------------------------------------------------*
	.align	4
$C$L89:    
	.dwpsn	file "C:/Users/kyle_/Documents/CodeComposerStudio/PIXIE_MSP430/inc/gpio.h",line 256,column 13,is_stmt,isa 0
        MOV.W     #248,r15              ; [] |256| 
        AND.B     &PBOUT_L+0,r15        ; [] |256| 
        OR.B      #1,r15                ; [] |256| 
        MOV.B     r15,&PBOUT_L+0        ; [] |256| 
	.dwpsn	file "C:/Users/kyle_/Documents/CodeComposerStudio/PIXIE_MSP430/inc/gpio.h",line 257,column 13,is_stmt,isa 0
        MOV.W     #1,r15                ; [] |257| 
	.dwpsn	file "../main.c",line 1083,column 9,is_stmt,isa 0
        JMP       $C$L116               ; [] |1083| 
                                          ; [] |1083| 
;* --------------------------------------------------------------------------*
	.align	4
$C$L90:    
	.dwpsn	file "C:/Users/kyle_/Documents/CodeComposerStudio/PIXIE_MSP430/inc/gpio.h",line 253,column 13,is_stmt,isa 0
        AND.B     #248,&PBOUT_L+0       ; [] |253| 
	.dwpsn	file "C:/Users/kyle_/Documents/CodeComposerStudio/PIXIE_MSP430/inc/gpio.h",line 254,column 13,is_stmt,isa 0
        MOV.W     #0,r15                ; [] |254| 
	.dwpsn	file "../main.c",line 1083,column 9,is_stmt,isa 0
        JMP       $C$L116               ; [] |1083| 
                                          ; [] |1083| 
;* --------------------------------------------------------------------------*
	.align	4
$C$L91:    
	.dwpsn	file "../main.c",line 1090,column 13,is_stmt,isa 0
        MOV.W     #0,&CMD_Command+0     ; [] |1090| 
	.dwpsn	file "../main.c",line 1091,column 13,is_stmt,isa 0
        MOV.W     #3,&CMD_Command+2     ; [] |1091| 
	.dwpsn	file "../main.c",line 1092,column 13,is_stmt,isa 0
        JMP       $C$L118               ; [] |1092| 
                                          ; [] |1092| 
;* --------------------------------------------------------------------------*
	.align	4
$C$L92:    
	.dwpsn	file "C:/Users/kyle_/Documents/CodeComposerStudio/PIXIE_MSP430/inc/gpio.h",line 212,column 9,is_stmt,isa 0
        AND.B     #143,&PAOUT_L+0       ; [] |212| 
	.dwpsn	file "C:/Users/kyle_/Documents/CodeComposerStudio/PIXIE_MSP430/inc/gpio.h",line 213,column 9,is_stmt,isa 0
        AND.B     #241,&PAOUT_L+0       ; [] |213| 
	.dwpsn	file "C:/Users/kyle_/Documents/CodeComposerStudio/PIXIE_MSP430/inc/gpio.h",line 214,column 9,is_stmt,isa 0
        AND.B     #248,&PBOUT_L+0       ; [] |214| 
	.dwpsn	file "C:/Users/kyle_/Documents/CodeComposerStudio/PIXIE_MSP430/inc/gpio.h",line 215,column 9,is_stmt,isa 0
        TST.W     r15                   ; [] |215| 
        JEQ       $C$L99                ; [] |215| 
                                          ; [] |215| 
;* --------------------------------------------------------------------------*
        SUB.W     #1,r15                ; [] |215| 
        JEQ       $C$L98                ; [] |215| 
                                          ; [] |215| 
;* --------------------------------------------------------------------------*
        SUB.W     #1,r15                ; [] |215| 
        JEQ       $C$L97                ; [] |215| 
                                          ; [] |215| 
;* --------------------------------------------------------------------------*
        SUB.W     #3,r15                ; [] |215| 
        JEQ       $C$L96                ; [] |215| 
                                          ; [] |215| 
;* --------------------------------------------------------------------------*
        SUB.W     #5,r15                ; [] |215| 
        JEQ       $C$L95                ; [] |215| 
                                          ; [] |215| 
;* --------------------------------------------------------------------------*
        SUB.W     #10,r15               ; [] |215| 
        JEQ       $C$L94                ; [] |215| 
                                          ; [] |215| 
;* --------------------------------------------------------------------------*
        SUB.W     #30,r15               ; [] |215| 
        JEQ       $C$L93                ; [] |215| 
                                          ; [] |215| 
;* --------------------------------------------------------------------------*
	.dwpsn	file "C:/Users/kyle_/Documents/CodeComposerStudio/PIXIE_MSP430/inc/gpio.h",line 240,column 13,is_stmt,isa 0
        OR.B      #56,&PBOUT_L+0        ; [] |240| 
	.dwpsn	file "C:/Users/kyle_/Documents/CodeComposerStudio/PIXIE_MSP430/inc/gpio.h",line 241,column 13,is_stmt,isa 0
        MOV.W     #100,r15              ; [] |241| 
	.dwpsn	file "../main.c",line 1083,column 9,is_stmt,isa 0
        JMP       $C$L116               ; [] |1083| 
                                          ; [] |1083| 
;* --------------------------------------------------------------------------*
	.align	4
$C$L93:    
	.dwpsn	file "C:/Users/kyle_/Documents/CodeComposerStudio/PIXIE_MSP430/inc/gpio.h",line 236,column 13,is_stmt,isa 0
        MOV.B     &PBOUT_L+0,r15        ; [] |236| 
        BIC.B     #8,r15                ; [] |236| 
        OR.B      #48,r15               ; [] |236| 
        MOV.B     r15,&PBOUT_L+0        ; [] |236| 
	.dwpsn	file "C:/Users/kyle_/Documents/CodeComposerStudio/PIXIE_MSP430/inc/gpio.h",line 237,column 13,is_stmt,isa 0
        MOV.W     #50,r15               ; [] |237| 
	.dwpsn	file "../main.c",line 1083,column 9,is_stmt,isa 0
        JMP       $C$L116               ; [] |1083| 
                                          ; [] |1083| 
;* --------------------------------------------------------------------------*
	.align	4
$C$L94:    
	.dwpsn	file "C:/Users/kyle_/Documents/CodeComposerStudio/PIXIE_MSP430/inc/gpio.h",line 233,column 13,is_stmt,isa 0
        MOV.W     #239,r15              ; [] |233| 
        AND.B     &PBOUT_L+0,r15        ; [] |233| 
        OR.B      #40,r15               ; [] |233| 
        MOV.B     r15,&PBOUT_L+0        ; [] |233| 
	.dwpsn	file "C:/Users/kyle_/Documents/CodeComposerStudio/PIXIE_MSP430/inc/gpio.h",line 234,column 13,is_stmt,isa 0
        MOV.W     #20,r15               ; [] |234| 
	.dwpsn	file "../main.c",line 1083,column 9,is_stmt,isa 0
        JMP       $C$L116               ; [] |1083| 
                                          ; [] |1083| 
;* --------------------------------------------------------------------------*
	.align	4
$C$L95:    
	.dwpsn	file "C:/Users/kyle_/Documents/CodeComposerStudio/PIXIE_MSP430/inc/gpio.h",line 230,column 13,is_stmt,isa 0
        MOV.W     #231,r15              ; [] |230| 
        AND.B     &PBOUT_L+0,r15        ; [] |230| 
        OR.B      #32,r15               ; [] |230| 
        MOV.B     r15,&PBOUT_L+0        ; [] |230| 
	.dwpsn	file "C:/Users/kyle_/Documents/CodeComposerStudio/PIXIE_MSP430/inc/gpio.h",line 231,column 13,is_stmt,isa 0
        MOV.W     #10,r15               ; [] |231| 
	.dwpsn	file "../main.c",line 1083,column 9,is_stmt,isa 0
        JMP       $C$L116               ; [] |1083| 
                                          ; [] |1083| 
;* --------------------------------------------------------------------------*
	.align	4
$C$L96:    
	.dwpsn	file "C:/Users/kyle_/Documents/CodeComposerStudio/PIXIE_MSP430/inc/gpio.h",line 227,column 13,is_stmt,isa 0
        MOV.W     #223,r15              ; [] |227| 
        AND.B     &PBOUT_L+0,r15        ; [] |227| 
        OR.B      #24,r15               ; [] |227| 
        MOV.B     r15,&PBOUT_L+0        ; [] |227| 
	.dwpsn	file "C:/Users/kyle_/Documents/CodeComposerStudio/PIXIE_MSP430/inc/gpio.h",line 228,column 13,is_stmt,isa 0
        MOV.W     #5,r15                ; [] |228| 
	.dwpsn	file "../main.c",line 1083,column 9,is_stmt,isa 0
        JMP       $C$L116               ; [] |1083| 
                                          ; [] |1083| 
;* --------------------------------------------------------------------------*
	.align	4
$C$L97:    
	.dwpsn	file "C:/Users/kyle_/Documents/CodeComposerStudio/PIXIE_MSP430/inc/gpio.h",line 224,column 13,is_stmt,isa 0
        MOV.W     #199,r15              ; [] |224| 
        AND.B     &PBOUT_L+0,r15        ; [] |224| 
        OR.B      #16,r15               ; [] |224| 
        MOV.B     r15,&PBOUT_L+0        ; [] |224| 
	.dwpsn	file "C:/Users/kyle_/Documents/CodeComposerStudio/PIXIE_MSP430/inc/gpio.h",line 225,column 13,is_stmt,isa 0
        MOV.W     #2,r15                ; [] |225| 
	.dwpsn	file "../main.c",line 1083,column 9,is_stmt,isa 0
        JMP       $C$L116               ; [] |1083| 
                                          ; [] |1083| 
;* --------------------------------------------------------------------------*
	.align	4
$C$L98:    
	.dwpsn	file "C:/Users/kyle_/Documents/CodeComposerStudio/PIXIE_MSP430/inc/gpio.h",line 221,column 13,is_stmt,isa 0
        MOV.W     #207,r15              ; [] |221| 
        AND.B     &PBOUT_L+0,r15        ; [] |221| 
        OR.B      #8,r15                ; [] |221| 
        MOV.B     r15,&PBOUT_L+0        ; [] |221| 
	.dwpsn	file "C:/Users/kyle_/Documents/CodeComposerStudio/PIXIE_MSP430/inc/gpio.h",line 222,column 13,is_stmt,isa 0
        MOV.W     #1,r15                ; [] |222| 
	.dwpsn	file "../main.c",line 1083,column 9,is_stmt,isa 0
        JMP       $C$L116               ; [] |1083| 
                                          ; [] |1083| 
;* --------------------------------------------------------------------------*
	.align	4
$C$L99:    
	.dwpsn	file "C:/Users/kyle_/Documents/CodeComposerStudio/PIXIE_MSP430/inc/gpio.h",line 218,column 13,is_stmt,isa 0
        AND.B     #199,&PBOUT_L+0       ; [] |218| 
	.dwpsn	file "C:/Users/kyle_/Documents/CodeComposerStudio/PIXIE_MSP430/inc/gpio.h",line 219,column 13,is_stmt,isa 0
        MOV.W     #0,r15                ; [] |219| 
	.dwpsn	file "../main.c",line 1083,column 9,is_stmt,isa 0
        JMP       $C$L116               ; [] |1083| 
                                          ; [] |1083| 
;* --------------------------------------------------------------------------*
	.align	4
$C$L100:    
	.dwpsn	file "C:/Users/kyle_/Documents/CodeComposerStudio/PIXIE_MSP430/inc/gpio.h",line 177,column 9,is_stmt,isa 0
        AND.B     #143,&PAOUT_L+0       ; [] |177| 
	.dwpsn	file "C:/Users/kyle_/Documents/CodeComposerStudio/PIXIE_MSP430/inc/gpio.h",line 178,column 9,is_stmt,isa 0
        AND.B     #199,&PBOUT_L+0       ; [] |178| 
	.dwpsn	file "C:/Users/kyle_/Documents/CodeComposerStudio/PIXIE_MSP430/inc/gpio.h",line 179,column 9,is_stmt,isa 0
        AND.B     #248,&PBOUT_L+0       ; [] |179| 
	.dwpsn	file "C:/Users/kyle_/Documents/CodeComposerStudio/PIXIE_MSP430/inc/gpio.h",line 180,column 9,is_stmt,isa 0
        TST.W     r15                   ; [] |180| 
        JEQ       $C$L107               ; [] |180| 
                                          ; [] |180| 
;* --------------------------------------------------------------------------*
        SUB.W     #1,r15                ; [] |180| 
        JEQ       $C$L106               ; [] |180| 
                                          ; [] |180| 
;* --------------------------------------------------------------------------*
        SUB.W     #1,r15                ; [] |180| 
        JEQ       $C$L105               ; [] |180| 
                                          ; [] |180| 
;* --------------------------------------------------------------------------*
        SUB.W     #3,r15                ; [] |180| 
        JEQ       $C$L104               ; [] |180| 
                                          ; [] |180| 
;* --------------------------------------------------------------------------*
        SUB.W     #5,r15                ; [] |180| 
        JEQ       $C$L103               ; [] |180| 
                                          ; [] |180| 
;* --------------------------------------------------------------------------*
        SUB.W     #10,r15               ; [] |180| 
        JEQ       $C$L102               ; [] |180| 
                                          ; [] |180| 
;* --------------------------------------------------------------------------*
        SUB.W     #30,r15               ; [] |180| 
        JEQ       $C$L101               ; [] |180| 
                                          ; [] |180| 
;* --------------------------------------------------------------------------*
	.dwpsn	file "C:/Users/kyle_/Documents/CodeComposerStudio/PIXIE_MSP430/inc/gpio.h",line 205,column 13,is_stmt,isa 0
        OR.B      #14,&PAOUT_L+0        ; [] |205| 
	.dwpsn	file "C:/Users/kyle_/Documents/CodeComposerStudio/PIXIE_MSP430/inc/gpio.h",line 206,column 13,is_stmt,isa 0
        MOV.W     #100,r15              ; [] |206| 
	.dwpsn	file "../main.c",line 1083,column 9,is_stmt,isa 0
        JMP       $C$L116               ; [] |1083| 
                                          ; [] |1083| 
;* --------------------------------------------------------------------------*
	.align	4
$C$L101:    
	.dwpsn	file "C:/Users/kyle_/Documents/CodeComposerStudio/PIXIE_MSP430/inc/gpio.h",line 201,column 13,is_stmt,isa 0
        MOV.B     &PAOUT_L+0,r15        ; [] |201| 
        BIC.B     #2,r15                ; [] |201| 
        OR.B      #12,r15               ; [] |201| 
        MOV.B     r15,&PAOUT_L+0        ; [] |201| 
	.dwpsn	file "C:/Users/kyle_/Documents/CodeComposerStudio/PIXIE_MSP430/inc/gpio.h",line 202,column 13,is_stmt,isa 0
        MOV.W     #50,r15               ; [] |202| 
	.dwpsn	file "../main.c",line 1083,column 9,is_stmt,isa 0
        JMP       $C$L116               ; [] |1083| 
                                          ; [] |1083| 
;* --------------------------------------------------------------------------*
	.align	4
$C$L102:    
	.dwpsn	file "C:/Users/kyle_/Documents/CodeComposerStudio/PIXIE_MSP430/inc/gpio.h",line 198,column 13,is_stmt,isa 0
        MOV.B     &PAOUT_L+0,r15        ; [] |198| 
        BIC.B     #4,r15                ; [] |198| 
        OR.B      #10,r15               ; [] |198| 
        MOV.B     r15,&PAOUT_L+0        ; [] |198| 
	.dwpsn	file "C:/Users/kyle_/Documents/CodeComposerStudio/PIXIE_MSP430/inc/gpio.h",line 199,column 13,is_stmt,isa 0
        MOV.W     #20,r15               ; [] |199| 
	.dwpsn	file "../main.c",line 1083,column 9,is_stmt,isa 0
        JMP       $C$L116               ; [] |1083| 
                                          ; [] |1083| 
;* --------------------------------------------------------------------------*
	.align	4
$C$L103:    
	.dwpsn	file "C:/Users/kyle_/Documents/CodeComposerStudio/PIXIE_MSP430/inc/gpio.h",line 195,column 13,is_stmt,isa 0
        MOV.W     #249,r15              ; [] |195| 
        AND.B     &PAOUT_L+0,r15        ; [] |195| 
        OR.B      #8,r15                ; [] |195| 
        MOV.B     r15,&PAOUT_L+0        ; [] |195| 
	.dwpsn	file "C:/Users/kyle_/Documents/CodeComposerStudio/PIXIE_MSP430/inc/gpio.h",line 196,column 13,is_stmt,isa 0
        MOV.W     #10,r15               ; [] |196| 
	.dwpsn	file "../main.c",line 1083,column 9,is_stmt,isa 0
        JMP       $C$L116               ; [] |1083| 
                                          ; [] |1083| 
;* --------------------------------------------------------------------------*
	.align	4
$C$L104:    
	.dwpsn	file "C:/Users/kyle_/Documents/CodeComposerStudio/PIXIE_MSP430/inc/gpio.h",line 192,column 13,is_stmt,isa 0
        MOV.B     &PAOUT_L+0,r15        ; [] |192| 
        BIC.B     #8,r15                ; [] |192| 
        OR.B      #6,r15                ; [] |192| 
        MOV.B     r15,&PAOUT_L+0        ; [] |192| 
	.dwpsn	file "C:/Users/kyle_/Documents/CodeComposerStudio/PIXIE_MSP430/inc/gpio.h",line 193,column 13,is_stmt,isa 0
        MOV.W     #5,r15                ; [] |193| 
	.dwpsn	file "../main.c",line 1083,column 9,is_stmt,isa 0
        JMP       $C$L116               ; [] |1083| 
                                          ; [] |1083| 
;* --------------------------------------------------------------------------*
	.align	4
$C$L105:    
	.dwpsn	file "C:/Users/kyle_/Documents/CodeComposerStudio/PIXIE_MSP430/inc/gpio.h",line 189,column 13,is_stmt,isa 0
        MOV.W     #241,r15              ; [] |189| 
        AND.B     &PAOUT_L+0,r15        ; [] |189| 
        OR.B      #4,r15                ; [] |189| 
        MOV.B     r15,&PAOUT_L+0        ; [] |189| 
	.dwpsn	file "C:/Users/kyle_/Documents/CodeComposerStudio/PIXIE_MSP430/inc/gpio.h",line 190,column 13,is_stmt,isa 0
        MOV.W     #2,r15                ; [] |190| 
	.dwpsn	file "../main.c",line 1083,column 9,is_stmt,isa 0
        JMP       $C$L116               ; [] |1083| 
                                          ; [] |1083| 
;* --------------------------------------------------------------------------*
	.align	4
$C$L106:    
	.dwpsn	file "C:/Users/kyle_/Documents/CodeComposerStudio/PIXIE_MSP430/inc/gpio.h",line 186,column 13,is_stmt,isa 0
        MOV.W     #243,r15              ; [] |186| 
        AND.B     &PAOUT_L+0,r15        ; [] |186| 
        OR.B      #2,r15                ; [] |186| 
        MOV.B     r15,&PAOUT_L+0        ; [] |186| 
	.dwpsn	file "C:/Users/kyle_/Documents/CodeComposerStudio/PIXIE_MSP430/inc/gpio.h",line 187,column 13,is_stmt,isa 0
        MOV.W     #1,r15                ; [] |187| 
	.dwpsn	file "../main.c",line 1083,column 9,is_stmt,isa 0
        JMP       $C$L116               ; [] |1083| 
                                          ; [] |1083| 
;* --------------------------------------------------------------------------*
	.align	4
$C$L107:    
	.dwpsn	file "C:/Users/kyle_/Documents/CodeComposerStudio/PIXIE_MSP430/inc/gpio.h",line 183,column 13,is_stmt,isa 0
        AND.B     #241,&PAOUT_L+0       ; [] |183| 
	.dwpsn	file "C:/Users/kyle_/Documents/CodeComposerStudio/PIXIE_MSP430/inc/gpio.h",line 184,column 13,is_stmt,isa 0
        MOV.W     #0,r15                ; [] |184| 
	.dwpsn	file "../main.c",line 1083,column 9,is_stmt,isa 0
        JMP       $C$L116               ; [] |1083| 
                                          ; [] |1083| 
;* --------------------------------------------------------------------------*
	.align	4
$C$L108:    
	.dwpsn	file "C:/Users/kyle_/Documents/CodeComposerStudio/PIXIE_MSP430/inc/gpio.h",line 142,column 9,is_stmt,isa 0
        AND.B     #241,&PAOUT_L+0       ; [] |142| 
	.dwpsn	file "C:/Users/kyle_/Documents/CodeComposerStudio/PIXIE_MSP430/inc/gpio.h",line 143,column 9,is_stmt,isa 0
        AND.B     #199,&PBOUT_L+0       ; [] |143| 
	.dwpsn	file "C:/Users/kyle_/Documents/CodeComposerStudio/PIXIE_MSP430/inc/gpio.h",line 144,column 9,is_stmt,isa 0
        AND.B     #248,&PBOUT_L+0       ; [] |144| 
	.dwpsn	file "C:/Users/kyle_/Documents/CodeComposerStudio/PIXIE_MSP430/inc/gpio.h",line 145,column 9,is_stmt,isa 0
        TST.W     r15                   ; [] |145| 
        JEQ       $C$L115               ; [] |145| 
                                          ; [] |145| 
;* --------------------------------------------------------------------------*
        SUB.W     #1,r15                ; [] |145| 
        JEQ       $C$L114               ; [] |145| 
                                          ; [] |145| 
;* --------------------------------------------------------------------------*
        SUB.W     #1,r15                ; [] |145| 
        JEQ       $C$L113               ; [] |145| 
                                          ; [] |145| 
;* --------------------------------------------------------------------------*
        SUB.W     #3,r15                ; [] |145| 
        JEQ       $C$L112               ; [] |145| 
                                          ; [] |145| 
;* --------------------------------------------------------------------------*
        SUB.W     #5,r15                ; [] |145| 
        JEQ       $C$L111               ; [] |145| 
                                          ; [] |145| 
;* --------------------------------------------------------------------------*
        SUB.W     #10,r15               ; [] |145| 
        JEQ       $C$L110               ; [] |145| 
                                          ; [] |145| 
;* --------------------------------------------------------------------------*
        SUB.W     #30,r15               ; [] |145| 
        JEQ       $C$L109               ; [] |145| 
                                          ; [] |145| 
;* --------------------------------------------------------------------------*
	.dwpsn	file "C:/Users/kyle_/Documents/CodeComposerStudio/PIXIE_MSP430/inc/gpio.h",line 170,column 13,is_stmt,isa 0
        OR.B      #112,&PAOUT_L+0       ; [] |170| 
	.dwpsn	file "C:/Users/kyle_/Documents/CodeComposerStudio/PIXIE_MSP430/inc/gpio.h",line 171,column 13,is_stmt,isa 0
        MOV.W     #100,r15              ; [] |171| 
	.dwpsn	file "../main.c",line 1083,column 9,is_stmt,isa 0
        JMP       $C$L116               ; [] |1083| 
                                          ; [] |1083| 
;* --------------------------------------------------------------------------*
	.align	4
$C$L109:    
	.dwpsn	file "C:/Users/kyle_/Documents/CodeComposerStudio/PIXIE_MSP430/inc/gpio.h",line 166,column 13,is_stmt,isa 0
        MOV.W     #239,r15              ; [] |166| 
        AND.B     &PAOUT_L+0,r15        ; [] |166| 
        OR.B      #96,r15               ; [] |166| 
        MOV.B     r15,&PAOUT_L+0        ; [] |166| 
	.dwpsn	file "C:/Users/kyle_/Documents/CodeComposerStudio/PIXIE_MSP430/inc/gpio.h",line 167,column 13,is_stmt,isa 0
        MOV.W     #50,r15               ; [] |167| 
	.dwpsn	file "../main.c",line 1083,column 9,is_stmt,isa 0
        JMP       $C$L116               ; [] |1083| 
                                          ; [] |1083| 
;* --------------------------------------------------------------------------*
	.align	4
$C$L110:    
	.dwpsn	file "C:/Users/kyle_/Documents/CodeComposerStudio/PIXIE_MSP430/inc/gpio.h",line 163,column 13,is_stmt,isa 0
        MOV.W     #223,r15              ; [] |163| 
        AND.B     &PAOUT_L+0,r15        ; [] |163| 
        OR.B      #80,r15               ; [] |163| 
        MOV.B     r15,&PAOUT_L+0        ; [] |163| 
	.dwpsn	file "C:/Users/kyle_/Documents/CodeComposerStudio/PIXIE_MSP430/inc/gpio.h",line 164,column 13,is_stmt,isa 0
        MOV.W     #20,r15               ; [] |164| 
	.dwpsn	file "../main.c",line 1083,column 9,is_stmt,isa 0
        JMP       $C$L116               ; [] |1083| 
                                          ; [] |1083| 
;* --------------------------------------------------------------------------*
	.align	4
$C$L111:    
	.dwpsn	file "C:/Users/kyle_/Documents/CodeComposerStudio/PIXIE_MSP430/inc/gpio.h",line 160,column 13,is_stmt,isa 0
        MOV.W     #207,r15              ; [] |160| 
        AND.B     &PAOUT_L+0,r15        ; [] |160| 
        OR.B      #64,r15               ; [] |160| 
        MOV.B     r15,&PAOUT_L+0        ; [] |160| 
	.dwpsn	file "C:/Users/kyle_/Documents/CodeComposerStudio/PIXIE_MSP430/inc/gpio.h",line 161,column 13,is_stmt,isa 0
        MOV.W     #10,r15               ; [] |161| 
	.dwpsn	file "../main.c",line 1083,column 9,is_stmt,isa 0
        JMP       $C$L116               ; [] |1083| 
                                          ; [] |1083| 
;* --------------------------------------------------------------------------*
	.align	4
$C$L112:    
	.dwpsn	file "C:/Users/kyle_/Documents/CodeComposerStudio/PIXIE_MSP430/inc/gpio.h",line 157,column 13,is_stmt,isa 0
        MOV.W     #191,r15              ; [] |157| 
        AND.B     &PAOUT_L+0,r15        ; [] |157| 
        OR.B      #48,r15               ; [] |157| 
        MOV.B     r15,&PAOUT_L+0        ; [] |157| 
	.dwpsn	file "C:/Users/kyle_/Documents/CodeComposerStudio/PIXIE_MSP430/inc/gpio.h",line 158,column 13,is_stmt,isa 0
        MOV.W     #5,r15                ; [] |158| 
	.dwpsn	file "../main.c",line 1083,column 9,is_stmt,isa 0
        JMP       $C$L116               ; [] |1083| 
                                          ; [] |1083| 
;* --------------------------------------------------------------------------*
	.align	4
$C$L113:    
	.dwpsn	file "C:/Users/kyle_/Documents/CodeComposerStudio/PIXIE_MSP430/inc/gpio.h",line 154,column 13,is_stmt,isa 0
        MOV.W     #143,r15              ; [] |154| 
        AND.B     &PAOUT_L+0,r15        ; [] |154| 
        OR.B      #32,r15               ; [] |154| 
        MOV.B     r15,&PAOUT_L+0        ; [] |154| 
	.dwpsn	file "C:/Users/kyle_/Documents/CodeComposerStudio/PIXIE_MSP430/inc/gpio.h",line 155,column 13,is_stmt,isa 0
        MOV.W     #2,r15                ; [] |155| 
	.dwpsn	file "../main.c",line 1083,column 9,is_stmt,isa 0
        JMP       $C$L116               ; [] |1083| 
                                          ; [] |1083| 
;* --------------------------------------------------------------------------*
	.align	4
$C$L114:    
	.dwpsn	file "C:/Users/kyle_/Documents/CodeComposerStudio/PIXIE_MSP430/inc/gpio.h",line 151,column 13,is_stmt,isa 0
        MOV.W     #159,r15              ; [] |151| 
        AND.B     &PAOUT_L+0,r15        ; [] |151| 
        OR.B      #16,r15               ; [] |151| 
        MOV.B     r15,&PAOUT_L+0        ; [] |151| 
	.dwpsn	file "C:/Users/kyle_/Documents/CodeComposerStudio/PIXIE_MSP430/inc/gpio.h",line 152,column 13,is_stmt,isa 0
        MOV.W     #1,r15                ; [] |152| 
	.dwpsn	file "../main.c",line 1083,column 9,is_stmt,isa 0
        JMP       $C$L116               ; [] |1083| 
                                          ; [] |1083| 
;* --------------------------------------------------------------------------*
	.align	4
$C$L115:    
	.dwpsn	file "C:/Users/kyle_/Documents/CodeComposerStudio/PIXIE_MSP430/inc/gpio.h",line 148,column 13,is_stmt,isa 0
        AND.B     #143,&PAOUT_L+0       ; [] |148| 
	.dwpsn	file "C:/Users/kyle_/Documents/CodeComposerStudio/PIXIE_MSP430/inc/gpio.h",line 149,column 13,is_stmt,isa 0
        MOV.W     #0,r15                ; [] |149| 
;* --------------------------------------------------------------------------*
$C$L116:    
	.dwpsn	file "../main.c",line 1085,column 13,is_stmt,isa 0
        MOVA      r14,r13               ; [] |1085| 
        RLAM.W    #2,r13                ; [] |1085| 
        MOVX.A    CH_Channels+0(r13),r13 ; [] |1085| 
        MOV.W     r15,4(r13)            ; [] |1085| 
	.dwpsn	file "../main.c",line 1086,column 13,is_stmt,isa 0
        MOVX.A    #$C$FSL3+0,0(SP)      ; [] |1086| 
        MOV.W     r14,4(SP)             ; [] |1086| 
        MOV.W     r15,6(SP)             ; [] |1086| 
        MOVX.A    #UART1_Output+0,r12   ; [] |1086| 
$C$DW$228	.dwtag  DW_TAG_TI_branch
	.dwattr $C$DW$228, DW_AT_low_pc(0x00)
	.dwattr $C$DW$228, DW_AT_name("sprintf")
	.dwattr $C$DW$228, DW_AT_TI_call

        CALLA     #sprintf              ; [] |1086| 
                                          ; [] |1086| 
$C$DW$229	.dwtag  DW_TAG_TI_branch
	.dwattr $C$DW$229, DW_AT_low_pc(0x00)
	.dwattr $C$DW$229, DW_AT_name("UART1_puts")
	.dwattr $C$DW$229, DW_AT_TI_call

        CALLA     #UART1_puts           ; [] |1086| 
                                          ; [] |1086| 
        JMP       $C$L118               ; [] 
                                          ; [] 
;* --------------------------------------------------------------------------*
	.align	4
$C$L117:    
	.dwpsn	file "../main.c",line 1097,column 9,is_stmt,isa 0
        MOV.W     #0,&CMD_Command+0     ; [] |1097| 
	.dwpsn	file "../main.c",line 1098,column 9,is_stmt,isa 0
        MOV.W     #4,&CMD_Command+2     ; [] |1098| 
;* --------------------------------------------------------------------------*
$C$L118:    
        ADDA      #8,SP                 ; [] 
	.dwcfi	cfa_offset, 4
$C$DW$230	.dwtag  DW_TAG_TI_branch
	.dwattr $C$DW$230, DW_AT_low_pc(0x00)
	.dwattr $C$DW$230, DW_AT_TI_return

        RETA      ; [] 
        ; [] 
	.dwattr $C$DW$224, DW_AT_TI_end_file("../main.c")
	.dwattr $C$DW$224, DW_AT_TI_end_line(0x44d)
	.dwattr $C$DW$224, DW_AT_TI_end_column(0x01)
	.dwendentry
	.dwendtag $C$DW$224

	.sect	".text:MAIN_ExecuteGATTEN"
	.align	4
	.clink
	.global	MAIN_ExecuteGATTEN

$C$DW$231	.dwtag  DW_TAG_subprogram
	.dwattr $C$DW$231, DW_AT_name("MAIN_ExecuteGATTEN")
	.dwattr $C$DW$231, DW_AT_low_pc(MAIN_ExecuteGATTEN)
	.dwattr $C$DW$231, DW_AT_high_pc(0x00)
	.dwattr $C$DW$231, DW_AT_TI_symbol_name("MAIN_ExecuteGATTEN")
	.dwattr $C$DW$231, DW_AT_external
	.dwattr $C$DW$231, DW_AT_TI_begin_file("../main.c")
	.dwattr $C$DW$231, DW_AT_TI_begin_line(0x4a1)
	.dwattr $C$DW$231, DW_AT_TI_begin_column(0x06)
	.dwattr $C$DW$231, DW_AT_decl_file("../main.c")
	.dwattr $C$DW$231, DW_AT_decl_line(0x4a1)
	.dwattr $C$DW$231, DW_AT_decl_column(0x06)
	.dwattr $C$DW$231, DW_AT_TI_max_frame_size(0x0c)
	.dwpsn	file "../main.c",line 1186,column 1,is_stmt,address MAIN_ExecuteGATTEN,isa 0

	.dwfde $C$DW$CIE, MAIN_ExecuteGATTEN

;*****************************************************************************
;* FUNCTION NAME: MAIN_ExecuteGATTEN                                         *
;*                                                                           *
;*   Regs Modified     : SP,SR,r11,r12,r13,r14,r15                           *
;*   Regs Used         : SP,SR,r11,r12,r13,r14,r15                           *
;*   Local Frame Size  : 8 Args + 0 Auto + 0 Save = 8 byte                   *
;*****************************************************************************
MAIN_ExecuteGATTEN:
;* --------------------------------------------------------------------------*
	.dwcfi	cfa_offset, 4
	.dwcfi	save_reg_to_mem, 16, -4
        SUBA      #8,SP                 ; [] 
	.dwcfi	cfa_offset, 12
	.dwpsn	file "../main.c",line 1187,column 5,is_stmt,isa 0
$C$DW$232	.dwtag  DW_TAG_TI_branch
	.dwattr $C$DW$232, DW_AT_low_pc(0x00)
	.dwattr $C$DW$232, DW_AT_name("STATE_IsIdle")
	.dwattr $C$DW$232, DW_AT_TI_call

        CALLA     #STATE_IsIdle         ; [] |1187| 
                                          ; [] |1187| 
        TST.W     r12                   ; [] |1187| 
        JEQ       $C$L120               ; [] |1187| 
                                          ; [] |1187| 
;* --------------------------------------------------------------------------*
	.dwpsn	file "../main.c",line 1189,column 9,is_stmt,isa 0
        MOV.W     &CMD_Command+2,r15    ; [] |1189| 
        SUB.W     #1,r15                ; [] |1189| 
        CMP.W     #4,r15                ; [] |1189| 
        JHS       $C$L119               ; [] |1189| 
                                          ; [] |1189| 
;* --------------------------------------------------------------------------*
	.dwpsn	file "../main.c",line 1195,column 9,is_stmt,isa 0
        MOVX.A    #$C$FSL4+0,0(SP)      ; [] |1195| 
        MOV.W     &CMD_Command+2,4(SP)  ; [] |1195| 
        MOV.W     &CMD_Command+2,r15    ; [] |1195| 
        RLAM.W    #2,r15                ; [] |1195| 
        MOVX.A    CH_Channels+0(r15),r15 ; [] |1195| 
        MOV.W     8(r15),6(SP)          ; [] |1195| 
        MOVX.A    #UART1_Output+0,r12   ; [] |1195| 
$C$DW$233	.dwtag  DW_TAG_TI_branch
	.dwattr $C$DW$233, DW_AT_low_pc(0x00)
	.dwattr $C$DW$233, DW_AT_name("sprintf")
	.dwattr $C$DW$233, DW_AT_TI_call

        CALLA     #sprintf              ; [] |1195| 
                                          ; [] |1195| 
$C$DW$234	.dwtag  DW_TAG_TI_branch
	.dwattr $C$DW$234, DW_AT_low_pc(0x00)
	.dwattr $C$DW$234, DW_AT_name("UART1_puts")
	.dwattr $C$DW$234, DW_AT_TI_call

        CALLA     #UART1_puts           ; [] |1195| 
                                          ; [] |1195| 
        JMP       $C$L121               ; [] 
                                          ; [] 
;* --------------------------------------------------------------------------*
	.align	4
$C$L119:    
	.dwpsn	file "../main.c",line 1191,column 13,is_stmt,isa 0
        MOV.W     #0,&CMD_Command+0     ; [] |1191| 
	.dwpsn	file "../main.c",line 1192,column 13,is_stmt,isa 0
        MOV.W     #3,&CMD_Command+2     ; [] |1192| 
	.dwpsn	file "../main.c",line 1193,column 13,is_stmt,isa 0
        JMP       $C$L121               ; [] |1193| 
                                          ; [] |1193| 
;* --------------------------------------------------------------------------*
	.align	4
$C$L120:    
	.dwpsn	file "../main.c",line 1199,column 9,is_stmt,isa 0
        MOV.W     #0,&CMD_Command+0     ; [] |1199| 
	.dwpsn	file "../main.c",line 1200,column 9,is_stmt,isa 0
        MOV.W     #4,&CMD_Command+2     ; [] |1200| 
;* --------------------------------------------------------------------------*
$C$L121:    
        ADDA      #8,SP                 ; [] 
	.dwcfi	cfa_offset, 4
$C$DW$235	.dwtag  DW_TAG_TI_branch
	.dwattr $C$DW$235, DW_AT_low_pc(0x00)
	.dwattr $C$DW$235, DW_AT_TI_return

        RETA      ; [] 
        ; [] 
	.dwattr $C$DW$231, DW_AT_TI_end_file("../main.c")
	.dwattr $C$DW$231, DW_AT_TI_end_line(0x4b2)
	.dwattr $C$DW$231, DW_AT_TI_end_column(0x01)
	.dwendentry
	.dwendtag $C$DW$231

	.sect	".text:MAIN_ExecuteSATTEN"
	.align	4
	.clink
	.global	MAIN_ExecuteSATTEN

$C$DW$236	.dwtag  DW_TAG_subprogram
	.dwattr $C$DW$236, DW_AT_name("MAIN_ExecuteSATTEN")
	.dwattr $C$DW$236, DW_AT_low_pc(MAIN_ExecuteSATTEN)
	.dwattr $C$DW$236, DW_AT_high_pc(0x00)
	.dwattr $C$DW$236, DW_AT_TI_symbol_name("MAIN_ExecuteSATTEN")
	.dwattr $C$DW$236, DW_AT_external
	.dwattr $C$DW$236, DW_AT_TI_begin_file("../main.c")
	.dwattr $C$DW$236, DW_AT_TI_begin_line(0x47e)
	.dwattr $C$DW$236, DW_AT_TI_begin_column(0x06)
	.dwattr $C$DW$236, DW_AT_decl_file("../main.c")
	.dwattr $C$DW$236, DW_AT_decl_line(0x47e)
	.dwattr $C$DW$236, DW_AT_decl_column(0x06)
	.dwattr $C$DW$236, DW_AT_TI_max_frame_size(0x0c)
	.dwpsn	file "../main.c",line 1151,column 1,is_stmt,address MAIN_ExecuteSATTEN,isa 0

	.dwfde $C$DW$CIE, MAIN_ExecuteSATTEN

;*****************************************************************************
;* FUNCTION NAME: MAIN_ExecuteSATTEN                                         *
;*                                                                           *
;*   Regs Modified     : SP,SR,r11,r12,r13,r14,r15                           *
;*   Regs Used         : SP,SR,r11,r12,r13,r14,r15                           *
;*   Local Frame Size  : 8 Args + 0 Auto + 0 Save = 8 byte                   *
;*****************************************************************************
MAIN_ExecuteSATTEN:
;* --------------------------------------------------------------------------*
;* r14   assigned to $O$v2
;* r15   assigned to $O$v1
	.dwcfi	cfa_offset, 4
	.dwcfi	save_reg_to_mem, 16, -4
        SUBA      #8,SP                 ; [] 
	.dwcfi	cfa_offset, 12
	.dwpsn	file "../main.c",line 1152,column 5,is_stmt,isa 0
$C$DW$237	.dwtag  DW_TAG_TI_branch
	.dwattr $C$DW$237, DW_AT_low_pc(0x00)
	.dwattr $C$DW$237, DW_AT_name("STATE_IsIdle")
	.dwattr $C$DW$237, DW_AT_TI_call

        CALLA     #STATE_IsIdle         ; [] |1152| 
                                          ; [] |1152| 
        TST.W     r12                   ; [] |1152| 
        JEQ       $C$L123               ; [] |1152| 
                                          ; [] |1152| 
;* --------------------------------------------------------------------------*
	.dwpsn	file "../main.c",line 1154,column 9,is_stmt,isa 0
        MOV.W     &CMD_Command+2,r15    ; [] |1154| 
        TST.W     r15                   ; [] |1154| 
        JEQ       $C$L122               ; [] |1154| 
                                          ; [] |1154| 
;* --------------------------------------------------------------------------*
        CMP.W     #5,r15                ; [] |1154| 
        JHS       $C$L122               ; [] |1154| 
                                          ; [] |1154| 
;* --------------------------------------------------------------------------*
        MOV.W     &CMD_Command+4,r14    ; [] |1154| 
        CMP.W     #4,r14                ; [] |1154| 
        JHS       $C$L122               ; [] |1154| 
                                          ; [] |1154| 
;* --------------------------------------------------------------------------*
	.dwpsn	file "../main.c",line 1156,column 13,is_stmt,isa 0
        MOVA      r15,r13               ; [] |1156| 
        RLAM.W    #2,r13                ; [] |1156| 
        MOVX.A    CH_Channels+0(r13),r13 ; [] |1156| 
        MOV.W     r14,8(r13)            ; [] |1156| 
	.dwpsn	file "../main.c",line 1157,column 13,is_stmt,isa 0
        MOVX.A    #$C$FSL5+0,0(SP)      ; [] |1157| 
        MOV.W     r15,4(SP)             ; [] |1157| 
        MOV.W     r14,6(SP)             ; [] |1157| 
        MOVX.A    #UART1_Output+0,r12   ; [] |1157| 
$C$DW$238	.dwtag  DW_TAG_TI_branch
	.dwattr $C$DW$238, DW_AT_low_pc(0x00)
	.dwattr $C$DW$238, DW_AT_name("sprintf")
	.dwattr $C$DW$238, DW_AT_TI_call

        CALLA     #sprintf              ; [] |1157| 
                                          ; [] |1157| 
$C$DW$239	.dwtag  DW_TAG_TI_branch
	.dwattr $C$DW$239, DW_AT_low_pc(0x00)
	.dwattr $C$DW$239, DW_AT_name("UART1_puts")
	.dwattr $C$DW$239, DW_AT_TI_call

        CALLA     #UART1_puts           ; [] |1157| 
                                          ; [] |1157| 
        JMP       $C$L124               ; [] 
                                          ; [] 
;* --------------------------------------------------------------------------*
	.align	4
$C$L122:    
	.dwpsn	file "../main.c",line 1161,column 13,is_stmt,isa 0
        MOV.W     #0,&CMD_Command+0     ; [] |1161| 
	.dwpsn	file "../main.c",line 1162,column 13,is_stmt,isa 0
        MOV.W     #3,&CMD_Command+2     ; [] |1162| 
	.dwpsn	file "../main.c",line 1163,column 13,is_stmt,isa 0
        JMP       $C$L124               ; [] |1163| 
                                          ; [] |1163| 
;* --------------------------------------------------------------------------*
	.align	4
$C$L123:    
	.dwpsn	file "../main.c",line 1168,column 9,is_stmt,isa 0
        MOV.W     #0,&CMD_Command+0     ; [] |1168| 
	.dwpsn	file "../main.c",line 1169,column 9,is_stmt,isa 0
        MOV.W     #4,&CMD_Command+2     ; [] |1169| 
;* --------------------------------------------------------------------------*
$C$L124:    
        ADDA      #8,SP                 ; [] 
	.dwcfi	cfa_offset, 4
$C$DW$240	.dwtag  DW_TAG_TI_branch
	.dwattr $C$DW$240, DW_AT_low_pc(0x00)
	.dwattr $C$DW$240, DW_AT_TI_return

        RETA      ; [] 
        ; [] 
	.dwattr $C$DW$236, DW_AT_TI_end_file("../main.c")
	.dwattr $C$DW$236, DW_AT_TI_end_line(0x494)
	.dwattr $C$DW$236, DW_AT_TI_end_column(0x01)
	.dwendentry
	.dwendtag $C$DW$236

	.sect	".text:MAIN_ExecuteGCLOCK"
	.align	4
	.clink
	.global	MAIN_ExecuteGCLOCK

$C$DW$241	.dwtag  DW_TAG_subprogram
	.dwattr $C$DW$241, DW_AT_name("MAIN_ExecuteGCLOCK")
	.dwattr $C$DW$241, DW_AT_low_pc(MAIN_ExecuteGCLOCK)
	.dwattr $C$DW$241, DW_AT_high_pc(0x00)
	.dwattr $C$DW$241, DW_AT_TI_symbol_name("MAIN_ExecuteGCLOCK")
	.dwattr $C$DW$241, DW_AT_external
	.dwattr $C$DW$241, DW_AT_TI_begin_file("../main.c")
	.dwattr $C$DW$241, DW_AT_TI_begin_line(0x411)
	.dwattr $C$DW$241, DW_AT_TI_begin_column(0x06)
	.dwattr $C$DW$241, DW_AT_decl_file("../main.c")
	.dwattr $C$DW$241, DW_AT_decl_line(0x411)
	.dwattr $C$DW$241, DW_AT_decl_column(0x06)
	.dwattr $C$DW$241, DW_AT_TI_max_frame_size(0x14)
	.dwpsn	file "../main.c",line 1042,column 1,is_stmt,address MAIN_ExecuteGCLOCK,isa 0

	.dwfde $C$DW$CIE, MAIN_ExecuteGCLOCK

;*****************************************************************************
;* FUNCTION NAME: MAIN_ExecuteGCLOCK                                         *
;*                                                                           *
;*   Regs Modified     : SP,SR,r11,r12,r13,r14,r15                           *
;*   Regs Used         : SP,SR,r11,r12,r13,r14,r15                           *
;*   Local Frame Size  : 16 Args + 0 Auto + 0 Save = 16 byte                 *
;*****************************************************************************
MAIN_ExecuteGCLOCK:
;* --------------------------------------------------------------------------*
	.dwcfi	cfa_offset, 4
	.dwcfi	save_reg_to_mem, 16, -4
        SUBA      #16,SP                ; [] 
	.dwcfi	cfa_offset, 20
	.dwpsn	file "../main.c",line 1044,column 5,is_stmt,isa 0
$C$DW$242	.dwtag  DW_TAG_TI_branch
	.dwattr $C$DW$242, DW_AT_low_pc(0x00)
	.dwattr $C$DW$242, DW_AT_name("STATE_IsRunning")
	.dwattr $C$DW$242, DW_AT_TI_call

        CALLA     #STATE_IsRunning      ; [] |1044| 
                                          ; [] |1044| 
        TST.W     r12                   ; [] |1044| 
        JNE       $C$L125               ; [] |1044| 
