MSP430 Assembler PC v21.6.1 Mon Feb 24 13:22:57 2025

Copyright (c) 2003-2018 Texas Instruments Incorporated
bak.asm                                                              PAGE    1

       1            ;******************************************************************************
       2            ;* MSP430 G3 C/C++ Codegen                                              PC v21.6.1.LTS *
       3            ;* Date/Time created: Mon Feb 24 13:22:57 2025                                *
       4            ;******************************************************************************
       5                    .compiler_opts --abi=eabi --diag_wrap=off --hll_source=on --mem_model:code=large --mem_model:d
       6            
       7            $C$DW$CU        .dwtag  DW_TAG_compile_unit
       8                    .dwattr $C$DW$CU, DW_AT_name("../src/bak.c")
       9                    .dwattr $C$DW$CU, DW_AT_producer("TI MSP430 G3 C/C++ Codegen PC v21.6.1.LTS Copyright (c) 2003
      10                    .dwattr $C$DW$CU, DW_AT_TI_version(0x01)
      11                    .dwattr $C$DW$CU, DW_AT_comp_dir("C:\Users\kyle_\Documents\CodeComposerStudio\PIXIE_MSP430\Deb
      12            $C$DW$1 .dwtag  DW_TAG_variable
      13                    .dwattr $C$DW$1, DW_AT_name("BAKMEM0")
      14                    .dwattr $C$DW$1, DW_AT_TI_symbol_name("BAKMEM0")
      15                    .dwattr $C$DW$1, DW_AT_type(*$C$DW$T$92)
      16                    .dwattr $C$DW$1, DW_AT_declaration
      17                    .dwattr $C$DW$1, DW_AT_external
      18                    .dwattr $C$DW$1, DW_AT_decl_file("C:\ti\ccs1250\ccs\ccs_base\msp430\include\msp430fg6626.h")
      19                    .dwattr $C$DW$1, DW_AT_decl_line(0x9b)
      20                    .dwattr $C$DW$1, DW_AT_decl_column(0x01)
      21            
      22            $C$DW$2 .dwtag  DW_TAG_variable
      23                    .dwattr $C$DW$2, DW_AT_name("BAKMEM1")
      24                    .dwattr $C$DW$2, DW_AT_TI_symbol_name("BAKMEM1")
      25                    .dwattr $C$DW$2, DW_AT_type(*$C$DW$T$92)
      26                    .dwattr $C$DW$2, DW_AT_declaration
      27                    .dwattr $C$DW$2, DW_AT_external
      28                    .dwattr $C$DW$2, DW_AT_decl_file("C:\ti\ccs1250\ccs\ccs_base\msp430\include\msp430fg6626.h")
      29                    .dwattr $C$DW$2, DW_AT_decl_line(0x9e)
      30                    .dwattr $C$DW$2, DW_AT_decl_column(0x01)
      31            
      32            $C$DW$3 .dwtag  DW_TAG_variable
      33                    .dwattr $C$DW$3, DW_AT_name("BAKMEM1_L")
      34                    .dwattr $C$DW$3, DW_AT_TI_symbol_name("BAKMEM1_L")
      35                    .dwattr $C$DW$3, DW_AT_type(*$C$DW$T$59)
      36                    .dwattr $C$DW$3, DW_AT_declaration
      37                    .dwattr $C$DW$3, DW_AT_external
      38                    .dwattr $C$DW$3, DW_AT_decl_file("C:\ti\ccs1250\ccs\ccs_base\msp430\include\msp430fg6626.h")
      39                    .dwattr $C$DW$3, DW_AT_decl_line(0x9f)
      40                    .dwattr $C$DW$3, DW_AT_decl_column(0x01)
      41            
      42            $C$DW$4 .dwtag  DW_TAG_variable
      43                    .dwattr $C$DW$4, DW_AT_name("BAKMEM1_H")
      44                    .dwattr $C$DW$4, DW_AT_TI_symbol_name("BAKMEM1_H")
      45                    .dwattr $C$DW$4, DW_AT_type(*$C$DW$T$59)
      46                    .dwattr $C$DW$4, DW_AT_declaration
      47                    .dwattr $C$DW$4, DW_AT_external
      48                    .dwattr $C$DW$4, DW_AT_decl_file("C:\ti\ccs1250\ccs\ccs_base\msp430\include\msp430fg6626.h")
      49                    .dwattr $C$DW$4, DW_AT_decl_line(0xa0)
      50                    .dwattr $C$DW$4, DW_AT_decl_column(0x01)
      51            
      52            $C$DW$5 .dwtag  DW_TAG_variable
      53                    .dwattr $C$DW$5, DW_AT_name("BAKMEM2")
      54                    .dwattr $C$DW$5, DW_AT_TI_symbol_name("BAKMEM2")
      55                    .dwattr $C$DW$5, DW_AT_type(*$C$DW$T$92)
MSP430 Assembler PC v21.6.1 Mon Feb 24 13:22:57 2025

Copyright (c) 2003-2018 Texas Instruments Incorporated
bak.asm                                                              PAGE    2

      56                    .dwattr $C$DW$5, DW_AT_declaration
      57                    .dwattr $C$DW$5, DW_AT_external
      58                    .dwattr $C$DW$5, DW_AT_decl_file("C:\ti\ccs1250\ccs\ccs_base\msp430\include\msp430fg6626.h")
      59                    .dwattr $C$DW$5, DW_AT_decl_line(0xa1)
      60                    .dwattr $C$DW$5, DW_AT_decl_column(0x01)
      61            
      62            $C$DW$6 .dwtag  DW_TAG_variable
      63                    .dwattr $C$DW$6, DW_AT_name("BAKMEM2_L")
      64                    .dwattr $C$DW$6, DW_AT_TI_symbol_name("BAKMEM2_L")
      65                    .dwattr $C$DW$6, DW_AT_type(*$C$DW$T$59)
      66                    .dwattr $C$DW$6, DW_AT_declaration
      67                    .dwattr $C$DW$6, DW_AT_external
      68                    .dwattr $C$DW$6, DW_AT_decl_file("C:\ti\ccs1250\ccs\ccs_base\msp430\include\msp430fg6626.h")
      69                    .dwattr $C$DW$6, DW_AT_decl_line(0xa2)
      70                    .dwattr $C$DW$6, DW_AT_decl_column(0x01)
      71            
      72            $C$DW$7 .dwtag  DW_TAG_variable
      73                    .dwattr $C$DW$7, DW_AT_name("BAKMEM2_H")
      74                    .dwattr $C$DW$7, DW_AT_TI_symbol_name("BAKMEM2_H")
      75                    .dwattr $C$DW$7, DW_AT_type(*$C$DW$T$59)
      76                    .dwattr $C$DW$7, DW_AT_declaration
      77                    .dwattr $C$DW$7, DW_AT_external
      78                    .dwattr $C$DW$7, DW_AT_decl_file("C:\ti\ccs1250\ccs\ccs_base\msp430\include\msp430fg6626.h")
      79                    .dwattr $C$DW$7, DW_AT_decl_line(0xa3)
      80                    .dwattr $C$DW$7, DW_AT_decl_column(0x01)
      81            
      82            $C$DW$8 .dwtag  DW_TAG_variable
      83                    .dwattr $C$DW$8, DW_AT_name("BAKMEM3")
      84                    .dwattr $C$DW$8, DW_AT_TI_symbol_name("BAKMEM3")
      85                    .dwattr $C$DW$8, DW_AT_type(*$C$DW$T$92)
      86                    .dwattr $C$DW$8, DW_AT_declaration
      87                    .dwattr $C$DW$8, DW_AT_external
      88                    .dwattr $C$DW$8, DW_AT_decl_file("C:\ti\ccs1250\ccs\ccs_base\msp430\include\msp430fg6626.h")
      89                    .dwattr $C$DW$8, DW_AT_decl_line(0xa4)
      90                    .dwattr $C$DW$8, DW_AT_decl_column(0x01)
      91            
      92            $C$DW$9 .dwtag  DW_TAG_variable
      93                    .dwattr $C$DW$9, DW_AT_name("BAKMEM3_L")
      94                    .dwattr $C$DW$9, DW_AT_TI_symbol_name("BAKMEM3_L")
      95                    .dwattr $C$DW$9, DW_AT_type(*$C$DW$T$59)
      96                    .dwattr $C$DW$9, DW_AT_declaration
      97                    .dwattr $C$DW$9, DW_AT_external
      98                    .dwattr $C$DW$9, DW_AT_decl_file("C:\ti\ccs1250\ccs\ccs_base\msp430\include\msp430fg6626.h")
      99                    .dwattr $C$DW$9, DW_AT_decl_line(0xa5)
     100                    .dwattr $C$DW$9, DW_AT_decl_column(0x01)
     101            
     102            $C$DW$10        .dwtag  DW_TAG_variable
     103                    .dwattr $C$DW$10, DW_AT_name("BAKMEM3_H")
     104                    .dwattr $C$DW$10, DW_AT_TI_symbol_name("BAKMEM3_H")
     105                    .dwattr $C$DW$10, DW_AT_type(*$C$DW$T$59)
     106                    .dwattr $C$DW$10, DW_AT_declaration
     107                    .dwattr $C$DW$10, DW_AT_external
     108                    .dwattr $C$DW$10, DW_AT_decl_file("C:\ti\ccs1250\ccs\ccs_base\msp430\include\msp430fg6626.h")
     109                    .dwattr $C$DW$10, DW_AT_decl_line(0xa6)
     110                    .dwattr $C$DW$10, DW_AT_decl_column(0x01)
MSP430 Assembler PC v21.6.1 Mon Feb 24 13:22:57 2025

Copyright (c) 2003-2018 Texas Instruments Incorporated
bak.asm                                                              PAGE    3

     111            
     112            $C$DW$11        .dwtag  DW_TAG_variable
     113                    .dwattr $C$DW$11, DW_AT_name("MAIN_CurrentTime")
     114                    .dwattr $C$DW$11, DW_AT_TI_symbol_name("MAIN_CurrentTime")
     115                    .dwattr $C$DW$11, DW_AT_type(*$C$DW$T$32)
     116                    .dwattr $C$DW$11, DW_AT_declaration
     117                    .dwattr $C$DW$11, DW_AT_external
     118                    .dwattr $C$DW$11, DW_AT_decl_file("C:/Users/kyle_/Documents/CodeComposerStudio/PIXIE_MSP430/in
     119                    .dwattr $C$DW$11, DW_AT_decl_line(0x22)
     120                    .dwattr $C$DW$11, DW_AT_decl_column(0x16)
     121            
     122            $C$DW$12        .dwtag  DW_TAG_variable
     123                    .dwattr $C$DW$12, DW_AT_name("CH_Channels")
     124                    .dwattr $C$DW$12, DW_AT_TI_symbol_name("CH_Channels")
     125                    .dwattr $C$DW$12, DW_AT_type(*$C$DW$T$37)
     126                    .dwattr $C$DW$12, DW_AT_declaration
     127                    .dwattr $C$DW$12, DW_AT_external
     128                    .dwattr $C$DW$12, DW_AT_decl_file("C:/Users/kyle_/Documents/CodeComposerStudio/PIXIE_MSP430/in
     129                    .dwattr $C$DW$12, DW_AT_decl_line(0x3e)
     130                    .dwattr $C$DW$12, DW_AT_decl_column(0x19)
     131            
     132            
     133            $C$DW$13        .dwtag  DW_TAG_subprogram
     134                    .dwattr $C$DW$13, DW_AT_name("CLK_GetRTC")
     135                    .dwattr $C$DW$13, DW_AT_TI_symbol_name("CLK_GetRTC")
     136                    .dwattr $C$DW$13, DW_AT_declaration
     137                    .dwattr $C$DW$13, DW_AT_external
     138                    .dwattr $C$DW$13, DW_AT_decl_file("C:\Users\kyle_\Documents\CodeComposerStudio\PIXIE_MSP430\in
     139                    .dwattr $C$DW$13, DW_AT_decl_line(0x37)
     140                    .dwattr $C$DW$13, DW_AT_decl_column(0x06)
     141            $C$DW$14        .dwtag  DW_TAG_formal_parameter
     142                    .dwattr $C$DW$14, DW_AT_type(*$C$DW$T$33)
     143            
     144                    .dwendtag $C$DW$13
     145            
     146            ;       C:\ti\ccs1250\ccs\tools\compiler\ti-cgt-msp430_21.6.1.LTS\bin\opt430.exe C:\\Users\\kyle_\\App
     147 000000               .sect   ".text:EncodePregain"
     148                    .align  4
     149                    .clink
     150                    .global EncodePregain
     151            
     152            $C$DW$15        .dwtag  DW_TAG_subprogram
     153                    .dwattr $C$DW$15, DW_AT_name("EncodePregain")
     154                    .dwattr $C$DW$15, DW_AT_low_pc(EncodePregain)
     155                    .dwattr $C$DW$15, DW_AT_high_pc(0x00)
     156                    .dwattr $C$DW$15, DW_AT_TI_symbol_name("EncodePregain")
     157                    .dwattr $C$DW$15, DW_AT_external
     158                    .dwattr $C$DW$15, DW_AT_type(*$C$DW$T$66)
     159                    .dwattr $C$DW$15, DW_AT_TI_begin_file("../src/bak.c")
     160                    .dwattr $C$DW$15, DW_AT_TI_begin_line(0xd0)
     161                    .dwattr $C$DW$15, DW_AT_TI_begin_column(0x09)
     162                    .dwattr $C$DW$15, DW_AT_decl_file("../src/bak.c")
     163                    .dwattr $C$DW$15, DW_AT_decl_line(0xd0)
     164                    .dwattr $C$DW$15, DW_AT_decl_column(0x09)
     165                    .dwattr $C$DW$15, DW_AT_TI_max_frame_size(0x04)
MSP430 Assembler PC v21.6.1 Mon Feb 24 13:22:57 2025

Copyright (c) 2003-2018 Texas Instruments Incorporated
bak.asm                                                              PAGE    4

     166                    .dwpsn  file "../src/bak.c",line 209,column 1,is_stmt,address EncodePregain,isa 0
     167            
     168                    .dwfde $C$DW$CIE, EncodePregain
     169            $C$DW$16        .dwtag  DW_TAG_formal_parameter
     170                    .dwattr $C$DW$16, DW_AT_name("ch")
     171                    .dwattr $C$DW$16, DW_AT_TI_symbol_name("ch")
     172                    .dwattr $C$DW$16, DW_AT_type(*$C$DW$T$22)
     173                    .dwattr $C$DW$16, DW_AT_location[DW_OP_reg12]
     174            
     175            
     176            ;*****************************************************************************
     177            ;* FUNCTION NAME: EncodePregain                                              *
     178            ;*                                                                           *
     179            ;*   Regs Modified     : SP,SR,r12,r15                                       *
     180            ;*   Regs Used         : SP,SR,r12,r15                                       *
     181            ;*   Local Frame Size  : 0 Args + 0 Auto + 0 Save = 0 byte                   *
     182            ;*****************************************************************************
     183 000000       EncodePregain:
     184            ;* --------------------------------------------------------------------------*
     185                    .dwcfi  cfa_offset, 4
     186                    .dwcfi  save_reg_to_mem, 16, -4
     187                    .dwpsn  file "../src/bak.c",line 210,column 5,is_stmt,isa 0
     188 000000 065C          RLAM.W    #2,r12                ; [] |210| 
     189 000002 1800!         MOVX.A    CH_Channels+0(r12),r15 ; [] |210| 
         000004 4C5F 
         000006 0000 
     190 000008 4F1F          MOV.W     4(r15),r15            ; [] |210| 
         00000a 0004 
     191 00000c 831F          SUB.W     #1,r15                ; [] |210| 
     192 00000e 2412          JEQ       $C$L1                 ; [] |210| 
     193                                                      ; [] |210| 
     194            ;* --------------------------------------------------------------------------*
     195 000010 831F          SUB.W     #1,r15                ; [] |210| 
     196 000012 2412          JEQ       $C$L2                 ; [] |210| 
     197                                                      ; [] |210| 
     198            ;* --------------------------------------------------------------------------*
     199 000014 803F          SUB.W     #3,r15                ; [] |210| 
         000016 0003 
     200 000018 2411          JEQ       $C$L3                 ; [] |210| 
     201                                                      ; [] |210| 
     202            ;* --------------------------------------------------------------------------*
     203 00001a 803F          SUB.W     #5,r15                ; [] |210| 
         00001c 0005 
     204 00001e 2412          JEQ       $C$L4                 ; [] |210| 
     205                                                      ; [] |210| 
     206            ;* --------------------------------------------------------------------------*
     207 000020 803F          SUB.W     #10,r15               ; [] |210| 
         000022 000A 
     208 000024 2411          JEQ       $C$L5                 ; [] |210| 
     209                                                      ; [] |210| 
     210            ;* --------------------------------------------------------------------------*
     211 000026 803F          SUB.W     #30,r15               ; [] |210| 
         000028 001E 
     212 00002a 2412          JEQ       $C$L6                 ; [] |210| 
     213                                                      ; [] |210| 
MSP430 Assembler PC v21.6.1 Mon Feb 24 13:22:57 2025

Copyright (c) 2003-2018 Texas Instruments Incorporated
bak.asm                                                              PAGE    5

     214            ;* --------------------------------------------------------------------------*
     215 00002c 803F          SUB.W     #50,r15               ; [] |210| 
         00002e 0032 
     216 000030 2413          JEQ       $C$L7                 ; [] |210| 
     217                                                      ; [] |210| 
     218            ;* --------------------------------------------------------------------------*
     219 000032 3C16          JMP       $C$L8                 ; [] |210| 
     220                                                      ; [] |210| 
     221            ;* --------------------------------------------------------------------------*
     222                    .align  4
     223 000034       $C$L1:    
     224                    .dwcfi  remember_state
     225                    .dwpsn  file "../src/bak.c",line 215,column 9,is_stmt,isa 0
     226 000034 435C          MOV.B     #1,r12                ; [] |215| 
     227            $C$DW$17        .dwtag  DW_TAG_TI_branch
     228                    .dwattr $C$DW$17, DW_AT_low_pc(0x00)
     229                    .dwattr $C$DW$17, DW_AT_TI_return
     230            
     231 000036 0110          RETA      ; [] 
     232                    ; [] 
     233                    .dwcfi  restore_state
     234            ;* --------------------------------------------------------------------------*
     235                    .align  4
     236 000038       $C$L2:    
     237                    .dwcfi  remember_state
     238                    .dwpsn  file "../src/bak.c",line 217,column 9,is_stmt,isa 0
     239 000038 436C          MOV.B     #2,r12                ; [] |217| 
     240            $C$DW$18        .dwtag  DW_TAG_TI_branch
     241                    .dwattr $C$DW$18, DW_AT_low_pc(0x00)
     242                    .dwattr $C$DW$18, DW_AT_TI_return
     243            
     244 00003a 0110          RETA      ; [] 
     245                    ; [] 
     246                    .dwcfi  restore_state
     247            ;* --------------------------------------------------------------------------*
     248                    .align  4
     249 00003c       $C$L3:    
     250                    .dwcfi  remember_state
     251                    .dwpsn  file "../src/bak.c",line 219,column 9,is_stmt,isa 0
     252 00003c 407C          MOV.B     #3,r12                ; [] |219| 
         00003e 0003 
     253            $C$DW$19        .dwtag  DW_TAG_TI_branch
     254                    .dwattr $C$DW$19, DW_AT_low_pc(0x00)
     255                    .dwattr $C$DW$19, DW_AT_TI_return
     256            
     257 000040 0110          RETA      ; [] 
     258                    ; [] 
     259                    .dwcfi  restore_state
     260            ;* --------------------------------------------------------------------------*
     261                    .align  4
     262 000044       $C$L4:    
     263                    .dwcfi  remember_state
     264                    .dwpsn  file "../src/bak.c",line 221,column 9,is_stmt,isa 0
     265 000044 426C          MOV.B     #4,r12                ; [] |221| 
     266            $C$DW$20        .dwtag  DW_TAG_TI_branch
MSP430 Assembler PC v21.6.1 Mon Feb 24 13:22:57 2025

Copyright (c) 2003-2018 Texas Instruments Incorporated
bak.asm                                                              PAGE    6

     267                    .dwattr $C$DW$20, DW_AT_low_pc(0x00)
     268                    .dwattr $C$DW$20, DW_AT_TI_return
     269            
     270 000046 0110          RETA      ; [] 
     271                    ; [] 
     272                    .dwcfi  restore_state
     273            ;* --------------------------------------------------------------------------*
     274                    .align  4
     275 000048       $C$L5:    
     276                    .dwcfi  remember_state
     277                    .dwpsn  file "../src/bak.c",line 223,column 9,is_stmt,isa 0
     278 000048 407C          MOV.B     #5,r12                ; [] |223| 
         00004a 0005 
     279            $C$DW$21        .dwtag  DW_TAG_TI_branch
     280                    .dwattr $C$DW$21, DW_AT_low_pc(0x00)
     281                    .dwattr $C$DW$21, DW_AT_TI_return
     282            
     283 00004c 0110          RETA      ; [] 
     284                    ; [] 
     285                    .dwcfi  restore_state
     286            ;* --------------------------------------------------------------------------*
     287                    .align  4
     288 000050       $C$L6:    
     289                    .dwcfi  remember_state
     290                    .dwpsn  file "../src/bak.c",line 225,column 9,is_stmt,isa 0
     291 000050 407C          MOV.B     #6,r12                ; [] |225| 
         000052 0006 
     292            $C$DW$22        .dwtag  DW_TAG_TI_branch
     293                    .dwattr $C$DW$22, DW_AT_low_pc(0x00)
     294                    .dwattr $C$DW$22, DW_AT_TI_return
     295            
     296 000054 0110          RETA      ; [] 
     297                    ; [] 
     298                    .dwcfi  restore_state
     299            ;* --------------------------------------------------------------------------*
     300                    .align  4
     301 000058       $C$L7:    
     302                    .dwcfi  remember_state
     303                    .dwpsn  file "../src/bak.c",line 227,column 9,is_stmt,isa 0
     304 000058 407C          MOV.B     #7,r12                ; [] |227| 
         00005a 0007 
     305            $C$DW$23        .dwtag  DW_TAG_TI_branch
     306                    .dwattr $C$DW$23, DW_AT_low_pc(0x00)
     307                    .dwattr $C$DW$23, DW_AT_TI_return
     308            
     309 00005c 0110          RETA      ; [] 
     310                    ; [] 
     311                    .dwcfi  restore_state
     312            ;* --------------------------------------------------------------------------*
     313                    .align  4
     314 000060       $C$L8:    
     315                    .dwpsn  file "../src/bak.c",line 231,column 5,is_stmt,isa 0
     316 000060 434C          MOV.B     #0,r12                ; [] |231| 
     317            $C$DW$24        .dwtag  DW_TAG_TI_branch
     318                    .dwattr $C$DW$24, DW_AT_low_pc(0x00)
MSP430 Assembler PC v21.6.1 Mon Feb 24 13:22:57 2025

Copyright (c) 2003-2018 Texas Instruments Incorporated
bak.asm                                                              PAGE    7

     319                    .dwattr $C$DW$24, DW_AT_TI_return
     320            
     321 000062 0110          RETA      ; [] 
     322                    ; [] 
     323                    .dwattr $C$DW$15, DW_AT_TI_end_file("../src/bak.c")
     324                    .dwattr $C$DW$15, DW_AT_TI_end_line(0xe8)
     325                    .dwattr $C$DW$15, DW_AT_TI_end_column(0x01)
     326                    .dwendentry
     327                    .dwendtag $C$DW$15
     328            
     329 000000               .sect   ".text:EncodeGain"
     330                    .align  4
     331                    .clink
     332                    .global EncodeGain
     333            
     334            $C$DW$25        .dwtag  DW_TAG_subprogram
     335                    .dwattr $C$DW$25, DW_AT_name("EncodeGain")
     336                    .dwattr $C$DW$25, DW_AT_low_pc(EncodeGain)
     337                    .dwattr $C$DW$25, DW_AT_high_pc(0x00)
     338                    .dwattr $C$DW$25, DW_AT_TI_symbol_name("EncodeGain")
     339                    .dwattr $C$DW$25, DW_AT_external
     340                    .dwattr $C$DW$25, DW_AT_type(*$C$DW$T$66)
     341                    .dwattr $C$DW$25, DW_AT_TI_begin_file("../src/bak.c")
     342                    .dwattr $C$DW$25, DW_AT_TI_begin_line(0xbb)
     343                    .dwattr $C$DW$25, DW_AT_TI_begin_column(0x09)
     344                    .dwattr $C$DW$25, DW_AT_decl_file("../src/bak.c")
     345                    .dwattr $C$DW$25, DW_AT_decl_line(0xbb)
     346                    .dwattr $C$DW$25, DW_AT_decl_column(0x09)
     347                    .dwattr $C$DW$25, DW_AT_TI_max_frame_size(0x04)
     348                    .dwpsn  file "../src/bak.c",line 188,column 1,is_stmt,address EncodeGain,isa 0
     349            
     350                    .dwfde $C$DW$CIE, EncodeGain
     351            $C$DW$26        .dwtag  DW_TAG_formal_parameter
     352                    .dwattr $C$DW$26, DW_AT_name("ch")
     353                    .dwattr $C$DW$26, DW_AT_TI_symbol_name("ch")
     354                    .dwattr $C$DW$26, DW_AT_type(*$C$DW$T$22)
     355                    .dwattr $C$DW$26, DW_AT_location[DW_OP_reg12]
     356            
     357            
     358            ;*****************************************************************************
     359            ;* FUNCTION NAME: EncodeGain                                                 *
     360            ;*                                                                           *
     361            ;*   Regs Modified     : SP,SR,r12,r15                                       *
     362            ;*   Regs Used         : SP,SR,r12,r15                                       *
     363            ;*   Local Frame Size  : 0 Args + 0 Auto + 0 Save = 0 byte                   *
     364            ;*****************************************************************************
     365 000000       EncodeGain:
     366            ;* --------------------------------------------------------------------------*
     367                    .dwcfi  cfa_offset, 4
     368                    .dwcfi  save_reg_to_mem, 16, -4
     369                    .dwpsn  file "../src/bak.c",line 189,column 5,is_stmt,isa 0
     370 000000 065C          RLAM.W    #2,r12                ; [] |189| 
     371 000002 1800!         MOVX.A    CH_Channels+0(r12),r15 ; [] |189| 
         000004 4C5F 
         000006 0000 
MSP430 Assembler PC v21.6.1 Mon Feb 24 13:22:57 2025

Copyright (c) 2003-2018 Texas Instruments Incorporated
bak.asm                                                              PAGE    8

     372 000008 4F1F          MOV.W     6(r15),r15            ; [] |189| 
         00000a 0006 
     373 00000c 832F          SUB.W     #2,r15                ; [] |189| 
     374 00000e 2408          JEQ       $C$L9                 ; [] |189| 
     375                                                      ; [] |189| 
     376            ;* --------------------------------------------------------------------------*
     377 000010 832F          SUB.W     #2,r15                ; [] |189| 
     378 000012 2408          JEQ       $C$L10                ; [] |189| 
     379                                                      ; [] |189| 
     380            ;* --------------------------------------------------------------------------*
     381 000014 822F          SUB.W     #4,r15                ; [] |189| 
     382 000016 2408          JEQ       $C$L11                ; [] |189| 
     383                                                      ; [] |189| 
     384            ;* --------------------------------------------------------------------------*
     385 000018 823F          SUB.W     #8,r15                ; [] |189| 
     386 00001a 240A          JEQ       $C$L12                ; [] |189| 
     387                                                      ; [] |189| 
     388            ;* --------------------------------------------------------------------------*
     389 00001c 3C0B          JMP       $C$L13                ; [] |189| 
     390                                                      ; [] |189| 
     391            ;* --------------------------------------------------------------------------*
     392                    .align  4
     393 000020       $C$L9:    
     394                    .dwcfi  remember_state
     395                    .dwpsn  file "../src/bak.c",line 194,column 9,is_stmt,isa 0
     396 000020 435C          MOV.B     #1,r12                ; [] |194| 
     397            $C$DW$27        .dwtag  DW_TAG_TI_branch
     398                    .dwattr $C$DW$27, DW_AT_low_pc(0x00)
     399                    .dwattr $C$DW$27, DW_AT_TI_return
     400            
     401 000022 0110          RETA      ; [] 
     402                    ; [] 
     403                    .dwcfi  restore_state
     404            ;* --------------------------------------------------------------------------*
     405                    .align  4
     406 000024       $C$L10:    
     407                    .dwcfi  remember_state
     408                    .dwpsn  file "../src/bak.c",line 196,column 9,is_stmt,isa 0
     409 000024 436C          MOV.B     #2,r12                ; [] |196| 
     410            $C$DW$28        .dwtag  DW_TAG_TI_branch
     411                    .dwattr $C$DW$28, DW_AT_low_pc(0x00)
     412                    .dwattr $C$DW$28, DW_AT_TI_return
     413            
     414 000026 0110          RETA      ; [] 
     415                    ; [] 
     416                    .dwcfi  restore_state
     417            ;* --------------------------------------------------------------------------*
     418                    .align  4
     419 000028       $C$L11:    
     420                    .dwcfi  remember_state
     421                    .dwpsn  file "../src/bak.c",line 198,column 9,is_stmt,isa 0
     422 000028 407C          MOV.B     #3,r12                ; [] |198| 
         00002a 0003 
     423            $C$DW$29        .dwtag  DW_TAG_TI_branch
     424                    .dwattr $C$DW$29, DW_AT_low_pc(0x00)
MSP430 Assembler PC v21.6.1 Mon Feb 24 13:22:57 2025

Copyright (c) 2003-2018 Texas Instruments Incorporated
bak.asm                                                              PAGE    9

     425                    .dwattr $C$DW$29, DW_AT_TI_return
     426            
     427 00002c 0110          RETA      ; [] 
     428                    ; [] 
     429                    .dwcfi  restore_state
     430            ;* --------------------------------------------------------------------------*
     431                    .align  4
     432 000030       $C$L12:    
     433                    .dwcfi  remember_state
     434                    .dwpsn  file "../src/bak.c",line 200,column 9,is_stmt,isa 0
     435 000030 426C          MOV.B     #4,r12                ; [] |200| 
     436            $C$DW$30        .dwtag  DW_TAG_TI_branch
     437                    .dwattr $C$DW$30, DW_AT_low_pc(0x00)
     438                    .dwattr $C$DW$30, DW_AT_TI_return
     439            
     440 000032 0110          RETA      ; [] 
     441                    ; [] 
     442                    .dwcfi  restore_state
     443            ;* --------------------------------------------------------------------------*
     444                    .align  4
     445 000034       $C$L13:    
     446                    .dwpsn  file "../src/bak.c",line 204,column 5,is_stmt,isa 0
     447 000034 434C          MOV.B     #0,r12                ; [] |204| 
     448            $C$DW$31        .dwtag  DW_TAG_TI_branch
     449                    .dwattr $C$DW$31, DW_AT_low_pc(0x00)
     450                    .dwattr $C$DW$31, DW_AT_TI_return
     451            
     452 000036 0110          RETA      ; [] 
     453                    ; [] 
     454                    .dwattr $C$DW$25, DW_AT_TI_end_file("../src/bak.c")
     455                    .dwattr $C$DW$25, DW_AT_TI_end_line(0xcd)
     456                    .dwattr $C$DW$25, DW_AT_TI_end_column(0x01)
     457                    .dwendentry
     458                    .dwendtag $C$DW$25
     459            
     460 000000               .sect   ".text:EncodeAtten"
     461                    .align  4
     462                    .clink
     463                    .global EncodeAtten
     464            
     465            $C$DW$32        .dwtag  DW_TAG_subprogram
     466                    .dwattr $C$DW$32, DW_AT_name("EncodeAtten")
     467                    .dwattr $C$DW$32, DW_AT_low_pc(EncodeAtten)
     468                    .dwattr $C$DW$32, DW_AT_high_pc(0x00)
     469                    .dwattr $C$DW$32, DW_AT_TI_symbol_name("EncodeAtten")
     470                    .dwattr $C$DW$32, DW_AT_external
     471                    .dwattr $C$DW$32, DW_AT_type(*$C$DW$T$66)
     472                    .dwattr $C$DW$32, DW_AT_TI_begin_file("../src/bak.c")
     473                    .dwattr $C$DW$32, DW_AT_TI_begin_line(0xb5)
     474                    .dwattr $C$DW$32, DW_AT_TI_begin_column(0x09)
     475                    .dwattr $C$DW$32, DW_AT_decl_file("../src/bak.c")
     476                    .dwattr $C$DW$32, DW_AT_decl_line(0xb5)
     477                    .dwattr $C$DW$32, DW_AT_decl_column(0x09)
     478                    .dwattr $C$DW$32, DW_AT_TI_max_frame_size(0x04)
     479                    .dwpsn  file "../src/bak.c",line 182,column 1,is_stmt,address EncodeAtten,isa 0
MSP430 Assembler PC v21.6.1 Mon Feb 24 13:22:57 2025

Copyright (c) 2003-2018 Texas Instruments Incorporated
bak.asm                                                              PAGE   10

     480            
     481                    .dwfde $C$DW$CIE, EncodeAtten
     482            $C$DW$33        .dwtag  DW_TAG_formal_parameter
     483                    .dwattr $C$DW$33, DW_AT_name("ch")
     484                    .dwattr $C$DW$33, DW_AT_TI_symbol_name("ch")
     485                    .dwattr $C$DW$33, DW_AT_type(*$C$DW$T$22)
     486                    .dwattr $C$DW$33, DW_AT_location[DW_OP_reg12]
     487            
     488            
     489            ;*****************************************************************************
     490            ;* FUNCTION NAME: EncodeAtten                                                *
     491            ;*                                                                           *
     492            ;*   Regs Modified     : SP,SR,r12,r15                                       *
     493            ;*   Regs Used         : SP,SR,r12,r15                                       *
     494            ;*   Local Frame Size  : 0 Args + 0 Auto + 0 Save = 0 byte                   *
     495            ;*****************************************************************************
     496 000000       EncodeAtten:
     497            ;* --------------------------------------------------------------------------*
     498                    .dwcfi  cfa_offset, 4
     499                    .dwcfi  save_reg_to_mem, 16, -4
     500                    .dwpsn  file "../src/bak.c",line 183,column 5,is_stmt,isa 0
     501 000000 065C          RLAM.W    #2,r12                ; [] |183| 
     502 000002 1800!         MOVX.A    CH_Channels+0(r12),r15 ; [] |183| 
         000004 4C5F 
         000006 0000 
     503 000008 4F5C          MOV.B     8(r15),r12            ; [] |183| 
         00000a 0008 
     504            $C$DW$34        .dwtag  DW_TAG_TI_branch
     505                    .dwattr $C$DW$34, DW_AT_low_pc(0x00)
     506                    .dwattr $C$DW$34, DW_AT_TI_return
     507            
     508 00000c 0110          RETA      ; [] 
     509                    ; [] 
     510                    .dwattr $C$DW$32, DW_AT_TI_end_file("../src/bak.c")
     511                    .dwattr $C$DW$32, DW_AT_TI_end_line(0xb8)
     512                    .dwattr $C$DW$32, DW_AT_TI_end_column(0x01)
     513                    .dwendentry
     514                    .dwendtag $C$DW$32
     515            
     516 000000               .sect   ".text:DecodePregain"
     517                    .align  4
     518                    .clink
     519                    .global DecodePregain
     520            
     521            $C$DW$35        .dwtag  DW_TAG_subprogram
     522                    .dwattr $C$DW$35, DW_AT_name("DecodePregain")
     523                    .dwattr $C$DW$35, DW_AT_low_pc(DecodePregain)
     524                    .dwattr $C$DW$35, DW_AT_high_pc(0x00)
     525                    .dwattr $C$DW$35, DW_AT_TI_symbol_name("DecodePregain")
     526                    .dwattr $C$DW$35, DW_AT_external
     527                    .dwattr $C$DW$35, DW_AT_type(*$C$DW$T$22)
     528                    .dwattr $C$DW$35, DW_AT_TI_begin_file("../src/bak.c")
     529                    .dwattr $C$DW$35, DW_AT_TI_begin_line(0x12a)
     530                    .dwattr $C$DW$35, DW_AT_TI_begin_column(0x0a)
     531                    .dwattr $C$DW$35, DW_AT_decl_file("../src/bak.c")
MSP430 Assembler PC v21.6.1 Mon Feb 24 13:22:57 2025

Copyright (c) 2003-2018 Texas Instruments Incorporated
bak.asm                                                              PAGE   11

     532                    .dwattr $C$DW$35, DW_AT_decl_line(0x12a)
     533                    .dwattr $C$DW$35, DW_AT_decl_column(0x0a)
     534                    .dwattr $C$DW$35, DW_AT_TI_max_frame_size(0x04)
     535                    .dwpsn  file "../src/bak.c",line 299,column 1,is_stmt,address DecodePregain,isa 0
     536            
     537                    .dwfde $C$DW$CIE, DecodePregain
     538            $C$DW$36        .dwtag  DW_TAG_formal_parameter
     539                    .dwattr $C$DW$36, DW_AT_name("val")
     540                    .dwattr $C$DW$36, DW_AT_TI_symbol_name("val")
     541                    .dwattr $C$DW$36, DW_AT_type(*$C$DW$T$22)
     542                    .dwattr $C$DW$36, DW_AT_location[DW_OP_reg12]
     543            
     544            $C$DW$37        .dwtag  DW_TAG_formal_parameter
     545                    .dwattr $C$DW$37, DW_AT_name("ch")
     546                    .dwattr $C$DW$37, DW_AT_TI_symbol_name("ch")
     547                    .dwattr $C$DW$37, DW_AT_type(*$C$DW$T$22)
     548                    .dwattr $C$DW$37, DW_AT_location[DW_OP_reg13]
     549            
     550            
     551            ;*****************************************************************************
     552            ;* FUNCTION NAME: DecodePregain                                              *
     553            ;*                                                                           *
     554            ;*   Regs Modified     : SP,SR,r12,r13                                       *
     555            ;*   Regs Used         : SP,SR,r12,r13                                       *
     556            ;*   Local Frame Size  : 0 Args + 0 Auto + 0 Save = 0 byte                   *
     557            ;*****************************************************************************
     558 000000       DecodePregain:
     559            ;* --------------------------------------------------------------------------*
     560                    .dwcfi  cfa_offset, 4
     561                    .dwcfi  save_reg_to_mem, 16, -4
     562                    .dwpsn  file "../src/bak.c",line 300,column 5,is_stmt,isa 0
     563 000000 923C          CMP.W     #8,r12                ; [] |300| 
     564 000002 2C22          JHS       $C$L19                ; [] |300| 
     565                                                      ; [] |300| 
     566            ;* --------------------------------------------------------------------------*
     567 000004 065C          RLAM.W    #2,r12                ; [] |300| 
     568 000006 1800!         MOVX.A    $C$SW1+0(r12),PC      ; [] |300| 
         000008 4C50 
         00000a 0000 
     569                                                      ; [] |300| 
     570 00000c 0000! $C$SW1: .long   $C$L14  ; 0
         00000e 0000 
     571 000010 0000!         .long   $C$L15  ; 1
         000012 0000 
     572 000014 0000!         .long   $C$L16  ; 2
         000016 0000 
     573 000018 0000!         .long   $C$L17  ; 3
         00001a 0000 
     574 00001c 0000!         .long   $C$L20  ; 4
         00001e 0000 
     575 000020 0000!         .long   $C$L18  ; 5
         000022 0000 
     576 000024 0000!         .long   $C$L22  ; 6
         000026 0000 
     577 000028 0000!         .long   $C$L21  ; 7
MSP430 Assembler PC v21.6.1 Mon Feb 24 13:22:57 2025

Copyright (c) 2003-2018 Texas Instruments Incorporated
bak.asm                                                              PAGE   12

         00002a 0000 
     578            ;* --------------------------------------------------------------------------*
     579                    .align  4
     580 00002c       $C$L14:    
     581                    .dwcfi  remember_state
     582                    .dwpsn  file "../src/bak.c",line 303,column 9,is_stmt,isa 0
     583 00002c 430C          MOV.W     #0,r12                ; [] |303| 
     584            $C$DW$38        .dwtag  DW_TAG_TI_branch
     585                    .dwattr $C$DW$38, DW_AT_low_pc(0x00)
     586                    .dwattr $C$DW$38, DW_AT_TI_return
     587            
     588 00002e 0110          RETA      ; [] 
     589                    ; [] 
     590                    .dwcfi  restore_state
     591            ;* --------------------------------------------------------------------------*
     592                    .align  4
     593 000030       $C$L15:    
     594                    .dwcfi  remember_state
     595                    .dwpsn  file "../src/bak.c",line 305,column 9,is_stmt,isa 0
     596 000030 431C          MOV.W     #1,r12                ; [] |305| 
     597            $C$DW$39        .dwtag  DW_TAG_TI_branch
     598                    .dwattr $C$DW$39, DW_AT_low_pc(0x00)
     599                    .dwattr $C$DW$39, DW_AT_TI_return
     600            
     601 000032 0110          RETA      ; [] 
     602                    ; [] 
     603                    .dwcfi  restore_state
     604            ;* --------------------------------------------------------------------------*
     605                    .align  4
     606 000034       $C$L16:    
     607                    .dwcfi  remember_state
     608                    .dwpsn  file "../src/bak.c",line 307,column 9,is_stmt,isa 0
     609 000034 432C          MOV.W     #2,r12                ; [] |307| 
     610            $C$DW$40        .dwtag  DW_TAG_TI_branch
     611                    .dwattr $C$DW$40, DW_AT_low_pc(0x00)
     612                    .dwattr $C$DW$40, DW_AT_TI_return
     613            
     614 000036 0110          RETA      ; [] 
     615                    ; [] 
     616                    .dwcfi  restore_state
     617            ;* --------------------------------------------------------------------------*
     618                    .align  4
     619 000038       $C$L17:    
     620                    .dwcfi  remember_state
     621                    .dwpsn  file "../src/bak.c",line 309,column 9,is_stmt,isa 0
     622 000038 403C          MOV.W     #5,r12                ; [] |309| 
         00003a 0005 
     623            $C$DW$41        .dwtag  DW_TAG_TI_branch
     624                    .dwattr $C$DW$41, DW_AT_low_pc(0x00)
     625                    .dwattr $C$DW$41, DW_AT_TI_return
     626            
     627 00003c 0110          RETA      ; [] 
     628                    ; [] 
     629                    .dwcfi  restore_state
     630            ;* --------------------------------------------------------------------------*
MSP430 Assembler PC v21.6.1 Mon Feb 24 13:22:57 2025

Copyright (c) 2003-2018 Texas Instruments Incorporated
bak.asm                                                              PAGE   13

     631                    .align  4
     632 000040       $C$L18:    
     633                    .dwcfi  remember_state
     634                    .dwpsn  file "../src/bak.c",line 313,column 9,is_stmt,isa 0
     635 000040 403C          MOV.W     #20,r12               ; [] |313| 
         000042 0014 
     636            $C$DW$42        .dwtag  DW_TAG_TI_branch
     637                    .dwattr $C$DW$42, DW_AT_low_pc(0x00)
     638                    .dwattr $C$DW$42, DW_AT_TI_return
     639            
     640 000044 0110          RETA      ; [] 
     641                    ; [] 
     642                    .dwcfi  restore_state
     643            ;* --------------------------------------------------------------------------*
     644                    .align  4
     645 000048       $C$L19:    
     646                    .dwpsn  file "../src/bak.c",line 323,column 5,is_stmt,isa 0
     647 000048 832D          SUB.W     #2,r13                ; [] |323| 
     648 00004a 932D          CMP.W     #2,r13                ; [] |323| 
     649 00004c 2803          JLO       $C$L20                ; [] |323| 
     650                                                      ; [] |323| 
     651            ;* --------------------------------------------------------------------------*
     652 00004e 832D          SUB.W     #2,r13                ; [] |323| 
     653 000050 2405          JEQ       $C$L21                ; [] |323| 
     654                                                      ; [] |323| 
     655            ;* --------------------------------------------------------------------------*
     656 000052 3C08          JMP       $C$L22                ; [] |323| 
     657                                                      ; [] |323| 
     658            ;* --------------------------------------------------------------------------*
     659                    .align  4
     660 000054       $C$L20:    
     661                    .dwcfi  remember_state
     662                    .dwpsn  file "../src/bak.c",line 330,column 9,is_stmt,isa 0
     663 000054 403C          MOV.W     #10,r12               ; [] |330| 
         000056 000A 
     664            $C$DW$43        .dwtag  DW_TAG_TI_branch
     665                    .dwattr $C$DW$43, DW_AT_low_pc(0x00)
     666                    .dwattr $C$DW$43, DW_AT_TI_return
     667            
     668 000058 0110          RETA      ; [] 
     669                    ; [] 
     670                    .dwcfi  restore_state
     671            ;* --------------------------------------------------------------------------*
     672                    .align  4
     673 00005c       $C$L21:    
     674                    .dwcfi  remember_state
     675                    .dwpsn  file "../src/bak.c",line 332,column 9,is_stmt,isa 0
     676 00005c 403C          MOV.W     #100,r12              ; [] |332| 
         00005e 0064 
     677            $C$DW$44        .dwtag  DW_TAG_TI_branch
     678                    .dwattr $C$DW$44, DW_AT_low_pc(0x00)
     679                    .dwattr $C$DW$44, DW_AT_TI_return
     680            
     681 000060 0110          RETA      ; [] 
     682                    ; [] 
MSP430 Assembler PC v21.6.1 Mon Feb 24 13:22:57 2025

Copyright (c) 2003-2018 Texas Instruments Incorporated
bak.asm                                                              PAGE   14

     683                    .dwcfi  restore_state
     684            ;* --------------------------------------------------------------------------*
     685                    .align  4
     686 000064       $C$L22:    
     687                    .dwpsn  file "../src/bak.c",line 337,column 5,is_stmt,isa 0
     688 000064 403C          MOV.W     #50,r12               ; [] |337| 
         000066 0032 
     689            $C$DW$45        .dwtag  DW_TAG_TI_branch
     690                    .dwattr $C$DW$45, DW_AT_low_pc(0x00)
     691                    .dwattr $C$DW$45, DW_AT_TI_return
     692            
     693 000068 0110          RETA      ; [] 
     694                    ; [] 
     695                    .dwattr $C$DW$35, DW_AT_TI_end_file("../src/bak.c")
     696                    .dwattr $C$DW$35, DW_AT_TI_end_line(0x152)
     697                    .dwattr $C$DW$35, DW_AT_TI_end_column(0x01)
     698                    .dwendentry
     699                    .dwendtag $C$DW$35
     700            
     701 000000               .sect   ".text:DecodeGain"
     702                    .align  4
     703                    .clink
     704                    .global DecodeGain
     705            
     706            $C$DW$46        .dwtag  DW_TAG_subprogram
     707                    .dwattr $C$DW$46, DW_AT_name("DecodeGain")
     708                    .dwattr $C$DW$46, DW_AT_low_pc(DecodeGain)
     709                    .dwattr $C$DW$46, DW_AT_high_pc(0x00)
     710                    .dwattr $C$DW$46, DW_AT_TI_symbol_name("DecodeGain")
     711                    .dwattr $C$DW$46, DW_AT_external
     712                    .dwattr $C$DW$46, DW_AT_type(*$C$DW$T$22)
     713                    .dwattr $C$DW$46, DW_AT_TI_begin_file("../src/bak.c")
     714                    .dwattr $C$DW$46, DW_AT_TI_begin_line(0x105)
     715                    .dwattr $C$DW$46, DW_AT_TI_begin_column(0x0a)
     716                    .dwattr $C$DW$46, DW_AT_decl_file("../src/bak.c")
     717                    .dwattr $C$DW$46, DW_AT_decl_line(0x105)
     718                    .dwattr $C$DW$46, DW_AT_decl_column(0x0a)
     719                    .dwattr $C$DW$46, DW_AT_TI_max_frame_size(0x04)
     720                    .dwpsn  file "../src/bak.c",line 262,column 1,is_stmt,address DecodeGain,isa 0
     721            
     722                    .dwfde $C$DW$CIE, DecodeGain
     723            $C$DW$47        .dwtag  DW_TAG_formal_parameter
     724                    .dwattr $C$DW$47, DW_AT_name("val")
     725                    .dwattr $C$DW$47, DW_AT_TI_symbol_name("val")
     726                    .dwattr $C$DW$47, DW_AT_type(*$C$DW$T$22)
     727                    .dwattr $C$DW$47, DW_AT_location[DW_OP_reg12]
     728            
     729            $C$DW$48        .dwtag  DW_TAG_formal_parameter
     730                    .dwattr $C$DW$48, DW_AT_name("ch")
     731                    .dwattr $C$DW$48, DW_AT_TI_symbol_name("ch")
     732                    .dwattr $C$DW$48, DW_AT_type(*$C$DW$T$22)
     733                    .dwattr $C$DW$48, DW_AT_location[DW_OP_reg13]
     734            
     735            
     736            ;*****************************************************************************
MSP430 Assembler PC v21.6.1 Mon Feb 24 13:22:57 2025

Copyright (c) 2003-2018 Texas Instruments Incorporated
bak.asm                                                              PAGE   15

     737            ;* FUNCTION NAME: DecodeGain                                                 *
     738            ;*                                                                           *
     739            ;*   Regs Modified     : SP,SR,r12                                           *
     740            ;*   Regs Used         : SP,SR,r12,r13                                       *
     741            ;*   Local Frame Size  : 0 Args + 0 Auto + 0 Save = 0 byte                   *
     742            ;*****************************************************************************
     743            DecodeGain:
     744            ;* --------------------------------------------------------------------------*
     745            ;* r13   assigned to ch
     746            $C$DW$49        .dwtag  DW_TAG_variable
     747                    .dwattr $C$DW$49, DW_AT_name("ch")
     748                    .dwattr $C$DW$49, DW_AT_TI_symbol_name("ch")
     749                    .dwattr $C$DW$49, DW_AT_type(*$C$DW$T$109)
     750                    .dwattr $C$DW$49, DW_AT_location[DW_OP_reg13]
     751            
     752                    .dwcfi  cfa_offset, 4
     753                    .dwcfi  save_reg_to_mem, 16, -4
     754                    .dwpsn  file "../src/bak.c",line 263,column 5,is_stmt,isa 0
     755 000000 930C          TST.W     r12                   ; [] |263| 
     756 000002 240A          JEQ       $C$L23                ; [] |263| 
     757                                                      ; [] |263| 
     758            ;* --------------------------------------------------------------------------*
     759 000004 831C          SUB.W     #1,r12                ; [] |263| 
     760 000006 240A          JEQ       $C$L24                ; [] |263| 
     761                                                      ; [] |263| 
     762            ;* --------------------------------------------------------------------------*
     763 000008 831C          SUB.W     #1,r12                ; [] |263| 
     764 00000a 240A          JEQ       $C$L25                ; [] |263| 
     765                                                      ; [] |263| 
     766            ;* --------------------------------------------------------------------------*
     767 00000c 831C          SUB.W     #1,r12                ; [] |263| 
     768 00000e 240C          JEQ       $C$L27                ; [] |263| 
     769                                                      ; [] |263| 
     770            ;* --------------------------------------------------------------------------*
     771 000010 831C          SUB.W     #1,r12                ; [] |263| 
     772 000012 240C          JEQ       $C$L28                ; [] |263| 
     773                                                      ; [] |263| 
     774            ;* --------------------------------------------------------------------------*
     775 000014 3C07          JMP       $C$L26                ; [] |263| 
     776                                                      ; [] |263| 
     777            ;* --------------------------------------------------------------------------*
     778                    .align  4
     779 000018       $C$L23:    
     780                    .dwcfi  remember_state
     781                    .dwpsn  file "../src/bak.c",line 266,column 9,is_stmt,isa 0
     782 000018 431C          MOV.W     #1,r12                ; [] |266| 
     783            $C$DW$50        .dwtag  DW_TAG_TI_branch
     784                    .dwattr $C$DW$50, DW_AT_low_pc(0x00)
     785                    .dwattr $C$DW$50, DW_AT_TI_return
     786            
     787 00001a 0110          RETA      ; [] 
     788                    ; [] 
     789                    .dwcfi  restore_state
     790            ;* --------------------------------------------------------------------------*
     791                    .align  4
MSP430 Assembler PC v21.6.1 Mon Feb 24 13:22:57 2025

Copyright (c) 2003-2018 Texas Instruments Incorporated
bak.asm                                                              PAGE   16

     792 00001c       $C$L24:    
     793                    .dwcfi  remember_state
     794                    .dwpsn  file "../src/bak.c",line 268,column 9,is_stmt,isa 0
     795 00001c 432C          MOV.W     #2,r12                ; [] |268| 
     796            $C$DW$51        .dwtag  DW_TAG_TI_branch
     797                    .dwattr $C$DW$51, DW_AT_low_pc(0x00)
     798                    .dwattr $C$DW$51, DW_AT_TI_return
     799            
     800 00001e 0110          RETA      ; [] 
     801                    ; [] 
     802                    .dwcfi  restore_state
     803            ;* --------------------------------------------------------------------------*
     804                    .align  4
     805 000020       $C$L25:    
     806                    .dwcfi  remember_state
     807                    .dwpsn  file "../src/bak.c",line 270,column 9,is_stmt,isa 0
     808 000020 422C          MOV.W     #4,r12                ; [] |270| 
     809            $C$DW$52        .dwtag  DW_TAG_TI_branch
     810                    .dwattr $C$DW$52, DW_AT_low_pc(0x00)
     811                    .dwattr $C$DW$52, DW_AT_TI_return
     812            
     813 000022 0110          RETA      ; [] 
     814                    ; [] 
     815                    .dwcfi  restore_state
     816            ;* --------------------------------------------------------------------------*
     817                    .align  4
     818 000024       $C$L26:    
     819                    .dwpsn  file "../src/bak.c",line 280,column 5,is_stmt,isa 0
     820 000024 922D          CMP.W     #4,r13                ; [] |280| 
     821 000026 2402          JEQ       $C$L28                ; [] |280| 
     822                                                      ; [] |280| 
     823            ;* --------------------------------------------------------------------------*
     824 000028       $C$L27:    
     825                    .dwcfi  remember_state
     826                    .dwpsn  file "../src/bak.c",line 294,column 5,is_stmt,isa 0
     827 000028 423C          MOV.W     #8,r12                ; [] |294| 
     828            $C$DW$53        .dwtag  DW_TAG_TI_branch
     829                    .dwattr $C$DW$53, DW_AT_low_pc(0x00)
     830                    .dwattr $C$DW$53, DW_AT_TI_return
     831            
     832 00002a 0110          RETA      ; [] 
     833                    ; [] 
     834                    .dwcfi  restore_state
     835            ;* --------------------------------------------------------------------------*
     836                    .align  4
     837 00002c       $C$L28:    
     838                    .dwpsn  file "../src/bak.c",line 289,column 9,is_stmt,isa 0
     839 00002c 403C          MOV.W     #16,r12               ; [] |289| 
         00002e 0010 
     840            $C$DW$54        .dwtag  DW_TAG_TI_branch
     841                    .dwattr $C$DW$54, DW_AT_low_pc(0x00)
     842                    .dwattr $C$DW$54, DW_AT_TI_return
     843            
     844 000030 0110          RETA      ; [] 
     845                    ; [] 
MSP430 Assembler PC v21.6.1 Mon Feb 24 13:22:57 2025

Copyright (c) 2003-2018 Texas Instruments Incorporated
bak.asm                                                              PAGE   17

     846                    .dwattr $C$DW$46, DW_AT_TI_end_file("../src/bak.c")
     847                    .dwattr $C$DW$46, DW_AT_TI_end_line(0x127)
     848                    .dwattr $C$DW$46, DW_AT_TI_end_column(0x01)
     849                    .dwendentry
     850                    .dwendtag $C$DW$46
     851            
     852 000000               .sect   ".text:DecodeAtten"
     853                    .align  4
     854                    .clink
     855                    .global DecodeAtten
     856            
     857            $C$DW$55        .dwtag  DW_TAG_subprogram
     858                    .dwattr $C$DW$55, DW_AT_name("DecodeAtten")
     859                    .dwattr $C$DW$55, DW_AT_low_pc(DecodeAtten)
     860                    .dwattr $C$DW$55, DW_AT_high_pc(0x00)
     861                    .dwattr $C$DW$55, DW_AT_TI_symbol_name("DecodeAtten")
     862                    .dwattr $C$DW$55, DW_AT_external
     863                    .dwattr $C$DW$55, DW_AT_type(*$C$DW$T$22)
     864                    .dwattr $C$DW$55, DW_AT_TI_begin_file("../src/bak.c")
     865                    .dwattr $C$DW$55, DW_AT_TI_begin_line(0xeb)
     866                    .dwattr $C$DW$55, DW_AT_TI_begin_column(0x0a)
     867                    .dwattr $C$DW$55, DW_AT_decl_file("../src/bak.c")
     868                    .dwattr $C$DW$55, DW_AT_decl_line(0xeb)
     869                    .dwattr $C$DW$55, DW_AT_decl_column(0x0a)
     870                    .dwattr $C$DW$55, DW_AT_TI_max_frame_size(0x04)
     871                    .dwpsn  file "../src/bak.c",line 236,column 1,is_stmt,address DecodeAtten,isa 0
     872            
     873                    .dwfde $C$DW$CIE, DecodeAtten
     874            $C$DW$56        .dwtag  DW_TAG_formal_parameter
     875                    .dwattr $C$DW$56, DW_AT_name("val")
     876                    .dwattr $C$DW$56, DW_AT_TI_symbol_name("val")
     877                    .dwattr $C$DW$56, DW_AT_type(*$C$DW$T$22)
     878                    .dwattr $C$DW$56, DW_AT_location[DW_OP_reg12]
     879            
     880            $C$DW$57        .dwtag  DW_TAG_formal_parameter
     881                    .dwattr $C$DW$57, DW_AT_name("ch")
     882                    .dwattr $C$DW$57, DW_AT_TI_symbol_name("ch")
     883                    .dwattr $C$DW$57, DW_AT_type(*$C$DW$T$22)
     884                    .dwattr $C$DW$57, DW_AT_location[DW_OP_reg13]
     885            
     886            
     887            ;*****************************************************************************
     888            ;* FUNCTION NAME: DecodeAtten                                                *
     889            ;*                                                                           *
     890            ;*   Regs Modified     : SP,SR,r12,r13                                       *
     891            ;*   Regs Used         : SP,SR,r12,r13                                       *
     892            ;*   Local Frame Size  : 0 Args + 0 Auto + 0 Save = 0 byte                   *
     893            ;*****************************************************************************
     894            DecodeAtten:
     895            ;* --------------------------------------------------------------------------*
     896            ;* r12   assigned to val
     897            $C$DW$58        .dwtag  DW_TAG_variable
     898                    .dwattr $C$DW$58, DW_AT_name("val")
     899                    .dwattr $C$DW$58, DW_AT_TI_symbol_name("val")
     900                    .dwattr $C$DW$58, DW_AT_type(*$C$DW$T$109)
MSP430 Assembler PC v21.6.1 Mon Feb 24 13:22:57 2025

Copyright (c) 2003-2018 Texas Instruments Incorporated
bak.asm                                                              PAGE   18

     901                    .dwattr $C$DW$58, DW_AT_location[DW_OP_reg12]
     902            
     903                    .dwcfi  cfa_offset, 4
     904                    .dwcfi  save_reg_to_mem, 16, -4
     905                    .dwpsn  file "../src/bak.c",line 237,column 5,is_stmt,isa 0
     906 000000 922C          CMP.W     #4,r12                ; [] |237| 
     907 000002 2806          JLO       $C$L30                ; [] |237| 
     908                                                      ; [] |237| 
     909            ;* --------------------------------------------------------------------------*
     910                    .dwpsn  file "../src/bak.c",line 243,column 5,is_stmt,isa 0
     911 000004 832D          SUB.W     #2,r13                ; [] |243| 
     912 000006 932D          CMP.W     #2,r13                ; [] |243| 
     913 000008 2C02          JHS       $C$L29                ; [] |243| 
     914                                                      ; [] |243| 
     915            ;* --------------------------------------------------------------------------*
     916                    .dwcfi  remember_state
     917                    .dwpsn  file "../src/bak.c",line 250,column 9,is_stmt,isa 0
     918 00000a 430C          MOV.W     #0,r12                ; [] |250| 
     919            $C$DW$59        .dwtag  DW_TAG_TI_branch
     920                    .dwattr $C$DW$59, DW_AT_low_pc(0x00)
     921                    .dwattr $C$DW$59, DW_AT_TI_return
     922            
     923 00000c 0110          RETA      ; [] 
     924                    ; [] 
     925                    .dwcfi  restore_state
     926            ;* --------------------------------------------------------------------------*
     927 00000e       $C$L29:    
     928                    .dwpsn  file "../src/bak.c",line 257,column 5,is_stmt,isa 0
     929 00000e 431C          MOV.W     #1,r12                ; [] |257| 
     930            ;* --------------------------------------------------------------------------*
     931            $C$L30:    
     932            $C$DW$60        .dwtag  DW_TAG_TI_branch
     933                    .dwattr $C$DW$60, DW_AT_low_pc(0x00)
     934                    .dwattr $C$DW$60, DW_AT_TI_return
     935            
     936 000010 0110          RETA      ; [] 
     937                    ; [] 
     938                    .dwattr $C$DW$55, DW_AT_TI_end_file("../src/bak.c")
     939                    .dwattr $C$DW$55, DW_AT_TI_end_line(0x102)
     940                    .dwattr $C$DW$55, DW_AT_TI_end_column(0x01)
     941                    .dwendentry
     942                    .dwendtag $C$DW$55
     943            
     944 000000               .sect   ".text:BAK_CommitBatteryBackup"
     945                    .align  4
     946                    .clink
     947                    .global BAK_CommitBatteryBackup
     948            
     949            $C$DW$61        .dwtag  DW_TAG_subprogram
     950                    .dwattr $C$DW$61, DW_AT_name("BAK_CommitBatteryBackup")
     951                    .dwattr $C$DW$61, DW_AT_low_pc(BAK_CommitBatteryBackup)
     952                    .dwattr $C$DW$61, DW_AT_high_pc(0x00)
     953                    .dwattr $C$DW$61, DW_AT_TI_symbol_name("BAK_CommitBatteryBackup")
     954                    .dwattr $C$DW$61, DW_AT_external
     955                    .dwattr $C$DW$61, DW_AT_TI_begin_file("../src/bak.c")
MSP430 Assembler PC v21.6.1 Mon Feb 24 13:22:57 2025

Copyright (c) 2003-2018 Texas Instruments Incorporated
bak.asm                                                              PAGE   19

     956                    .dwattr $C$DW$61, DW_AT_TI_begin_line(0x88)
     957                    .dwattr $C$DW$61, DW_AT_TI_begin_column(0x06)
     958                    .dwattr $C$DW$61, DW_AT_decl_file("../src/bak.c")
     959                    .dwattr $C$DW$61, DW_AT_decl_line(0x88)
     960                    .dwattr $C$DW$61, DW_AT_decl_column(0x06)
     961                    .dwattr $C$DW$61, DW_AT_TI_max_frame_size(0x04)
     962                    .dwpsn  file "../src/bak.c",line 137,column 1,is_stmt,address BAK_CommitBatteryBackup,isa 0
     963            
     964                    .dwfde $C$DW$CIE, BAK_CommitBatteryBackup
     965            
     966            ;*****************************************************************************
     967            ;* FUNCTION NAME: BAK_CommitBatteryBackup                                    *
     968            ;*                                                                           *
     969            ;*   Regs Modified     : SP,SR,r12,r14,r15                                   *
     970            ;*   Regs Used         : SP,SR,r12,r14,r15                                   *
     971            ;*   Local Frame Size  : 0 Args + 0 Auto + 0 Save = 0 byte                   *
     972            ;*****************************************************************************
     973            BAK_CommitBatteryBackup:
     974            ;* --------------------------------------------------------------------------*
     975            ;* r14   assigned to checksum
     976            $C$DW$62        .dwtag  DW_TAG_variable
     977                    .dwattr $C$DW$62, DW_AT_name("checksum")
     978                    .dwattr $C$DW$62, DW_AT_TI_symbol_name("checksum")
     979                    .dwattr $C$DW$62, DW_AT_type(*$C$DW$T$22)
     980                    .dwattr $C$DW$62, DW_AT_location[DW_OP_reg14]
     981            
     982                    .dwcfi  cfa_offset, 4
     983                    .dwcfi  save_reg_to_mem, 16, -4
     984                    .dwpsn  file "../src/bak.c",line 140,column 5,is_stmt,isa 0
     985 000000 40B2          MOV.W     #23294,&BAKMEM0+0     ; [] |140| 
         000002 5AFE 
         000004 0000!
     986                    .dwpsn  file "../src/bak.c",line 141,column 5,is_stmt,isa 0
     987 000006 4382          MOV.W     #0,&BAKMEM1+0         ; [] |141| 
         000008 0000!
     988                    .dwpsn  file "../src/bak.c",line 142,column 5,is_stmt,isa 0
     989 00000a 4382          MOV.W     #0,&BAKMEM2+0         ; [] |142| 
         00000c 0000!
     990                    .dwpsn  file "../src/bak.c",line 143,column 5,is_stmt,isa 0
     991 00000e 4382          MOV.W     #0,&BAKMEM3+0         ; [] |143| 
         000010 0000!
     992                    .dwpsn  file "../src/bak.c",line 145,column 5,is_stmt,isa 0
     993 000012 002E!         MOVX.A    &CH_Channels+4,r14    ; [] |145| 
         000014 0004 
     994 000016 403F          MOV.W     #3,r15                ; [] |145| 
         000018 0003 
     995 00001a FE5F          AND.B     8(r14),r15            ; [] |145| 
         00001c 0008 
     996 00001e EFC2          XOR.B     r15,&BAKMEM1_L+0      ; [] |145| 
         000020 0000!
     997                    .dwpsn  file "../src/bak.c",line 146,column 5,is_stmt,isa 0
     998 000022 431C          MOV.W     #1,r12                ; [] |146| 
     999            $C$DW$63        .dwtag  DW_TAG_TI_branch
    1000                    .dwattr $C$DW$63, DW_AT_low_pc(0x00)
    1001                    .dwattr $C$DW$63, DW_AT_name("EncodeGain")
MSP430 Assembler PC v21.6.1 Mon Feb 24 13:22:57 2025

Copyright (c) 2003-2018 Texas Instruments Incorporated
bak.asm                                                              PAGE   20

    1002                    .dwattr $C$DW$63, DW_AT_TI_call
    1003            
    1004 000024 13B0!         CALLA     #EncodeGain           ; [] |146| 
         000026 0000 
    1005                                                      ; [] |146| 
    1006 000028 F07C          AND.B     #7,r12                ; [] |146| 
         00002a 0007 
    1007 00002c 1841          RPT #2 || RLAX.B r12 ; [] |146| 
         00002e 5C4C 
    1008 000030 ECC2          XOR.B     r12,&BAKMEM1_L+0      ; [] |146| 
         000032 0000!
    1009                    .dwpsn  file "../src/bak.c",line 147,column 5,is_stmt,isa 0
    1010 000034 431C          MOV.W     #1,r12                ; [] |147| 
    1011            $C$DW$64        .dwtag  DW_TAG_TI_branch
    1012                    .dwattr $C$DW$64, DW_AT_low_pc(0x00)
    1013                    .dwattr $C$DW$64, DW_AT_name("EncodePregain")
    1014                    .dwattr $C$DW$64, DW_AT_TI_call
    1015            
    1016 000036 13B0!         CALLA     #EncodePregain        ; [] |147| 
         000038 0000 
    1017                                                      ; [] |147| 
    1018 00003a 1844          RPT #5 || RLAX.B r12 ; [] |147| 
         00003c 5C4C 
    1019 00003e ECC2          XOR.B     r12,&BAKMEM1_L+0      ; [] |147| 
         000040 0000!
    1020                    .dwpsn  file "../src/bak.c",line 149,column 5,is_stmt,isa 0
    1021 000042 002E!         MOVX.A    &CH_Channels+8,r14    ; [] |149| 
         000044 0008 
    1022 000046 403F          MOV.W     #3,r15                ; [] |149| 
         000048 0003 
    1023 00004a FE5F          AND.B     8(r14),r15            ; [] |149| 
         00004c 0008 
    1024 00004e EFC2          XOR.B     r15,&BAKMEM1_H+0      ; [] |149| 
         000050 0000!
    1025                    .dwpsn  file "../src/bak.c",line 150,column 5,is_stmt,isa 0
    1026 000052 432C          MOV.W     #2,r12                ; [] |150| 
    1027            $C$DW$65        .dwtag  DW_TAG_TI_branch
    1028                    .dwattr $C$DW$65, DW_AT_low_pc(0x00)
    1029                    .dwattr $C$DW$65, DW_AT_name("EncodeGain")
    1030                    .dwattr $C$DW$65, DW_AT_TI_call
    1031            
    1032 000054 13B0!         CALLA     #EncodeGain           ; [] |150| 
         000056 0000 
    1033                                                      ; [] |150| 
    1034 000058 F07C          AND.B     #7,r12                ; [] |150| 
         00005a 0007 
    1035 00005c 1841          RPT #2 || RLAX.B r12 ; [] |150| 
         00005e 5C4C 
    1036 000060 ECC2          XOR.B     r12,&BAKMEM1_H+0      ; [] |150| 
         000062 0000!
    1037                    .dwpsn  file "../src/bak.c",line 151,column 5,is_stmt,isa 0
    1038 000064 432C          MOV.W     #2,r12                ; [] |151| 
    1039            $C$DW$66        .dwtag  DW_TAG_TI_branch
    1040                    .dwattr $C$DW$66, DW_AT_low_pc(0x00)
    1041                    .dwattr $C$DW$66, DW_AT_name("EncodePregain")
MSP430 Assembler PC v21.6.1 Mon Feb 24 13:22:57 2025

Copyright (c) 2003-2018 Texas Instruments Incorporated
bak.asm                                                              PAGE   21

    1042                    .dwattr $C$DW$66, DW_AT_TI_call
    1043            
    1044 000066 13B0!         CALLA     #EncodePregain        ; [] |151| 
         000068 0000 
    1045                                                      ; [] |151| 
    1046 00006a 1844          RPT #5 || RLAX.B r12 ; [] |151| 
         00006c 5C4C 
    1047 00006e ECC2          XOR.B     r12,&BAKMEM1_H+0      ; [] |151| 
         000070 0000!
    1048                    .dwpsn  file "../src/bak.c",line 153,column 5,is_stmt,isa 0
    1049 000072 002E!         MOVX.A    &CH_Channels+12,r14   ; [] |153| 
         000074 000C 
    1050 000076 403F          MOV.W     #3,r15                ; [] |153| 
         000078 0003 
    1051 00007a FE5F          AND.B     8(r14),r15            ; [] |153| 
         00007c 0008 
    1052 00007e EFC2          XOR.B     r15,&BAKMEM2_L+0      ; [] |153| 
         000080 0000!
    1053                    .dwpsn  file "../src/bak.c",line 154,column 5,is_stmt,isa 0
    1054 000082 403C          MOV.W     #3,r12                ; [] |154| 
         000084 0003 
    1055            $C$DW$67        .dwtag  DW_TAG_TI_branch
    1056                    .dwattr $C$DW$67, DW_AT_low_pc(0x00)
    1057                    .dwattr $C$DW$67, DW_AT_name("EncodeGain")
    1058                    .dwattr $C$DW$67, DW_AT_TI_call
    1059            
    1060 000086 13B0!         CALLA     #EncodeGain           ; [] |154| 
         000088 0000 
    1061                                                      ; [] |154| 
    1062 00008a F07C          AND.B     #7,r12                ; [] |154| 
         00008c 0007 
    1063 00008e 1841          RPT #2 || RLAX.B r12 ; [] |154| 
         000090 5C4C 
    1064 000092 ECC2          XOR.B     r12,&BAKMEM2_L+0      ; [] |154| 
         000094 0000!
    1065                    .dwpsn  file "../src/bak.c",line 155,column 5,is_stmt,isa 0
    1066 000096 403C          MOV.W     #3,r12                ; [] |155| 
         000098 0003 
    1067            $C$DW$68        .dwtag  DW_TAG_TI_branch
    1068                    .dwattr $C$DW$68, DW_AT_low_pc(0x00)
    1069                    .dwattr $C$DW$68, DW_AT_name("EncodePregain")
    1070                    .dwattr $C$DW$68, DW_AT_TI_call
    1071            
    1072 00009a 13B0!         CALLA     #EncodePregain        ; [] |155| 
         00009c 0000 
    1073                                                      ; [] |155| 
    1074 00009e 1844          RPT #5 || RLAX.B r12 ; [] |155| 
         0000a0 5C4C 
    1075 0000a2 ECC2          XOR.B     r12,&BAKMEM2_L+0      ; [] |155| 
         0000a4 0000!
    1076                    .dwpsn  file "../src/bak.c",line 157,column 5,is_stmt,isa 0
    1077 0000a6 002E!         MOVX.A    &CH_Channels+16,r14   ; [] |157| 
         0000a8 0010 
    1078 0000aa 403F          MOV.W     #3,r15                ; [] |157| 
         0000ac 0003 
MSP430 Assembler PC v21.6.1 Mon Feb 24 13:22:57 2025

Copyright (c) 2003-2018 Texas Instruments Incorporated
bak.asm                                                              PAGE   22

    1079 0000ae FE5F          AND.B     8(r14),r15            ; [] |157| 
         0000b0 0008 
    1080 0000b2 EFC2          XOR.B     r15,&BAKMEM2_H+0      ; [] |157| 
         0000b4 0000!
    1081                    .dwpsn  file "../src/bak.c",line 158,column 5,is_stmt,isa 0
    1082 0000b6 422C          MOV.W     #4,r12                ; [] |158| 
    1083            $C$DW$69        .dwtag  DW_TAG_TI_branch
    1084                    .dwattr $C$DW$69, DW_AT_low_pc(0x00)
    1085                    .dwattr $C$DW$69, DW_AT_name("EncodeGain")
    1086                    .dwattr $C$DW$69, DW_AT_TI_call
    1087            
    1088 0000b8 13B0!         CALLA     #EncodeGain           ; [] |158| 
         0000ba 0000 
    1089                                                      ; [] |158| 
    1090 0000bc F07C          AND.B     #7,r12                ; [] |158| 
         0000be 0007 
    1091 0000c0 1841          RPT #2 || RLAX.B r12 ; [] |158| 
         0000c2 5C4C 
    1092 0000c4 ECC2          XOR.B     r12,&BAKMEM2_H+0      ; [] |158| 
         0000c6 0000!
    1093                    .dwpsn  file "../src/bak.c",line 159,column 5,is_stmt,isa 0
    1094 0000c8 422C          MOV.W     #4,r12                ; [] |159| 
    1095            $C$DW$70        .dwtag  DW_TAG_TI_branch
    1096                    .dwattr $C$DW$70, DW_AT_low_pc(0x00)
    1097                    .dwattr $C$DW$70, DW_AT_name("EncodePregain")
    1098                    .dwattr $C$DW$70, DW_AT_TI_call
    1099            
    1100 0000ca 13B0!         CALLA     #EncodePregain        ; [] |159| 
         0000cc 0000 
    1101                                                      ; [] |159| 
    1102 0000ce 1844          RPT #5 || RLAX.B r12 ; [] |159| 
         0000d0 5C4C 
    1103 0000d2 ECC2          XOR.B     r12,&BAKMEM2_H+0      ; [] |159| 
         0000d4 0000!
    1104                    .dwpsn  file "../src/bak.c",line 161,column 5,is_stmt,isa 0
    1105 0000d6 40F2          MOV.B     #170,&BAKMEM3_L+0     ; [] |161| 
         0000d8 00AA 
         0000da 0000!
    1106                    .dwpsn  file "../src/bak.c",line 163,column 5,is_stmt,isa 0
    1107 0000dc 421E          MOV.W     &BAKMEM1+0,r14        ; [] |163| 
         0000de 0000!
    1108 0000e0 E21E          XOR.W     &BAKMEM0+0,r14        ; [] |163| 
         0000e2 0000!
    1109 0000e4 E21E          XOR.W     &BAKMEM2+0,r14        ; [] |163| 
         0000e6 0000!
    1110                    .dwpsn  file "../src/bak.c",line 164,column 5,is_stmt,isa 0
    1111 0000e8 0ECF          MOVA      r14,r15               ; [] |164| 
    1112 0000ea 108F          SWPB      r15                   ; [] |164| 
    1113 0000ec 4F4F          MOV.B     r15,r15               ; [] |164| 
    1114 0000ee EF0E          XOR.W     r15,r14               ; [] |164| 
    1115 0000f0 C34E          BIC.B     #0,r14                ; [] |164| 
    1116                    .dwpsn  file "../src/bak.c",line 167,column 5,is_stmt,isa 0
    1117 0000f2 4EC2          MOV.B     r14,&BAKMEM3_H+0      ; [] |167| 
         0000f4 0000!
    1118            $C$DW$71        .dwtag  DW_TAG_TI_branch
MSP430 Assembler PC v21.6.1 Mon Feb 24 13:22:57 2025

Copyright (c) 2003-2018 Texas Instruments Incorporated
bak.asm                                                              PAGE   23

    1119                    .dwattr $C$DW$71, DW_AT_low_pc(0x00)
    1120                    .dwattr $C$DW$71, DW_AT_TI_return
    1121            
    1122 0000f6 0110          RETA      ; [] 
    1123                    ; [] 
    1124                    .dwattr $C$DW$61, DW_AT_TI_end_file("../src/bak.c")
    1125                    .dwattr $C$DW$61, DW_AT_TI_end_line(0xa8)
    1126                    .dwattr $C$DW$61, DW_AT_TI_end_column(0x01)
    1127                    .dwendentry
    1128                    .dwendtag $C$DW$61
    1129            
    1130 000000               .sect   ".text:BAK_AssessBatteryBackup"
    1131                    .align  4
    1132                    .clink
    1133                    .global BAK_AssessBatteryBackup
    1134            
    1135            $C$DW$72        .dwtag  DW_TAG_subprogram
    1136                    .dwattr $C$DW$72, DW_AT_name("BAK_AssessBatteryBackup")
    1137                    .dwattr $C$DW$72, DW_AT_low_pc(BAK_AssessBatteryBackup)
    1138                    .dwattr $C$DW$72, DW_AT_high_pc(0x00)
    1139                    .dwattr $C$DW$72, DW_AT_TI_symbol_name("BAK_AssessBatteryBackup")
    1140                    .dwattr $C$DW$72, DW_AT_external
    1141                    .dwattr $C$DW$72, DW_AT_type(*$C$DW$T$22)
    1142                    .dwattr $C$DW$72, DW_AT_TI_begin_file("../src/bak.c")
    1143                    .dwattr $C$DW$72, DW_AT_TI_begin_line(0x39)
    1144                    .dwattr $C$DW$72, DW_AT_TI_begin_column(0x0a)
    1145                    .dwattr $C$DW$72, DW_AT_decl_file("../src/bak.c")
    1146                    .dwattr $C$DW$72, DW_AT_decl_line(0x39)
    1147                    .dwattr $C$DW$72, DW_AT_decl_column(0x0a)
    1148                    .dwattr $C$DW$72, DW_AT_TI_max_frame_size(0x04)
    1149                    .dwpsn  file "../src/bak.c",line 58,column 1,is_stmt,address BAK_AssessBatteryBackup,isa 0
    1150            
    1151                    .dwfde $C$DW$CIE, BAK_AssessBatteryBackup
    1152            
    1153            ;*****************************************************************************
    1154            ;* FUNCTION NAME: BAK_AssessBatteryBackup                                    *
    1155            ;*                                                                           *
    1156            ;*   Regs Modified     : SP,SR,r11,r12,r13,r14,r15                           *
    1157            ;*   Regs Used         : SP,SR,r11,r12,r13,r14,r15                           *
    1158            ;*   Local Frame Size  : 0 Args + 0 Auto + 0 Save = 0 byte                   *
    1159            ;*****************************************************************************
    1160            BAK_AssessBatteryBackup:
    1161            ;* --------------------------------------------------------------------------*
    1162            ;* r12   assigned to data
    1163            $C$DW$73        .dwtag  DW_TAG_variable
    1164                    .dwattr $C$DW$73, DW_AT_name("data")
    1165                    .dwattr $C$DW$73, DW_AT_TI_symbol_name("data")
    1166                    .dwattr $C$DW$73, DW_AT_type(*$C$DW$T$6)
    1167                    .dwattr $C$DW$73, DW_AT_location[DW_OP_reg12]
    1168            
    1169            ;* r12   assigned to data
    1170            $C$DW$74        .dwtag  DW_TAG_variable
    1171                    .dwattr $C$DW$74, DW_AT_name("data")
    1172                    .dwattr $C$DW$74, DW_AT_TI_symbol_name("data")
    1173                    .dwattr $C$DW$74, DW_AT_type(*$C$DW$T$6)
MSP430 Assembler PC v21.6.1 Mon Feb 24 13:22:57 2025

Copyright (c) 2003-2018 Texas Instruments Incorporated
bak.asm                                                              PAGE   24

    1174                    .dwattr $C$DW$74, DW_AT_location[DW_OP_reg12]
    1175            
    1176            ;* r12   assigned to data
    1177            $C$DW$75        .dwtag  DW_TAG_variable
    1178                    .dwattr $C$DW$75, DW_AT_name("data")
    1179                    .dwattr $C$DW$75, DW_AT_TI_symbol_name("data")
    1180                    .dwattr $C$DW$75, DW_AT_type(*$C$DW$T$6)
    1181                    .dwattr $C$DW$75, DW_AT_location[DW_OP_reg12]
    1182            
    1183            ;* r12   assigned to data
    1184            $C$DW$76        .dwtag  DW_TAG_variable
    1185                    .dwattr $C$DW$76, DW_AT_name("data")
    1186                    .dwattr $C$DW$76, DW_AT_TI_symbol_name("data")
    1187                    .dwattr $C$DW$76, DW_AT_type(*$C$DW$T$6)
    1188                    .dwattr $C$DW$76, DW_AT_location[DW_OP_reg12]
    1189            
    1190            ;* r15   assigned to $O$R2
    1191            ;* r15   assigned to $O$R4
    1192            ;* r15   assigned to $O$R6
    1193            ;* r15   assigned to $O$R8
    1194            ;* r14   assigned to checksum
    1195            $C$DW$77        .dwtag  DW_TAG_variable
    1196                    .dwattr $C$DW$77, DW_AT_name("checksum")
    1197                    .dwattr $C$DW$77, DW_AT_TI_symbol_name("checksum")
    1198                    .dwattr $C$DW$77, DW_AT_type(*$C$DW$T$22)
    1199                    .dwattr $C$DW$77, DW_AT_location[DW_OP_reg14]
    1200            
    1201                    .dwcfi  cfa_offset, 4
    1202                    .dwcfi  save_reg_to_mem, 16, -4
    1203                    .dwpsn  file "../src/bak.c",line 61,column 5,is_stmt,isa 0
    1204 000000 90B2          CMP.W     #23294,&BAKMEM0+0     ; [] |61| 
         000002 5AFE 
         000004 0000!
    1205 000006 2012          JNE       $C$L31                ; [] |61| 
    1206                                                      ; [] |61| 
    1207            ;* --------------------------------------------------------------------------*
    1208                    .dwpsn  file "../src/bak.c",line 70,column 9,is_stmt,isa 0
    1209 000008 90F2          CMP.B     #170,&BAKMEM3_L+0     ; [] |70| 
         00000a 00AA 
         00000c 0000!
    1210 00000e 200E          JNE       $C$L31                ; [] |70| 
    1211                                                      ; [] |70| 
    1212            ;* --------------------------------------------------------------------------*
    1213                    .dwpsn  file "../src/bak.c",line 74,column 9,is_stmt,isa 0
    1214 000010 421E          MOV.W     &BAKMEM1+0,r14        ; [] |74| 
         000012 0000!
    1215 000014 E21E          XOR.W     &BAKMEM0+0,r14        ; [] |74| 
         000016 0000!
    1216 000018 E21E          XOR.W     &BAKMEM2+0,r14        ; [] |74| 
         00001a 0000!
    1217                    .dwpsn  file "../src/bak.c",line 75,column 9,is_stmt,isa 0
    1218 00001c 0ECF          MOVA      r14,r15               ; [] |75| 
    1219 00001e 108F          SWPB      r15                   ; [] |75| 
    1220 000020 4F4F          MOV.B     r15,r15               ; [] |75| 
    1221 000022 EF0E          XOR.W     r15,r14               ; [] |75| 
MSP430 Assembler PC v21.6.1 Mon Feb 24 13:22:57 2025

Copyright (c) 2003-2018 Texas Instruments Incorporated
bak.asm                                                              PAGE   25

    1222 000024 C34E          BIC.B     #0,r14                ; [] |75| 
    1223                    .dwpsn  file "../src/bak.c",line 78,column 9,is_stmt,isa 0
    1224 000026 9EC2          CMP.B     r14,&BAKMEM3_H+0      ; [] |78| 
         000028 0000!
    1225 00002a 2402          JEQ       $C$L32                ; [] |78| 
    1226                                                      ; [] |78| 
    1227            ;* --------------------------------------------------------------------------*
    1228 00002c       $C$L31:    
    1229                    .dwcfi  remember_state
    1230                    .dwpsn  file "../src/bak.c",line 79,column 13,is_stmt,isa 0
    1231 00002c 431C          MOV.W     #1,r12                ; [] |79| 
    1232            $C$DW$78        .dwtag  DW_TAG_TI_branch
    1233                    .dwattr $C$DW$78, DW_AT_low_pc(0x00)
    1234                    .dwattr $C$DW$78, DW_AT_TI_return
    1235            
    1236 00002e 0110          RETA      ; [] 
    1237                    ; [] 
    1238                    .dwcfi  restore_state
    1239            ;* --------------------------------------------------------------------------*
    1240                    .align  4
    1241 000030       $C$L32:    
    1242                    .dwpsn  file "../src/bak.c",line 85,column 9,is_stmt,isa 0
    1243 000030 425C          MOV.B     &BAKMEM1_L+0,r12      ; [] |85| 
         000032 0000!
    1244                    .dwpsn  file "../src/bak.c",line 87,column 9,is_stmt,isa 0
    1245 000034 4C4F          MOV.B     r12,r15               ; [] |87| 
    1246 000036 F03F          AND.W     #3,r15                ; [] |87| 
         000038 0003 
    1247 00003a 002E!         MOVX.A    &CH_Channels+4,r14    ; [] |87| 
         00003c 0004 
    1248 00003e 4F8E          MOV.W     r15,8(r14)            ; [] |87| 
         000040 0008 
    1249                    .dwpsn  file "../src/bak.c",line 263,column 5,is_stmt,isa 0
    1250 000042 4C4F          MOV.B     r12,r15               ; [] |263| 
    1251 000044 075F          RRUM.W    #2,r15                ; [] |263| 
    1252 000046 F03F          AND.W     #7,r15                ; [] |263| 
         000048 0007 
    1253 00004a 930F          TST.W     r15                   ; [] |263| 
    1254 00004c 2413          JEQ       $C$L37                ; [] |263| 
    1255                                                      ; [] |263| 
    1256            ;* --------------------------------------------------------------------------*
    1257 00004e 831F          SUB.W     #1,r15                ; [] |263| 
    1258 000050 240F          JEQ       $C$L36                ; [] |263| 
    1259                                                      ; [] |263| 
    1260            ;* --------------------------------------------------------------------------*
    1261 000052 831F          SUB.W     #1,r15                ; [] |263| 
    1262 000054 240B          JEQ       $C$L35                ; [] |263| 
    1263                                                      ; [] |263| 
    1264            ;* --------------------------------------------------------------------------*
    1265 000056 831F          SUB.W     #1,r15                ; [] |263| 
    1266 000058 2403          JEQ       $C$L33                ; [] |263| 
    1267                                                      ; [] |263| 
    1268            ;* --------------------------------------------------------------------------*
    1269 00005a 831F          SUB.W     #1,r15                ; [] |263| 
    1270 00005c 2403          JEQ       $C$L34                ; [] |263| 
MSP430 Assembler PC v21.6.1 Mon Feb 24 13:22:57 2025

Copyright (c) 2003-2018 Texas Instruments Incorporated
bak.asm                                                              PAGE   26

    1271                                                      ; [] |263| 
    1272            ;* --------------------------------------------------------------------------*
    1273 00005e 831F          SUB.W     #1,r15                ; [] |263| 
    1274            ;* --------------------------------------------------------------------------*
    1275 000060       $C$L33:    
    1276                    .dwpsn  file "../src/bak.c",line 283,column 9,is_stmt,isa 0
    1277 000060 423F          MOV.W     #8,r15                ; [] |283| 
    1278 000062 3C09          JMP       $C$L38                ; [] |283| 
    1279                                                      ; [] |283| 
    1280            ;* --------------------------------------------------------------------------*
    1281                    .align  4
    1282 000064       $C$L34:    
    1283                    .dwpsn  file "../src/bak.c",line 274,column 9,is_stmt,isa 0
    1284 000064 403F          MOV.W     #16,r15               ; [] |274| 
         000066 0010 
    1285 000068 3C06          JMP       $C$L38                ; [] |274| 
    1286                                                      ; [] |274| 
    1287            ;* --------------------------------------------------------------------------*
    1288                    .align  4
    1289 00006c       $C$L35:    
    1290                    .dwpsn  file "../src/bak.c",line 270,column 9,is_stmt,isa 0
    1291 00006c 422F          MOV.W     #4,r15                ; [] |270| 
    1292 00006e 3C03          JMP       $C$L38                ; [] |270| 
    1293                                                      ; [] |270| 
    1294            ;* --------------------------------------------------------------------------*
    1295                    .align  4
    1296 000070       $C$L36:    
    1297                    .dwpsn  file "../src/bak.c",line 268,column 9,is_stmt,isa 0
    1298 000070 432F          MOV.W     #2,r15                ; [] |268| 
    1299 000072 3C01          JMP       $C$L38                ; [] |268| 
    1300                                                      ; [] |268| 
    1301            ;* --------------------------------------------------------------------------*
    1302 000074       $C$L37:    
    1303                    .dwpsn  file "../src/bak.c",line 266,column 9,is_stmt,isa 0
    1304 000074 431F          MOV.W     #1,r15                ; [] |266| 
    1305            ;* --------------------------------------------------------------------------*
    1306 000076       $C$L38:    
    1307                    .dwpsn  file "../src/bak.c",line 89,column 9,is_stmt,isa 0
    1308 000076 002E!         MOVX.A    &CH_Channels+4,r14    ; [] |89| 
         000078 0004 
    1309 00007a 4F8E          MOV.W     r15,6(r14)            ; [] |89| 
         00007c 0006 
    1310                    .dwpsn  file "../src/bak.c",line 91,column 9,is_stmt,isa 0
    1311 00007e 4C4C          MOV.B     r12,r12               ; [] |91| 
    1312 000080 1944          RPT #5 || RRUX.W r12 ; [] |91| 
         000082 100C 
    1313 000084 431D          MOV.W     #1,r13                ; [] |91| 
    1314            $C$DW$79        .dwtag  DW_TAG_TI_branch
    1315                    .dwattr $C$DW$79, DW_AT_low_pc(0x00)
    1316                    .dwattr $C$DW$79, DW_AT_name("DecodePregain")
    1317                    .dwattr $C$DW$79, DW_AT_TI_call
    1318            
    1319 000086 13B0!         CALLA     #DecodePregain        ; [] |91| 
         000088 0000 
    1320                                                      ; [] |91| 
MSP430 Assembler PC v21.6.1 Mon Feb 24 13:22:57 2025

Copyright (c) 2003-2018 Texas Instruments Incorporated
bak.asm                                                              PAGE   27

    1321 00008a 002F!         MOVX.A    &CH_Channels+4,r15    ; [] |91| 
         00008c 0004 
    1322 00008e 4C8F          MOV.W     r12,4(r15)            ; [] |91| 
         000090 0004 
    1323                    .dwpsn  file "../src/bak.c",line 94,column 9,is_stmt,isa 0
    1324 000092 425C          MOV.B     &BAKMEM1_H+0,r12      ; [] |94| 
         000094 0000!
    1325                    .dwpsn  file "../src/bak.c",line 96,column 9,is_stmt,isa 0
    1326 000096 4C4F          MOV.B     r12,r15               ; [] |96| 
    1327 000098 F03F          AND.W     #3,r15                ; [] |96| 
         00009a 0003 
    1328 00009c 002E!         MOVX.A    &CH_Channels+8,r14    ; [] |96| 
         00009e 0008 
    1329 0000a0 4F8E          MOV.W     r15,8(r14)            ; [] |96| 
         0000a2 0008 
    1330                    .dwpsn  file "../src/bak.c",line 263,column 5,is_stmt,isa 0
    1331 0000a4 4C4F          MOV.B     r12,r15               ; [] |263| 
    1332 0000a6 075F          RRUM.W    #2,r15                ; [] |263| 
    1333 0000a8 F03F          AND.W     #7,r15                ; [] |263| 
         0000aa 0007 
    1334 0000ac 930F          TST.W     r15                   ; [] |263| 
    1335 0000ae 2414          JEQ       $C$L43                ; [] |263| 
    1336                                                      ; [] |263| 
    1337            ;* --------------------------------------------------------------------------*
    1338 0000b0 831F          SUB.W     #1,r15                ; [] |263| 
    1339 0000b2 2410          JEQ       $C$L42                ; [] |263| 
    1340                                                      ; [] |263| 
    1341            ;* --------------------------------------------------------------------------*
    1342 0000b4 831F          SUB.W     #1,r15                ; [] |263| 
    1343 0000b6 240C          JEQ       $C$L41                ; [] |263| 
    1344                                                      ; [] |263| 
    1345            ;* --------------------------------------------------------------------------*
    1346 0000b8 831F          SUB.W     #1,r15                ; [] |263| 
    1347 0000ba 2403          JEQ       $C$L39                ; [] |263| 
    1348                                                      ; [] |263| 
    1349            ;* --------------------------------------------------------------------------*
    1350 0000bc 831F          SUB.W     #1,r15                ; [] |263| 
    1351 0000be 2404          JEQ       $C$L40                ; [] |263| 
    1352                                                      ; [] |263| 
    1353            ;* --------------------------------------------------------------------------*
    1354 0000c0 831F          SUB.W     #1,r15                ; [] |263| 
    1355            ;* --------------------------------------------------------------------------*
    1356 0000c2       $C$L39:    
    1357                    .dwpsn  file "../src/bak.c",line 285,column 9,is_stmt,isa 0
    1358 0000c2 423F          MOV.W     #8,r15                ; [] |285| 
    1359 0000c4 3C0A          JMP       $C$L44                ; [] |285| 
    1360                                                      ; [] |285| 
    1361            ;* --------------------------------------------------------------------------*
    1362                    .align  4
    1363 0000c8       $C$L40:    
    1364                    .dwpsn  file "../src/bak.c",line 274,column 9,is_stmt,isa 0
    1365 0000c8 403F          MOV.W     #16,r15               ; [] |274| 
         0000ca 0010 
    1366 0000cc 3C06          JMP       $C$L44                ; [] |274| 
    1367                                                      ; [] |274| 
MSP430 Assembler PC v21.6.1 Mon Feb 24 13:22:57 2025

Copyright (c) 2003-2018 Texas Instruments Incorporated
bak.asm                                                              PAGE   28

    1368            ;* --------------------------------------------------------------------------*
    1369                    .align  4
    1370 0000d0       $C$L41:    
    1371                    .dwpsn  file "../src/bak.c",line 270,column 9,is_stmt,isa 0
    1372 0000d0 422F          MOV.W     #4,r15                ; [] |270| 
    1373 0000d2 3C03          JMP       $C$L44                ; [] |270| 
    1374                                                      ; [] |270| 
    1375            ;* --------------------------------------------------------------------------*
    1376                    .align  4
    1377 0000d4       $C$L42:    
    1378                    .dwpsn  file "../src/bak.c",line 268,column 9,is_stmt,isa 0
    1379 0000d4 432F          MOV.W     #2,r15                ; [] |268| 
    1380 0000d6 3C01          JMP       $C$L44                ; [] |268| 
    1381                                                      ; [] |268| 
    1382            ;* --------------------------------------------------------------------------*
    1383 0000d8       $C$L43:    
    1384                    .dwpsn  file "../src/bak.c",line 266,column 9,is_stmt,isa 0
    1385 0000d8 431F          MOV.W     #1,r15                ; [] |266| 
    1386            ;* --------------------------------------------------------------------------*
    1387 0000da       $C$L44:    
    1388                    .dwpsn  file "../src/bak.c",line 98,column 9,is_stmt,isa 0
    1389 0000da 002E!         MOVX.A    &CH_Channels+8,r14    ; [] |98| 
         0000dc 0008 
    1390 0000de 4F8E          MOV.W     r15,6(r14)            ; [] |98| 
         0000e0 0006 
    1391                    .dwpsn  file "../src/bak.c",line 100,column 9,is_stmt,isa 0
    1392 0000e2 4C4C          MOV.B     r12,r12               ; [] |100| 
    1393 0000e4 1944          RPT #5 || RRUX.W r12 ; [] |100| 
         0000e6 100C 
    1394 0000e8 432D          MOV.W     #2,r13                ; [] |100| 
    1395            $C$DW$80        .dwtag  DW_TAG_TI_branch
    1396                    .dwattr $C$DW$80, DW_AT_low_pc(0x00)
    1397                    .dwattr $C$DW$80, DW_AT_name("DecodePregain")
    1398                    .dwattr $C$DW$80, DW_AT_TI_call
    1399            
    1400 0000ea 13B0!         CALLA     #DecodePregain        ; [] |100| 
         0000ec 0000 
    1401                                                      ; [] |100| 
    1402 0000ee 002F!         MOVX.A    &CH_Channels+8,r15    ; [] |100| 
         0000f0 0008 
    1403 0000f2 4C8F          MOV.W     r12,4(r15)            ; [] |100| 
         0000f4 0004 
    1404                    .dwpsn  file "../src/bak.c",line 103,column 9,is_stmt,isa 0
    1405 0000f6 425C          MOV.B     &BAKMEM2_L+0,r12      ; [] |103| 
         0000f8 0000!
    1406                    .dwpsn  file "../src/bak.c",line 105,column 9,is_stmt,isa 0
    1407 0000fa 4C4F          MOV.B     r12,r15               ; [] |105| 
    1408 0000fc F03F          AND.W     #3,r15                ; [] |105| 
         0000fe 0003 
    1409 000100 002E!         MOVX.A    &CH_Channels+12,r14   ; [] |105| 
         000102 000C 
    1410 000104 4F8E          MOV.W     r15,8(r14)            ; [] |105| 
         000106 0008 
    1411                    .dwpsn  file "../src/bak.c",line 263,column 5,is_stmt,isa 0
    1412 000108 4C4F          MOV.B     r12,r15               ; [] |263| 
MSP430 Assembler PC v21.6.1 Mon Feb 24 13:22:57 2025

Copyright (c) 2003-2018 Texas Instruments Incorporated
bak.asm                                                              PAGE   29

    1413 00010a 075F          RRUM.W    #2,r15                ; [] |263| 
    1414 00010c F03F          AND.W     #7,r15                ; [] |263| 
         00010e 0007 
    1415 000110 930F          TST.W     r15                   ; [] |263| 
    1416 000112 2414          JEQ       $C$L49                ; [] |263| 
    1417                                                      ; [] |263| 
    1418            ;* --------------------------------------------------------------------------*
    1419 000114 831F          SUB.W     #1,r15                ; [] |263| 
    1420 000116 2410          JEQ       $C$L48                ; [] |263| 
    1421                                                      ; [] |263| 
    1422            ;* --------------------------------------------------------------------------*
    1423 000118 831F          SUB.W     #1,r15                ; [] |263| 
    1424 00011a 240C          JEQ       $C$L47                ; [] |263| 
    1425                                                      ; [] |263| 
    1426            ;* --------------------------------------------------------------------------*
    1427 00011c 831F          SUB.W     #1,r15                ; [] |263| 
    1428 00011e 2403          JEQ       $C$L45                ; [] |263| 
    1429                                                      ; [] |263| 
    1430            ;* --------------------------------------------------------------------------*
    1431 000120 831F          SUB.W     #1,r15                ; [] |263| 
    1432 000122 2404          JEQ       $C$L46                ; [] |263| 
    1433                                                      ; [] |263| 
    1434            ;* --------------------------------------------------------------------------*
    1435 000124 831F          SUB.W     #1,r15                ; [] |263| 
    1436            ;* --------------------------------------------------------------------------*
    1437 000126       $C$L45:    
    1438                    .dwpsn  file "../src/bak.c",line 287,column 9,is_stmt,isa 0
    1439 000126 423F          MOV.W     #8,r15                ; [] |287| 
    1440 000128 3C0A          JMP       $C$L50                ; [] |287| 
    1441                                                      ; [] |287| 
    1442            ;* --------------------------------------------------------------------------*
    1443                    .align  4
    1444 00012c       $C$L46:    
    1445                    .dwpsn  file "../src/bak.c",line 274,column 9,is_stmt,isa 0
    1446 00012c 403F          MOV.W     #16,r15               ; [] |274| 
         00012e 0010 
    1447 000130 3C06          JMP       $C$L50                ; [] |274| 
    1448                                                      ; [] |274| 
    1449            ;* --------------------------------------------------------------------------*
    1450                    .align  4
    1451 000134       $C$L47:    
    1452                    .dwpsn  file "../src/bak.c",line 270,column 9,is_stmt,isa 0
    1453 000134 422F          MOV.W     #4,r15                ; [] |270| 
    1454 000136 3C03          JMP       $C$L50                ; [] |270| 
    1455                                                      ; [] |270| 
    1456            ;* --------------------------------------------------------------------------*
    1457                    .align  4
    1458 000138       $C$L48:    
    1459                    .dwpsn  file "../src/bak.c",line 268,column 9,is_stmt,isa 0
    1460 000138 432F          MOV.W     #2,r15                ; [] |268| 
    1461 00013a 3C01          JMP       $C$L50                ; [] |268| 
    1462                                                      ; [] |268| 
    1463            ;* --------------------------------------------------------------------------*
    1464 00013c       $C$L49:    
    1465                    .dwpsn  file "../src/bak.c",line 266,column 9,is_stmt,isa 0
MSP430 Assembler PC v21.6.1 Mon Feb 24 13:22:57 2025

Copyright (c) 2003-2018 Texas Instruments Incorporated
bak.asm                                                              PAGE   30

    1466 00013c 431F          MOV.W     #1,r15                ; [] |266| 
    1467            ;* --------------------------------------------------------------------------*
    1468 00013e       $C$L50:    
    1469                    .dwpsn  file "../src/bak.c",line 107,column 9,is_stmt,isa 0
    1470 00013e 002E!         MOVX.A    &CH_Channels+12,r14   ; [] |107| 
         000140 000C 
    1471 000142 4F8E          MOV.W     r15,6(r14)            ; [] |107| 
         000144 0006 
    1472                    .dwpsn  file "../src/bak.c",line 109,column 9,is_stmt,isa 0
    1473 000146 4C4C          MOV.B     r12,r12               ; [] |109| 
    1474 000148 1944          RPT #5 || RRUX.W r12 ; [] |109| 
         00014a 100C 
    1475 00014c 403D          MOV.W     #3,r13                ; [] |109| 
         00014e 0003 
    1476            $C$DW$81        .dwtag  DW_TAG_TI_branch
    1477                    .dwattr $C$DW$81, DW_AT_low_pc(0x00)
    1478                    .dwattr $C$DW$81, DW_AT_name("DecodePregain")
    1479                    .dwattr $C$DW$81, DW_AT_TI_call
    1480            
    1481 000150 13B0!         CALLA     #DecodePregain        ; [] |109| 
         000152 0000 
    1482                                                      ; [] |109| 
    1483 000154 002F!         MOVX.A    &CH_Channels+12,r15   ; [] |109| 
         000156 000C 
    1484 000158 4C8F          MOV.W     r12,4(r15)            ; [] |109| 
         00015a 0004 
    1485                    .dwpsn  file "../src/bak.c",line 112,column 9,is_stmt,isa 0
    1486 00015c 425C          MOV.B     &BAKMEM2_H+0,r12      ; [] |112| 
         00015e 0000!
    1487                    .dwpsn  file "../src/bak.c",line 114,column 9,is_stmt,isa 0
    1488 000160 4C4F          MOV.B     r12,r15               ; [] |114| 
    1489 000162 F03F          AND.W     #3,r15                ; [] |114| 
         000164 0003 
    1490 000166 002E!         MOVX.A    &CH_Channels+16,r14   ; [] |114| 
         000168 0010 
    1491 00016a 4F8E          MOV.W     r15,8(r14)            ; [] |114| 
         00016c 0008 
    1492                    .dwpsn  file "../src/bak.c",line 263,column 5,is_stmt,isa 0
    1493 00016e 4C4F          MOV.B     r12,r15               ; [] |263| 
    1494 000170 075F          RRUM.W    #2,r15                ; [] |263| 
    1495 000172 F03F          AND.W     #7,r15                ; [] |263| 
         000174 0007 
    1496 000176 930F          TST.W     r15                   ; [] |263| 
    1497 000178 2411          JEQ       $C$L54                ; [] |263| 
    1498                                                      ; [] |263| 
    1499            ;* --------------------------------------------------------------------------*
    1500 00017a 831F          SUB.W     #1,r15                ; [] |263| 
    1501 00017c 240D          JEQ       $C$L53                ; [] |263| 
    1502                                                      ; [] |263| 
    1503            ;* --------------------------------------------------------------------------*
    1504 00017e 831F          SUB.W     #1,r15                ; [] |263| 
    1505 000180 2409          JEQ       $C$L52                ; [] |263| 
    1506                                                      ; [] |263| 
    1507            ;* --------------------------------------------------------------------------*
    1508 000182 831F          SUB.W     #1,r15                ; [] |263| 
MSP430 Assembler PC v21.6.1 Mon Feb 24 13:22:57 2025

Copyright (c) 2003-2018 Texas Instruments Incorporated
bak.asm                                                              PAGE   31

    1509 000184 2405          JEQ       $C$L51                ; [] |263| 
    1510                                                      ; [] |263| 
    1511            ;* --------------------------------------------------------------------------*
    1512 000186 831F          SUB.W     #1,r15                ; [] |263| 
    1513            ;***    ; this point in the function is never reached
    1514                    .dwpsn  file "../src/bak.c",line 289,column 9,is_stmt,isa 0
    1515 000188 403F          MOV.W     #16,r15               ; [] |289| 
         00018a 0010 
    1516 00018c 3C08          JMP       $C$L55                ; [] |289| 
    1517                                                      ; [] |289| 
    1518            ;* --------------------------------------------------------------------------*
    1519                    .align  4
    1520 000190       $C$L51:    
    1521                    .dwpsn  file "../src/bak.c",line 272,column 9,is_stmt,isa 0
    1522 000190 423F          MOV.W     #8,r15                ; [] |272| 
    1523 000192 3C05          JMP       $C$L55                ; [] |272| 
    1524                                                      ; [] |272| 
    1525            ;* --------------------------------------------------------------------------*
    1526                    .align  4
    1527 000194       $C$L52:    
    1528                    .dwpsn  file "../src/bak.c",line 270,column 9,is_stmt,isa 0
    1529 000194 422F          MOV.W     #4,r15                ; [] |270| 
    1530 000196 3C03          JMP       $C$L55                ; [] |270| 
    1531                                                      ; [] |270| 
    1532            ;* --------------------------------------------------------------------------*
    1533                    .align  4
    1534 000198       $C$L53:    
    1535                    .dwpsn  file "../src/bak.c",line 268,column 9,is_stmt,isa 0
    1536 000198 432F          MOV.W     #2,r15                ; [] |268| 
    1537 00019a 3C01          JMP       $C$L55                ; [] |268| 
    1538                                                      ; [] |268| 
    1539            ;* --------------------------------------------------------------------------*
    1540 00019c       $C$L54:    
    1541                    .dwpsn  file "../src/bak.c",line 266,column 9,is_stmt,isa 0
    1542 00019c 431F          MOV.W     #1,r15                ; [] |266| 
    1543            ;* --------------------------------------------------------------------------*
    1544 00019e       $C$L55:    
    1545                    .dwpsn  file "../src/bak.c",line 116,column 9,is_stmt,isa 0
    1546 00019e 002E!         MOVX.A    &CH_Channels+16,r14   ; [] |116| 
         0001a0 0010 
    1547 0001a2 4F8E          MOV.W     r15,6(r14)            ; [] |116| 
         0001a4 0006 
    1548                    .dwpsn  file "../src/bak.c",line 118,column 9,is_stmt,isa 0
    1549 0001a6 4C4C          MOV.B     r12,r12               ; [] |118| 
    1550 0001a8 1944          RPT #5 || RRUX.W r12 ; [] |118| 
         0001aa 100C 
    1551 0001ac 422D          MOV.W     #4,r13                ; [] |118| 
    1552            $C$DW$82        .dwtag  DW_TAG_TI_branch
    1553                    .dwattr $C$DW$82, DW_AT_low_pc(0x00)
    1554                    .dwattr $C$DW$82, DW_AT_name("DecodePregain")
    1555                    .dwattr $C$DW$82, DW_AT_TI_call
    1556            
    1557 0001ae 13B0!         CALLA     #DecodePregain        ; [] |118| 
         0001b0 0000 
    1558                                                      ; [] |118| 
MSP430 Assembler PC v21.6.1 Mon Feb 24 13:22:57 2025

Copyright (c) 2003-2018 Texas Instruments Incorporated
bak.asm                                                              PAGE   32

    1559 0001b2 002F!         MOVX.A    &CH_Channels+16,r15   ; [] |118| 
         0001b4 0010 
    1560 0001b6 4C8F          MOV.W     r12,4(r15)            ; [] |118| 
         0001b8 0004 
    1561                    .dwpsn  file "../src/bak.c",line 121,column 9,is_stmt,isa 0
    1562 0001ba 008C!         MOVX.A    #MAIN_CurrentTime+0,r12 ; [] |121| 
         0001bc 0000 
    1563            $C$DW$83        .dwtag  DW_TAG_TI_branch
    1564                    .dwattr $C$DW$83, DW_AT_low_pc(0x00)
    1565                    .dwattr $C$DW$83, DW_AT_name("CLK_GetRTC")
    1566                    .dwattr $C$DW$83, DW_AT_TI_call
    1567            
    1568 0001be 13B0!         CALLA     #CLK_GetRTC           ; [] |121| 
         0001c0 0000 
    1569                                                      ; [] |121| 
    1570                    .dwpsn  file "../src/bak.c",line 124,column 5,is_stmt,isa 0
    1571 0001c2 430C          MOV.W     #0,r12                ; [] |124| 
    1572            $C$DW$84        .dwtag  DW_TAG_TI_branch
    1573                    .dwattr $C$DW$84, DW_AT_low_pc(0x00)
    1574                    .dwattr $C$DW$84, DW_AT_TI_return
    1575            
    1576 0001c4 0110          RETA      ; [] 
    1577                    ; [] 
    1578                    .dwattr $C$DW$72, DW_AT_TI_end_file("../src/bak.c")
    1579                    .dwattr $C$DW$72, DW_AT_TI_end_line(0x7d)
    1580                    .dwattr $C$DW$72, DW_AT_TI_end_column(0x01)
    1581                    .dwendentry
    1582                    .dwendtag $C$DW$72
    1583            
    1584            ;*****************************************************************************
    1585            ;* UNDEFINED EXTERNAL REFERENCES                                             *
    1586            ;*****************************************************************************
    1587                    .global BAKMEM0
    1588                    .global BAKMEM1
    1589                    .global BAKMEM1_L
    1590                    .global BAKMEM1_H
    1591                    .global BAKMEM2
    1592                    .global BAKMEM2_L
    1593                    .global BAKMEM2_H
    1594                    .global BAKMEM3
    1595                    .global BAKMEM3_L
    1596                    .global BAKMEM3_H
    1597                    .global MAIN_CurrentTime
    1598                    .global CH_Channels
    1599                    .global CLK_GetRTC
    1600            
    1601            ;******************************************************************************
    1602            ;* BUILD ATTRIBUTES                                                           *
    1603            ;******************************************************************************
    1604                    .battr "TI", Tag_File, 1, Tag_LPM_INFO(1)
    1605                    .battr "TI", Tag_File, 1, Tag_PORTS_INIT_INFO("012345678901ABCDEFGHIJ0000000000001111100000000
    1606                    .battr "TI", Tag_File, 1, Tag_LEA_INFO(1)
    1607                    .battr "TI", Tag_File, 1, Tag_HW_MPY32_INFO(2)
    1608                    .battr "TI", Tag_File, 1, Tag_HW_MPY_ISR_INFO(1)
    1609                    .battr "TI", Tag_File, 1, Tag_HW_MPY_INLINE_INFO(2)
MSP430 Assembler PC v21.6.1 Mon Feb 24 13:22:57 2025

Copyright (c) 2003-2018 Texas Instruments Incorporated
bak.asm                                                              PAGE   33

    1610                    .battr "mspabi", Tag_File, 1, Tag_enum_size(3)
    1611            
    1612            ;******************************************************************************
    1613            ;* TYPE INFORMATION                                                           *
    1614            ;******************************************************************************
    1615            
    1616            $C$DW$T$23      .dwtag  DW_TAG_structure_type
    1617                    .dwattr $C$DW$T$23, DW_AT_byte_size(0x0c)
    1618            $C$DW$85        .dwtag  DW_TAG_member
    1619                    .dwattr $C$DW$85, DW_AT_type(*$C$DW$T$22)
    1620                    .dwattr $C$DW$85, DW_AT_name("year")
    1621                    .dwattr $C$DW$85, DW_AT_TI_symbol_name("year")
    1622                    .dwattr $C$DW$85, DW_AT_data_member_location[DW_OP_plus_uconst 0x0]
    1623                    .dwattr $C$DW$85, DW_AT_accessibility(DW_ACCESS_public)
    1624                    .dwattr $C$DW$85, DW_AT_decl_file("C:\Users\kyle_\Documents\CodeComposerStudio\PIXIE_MSP430\in
    1625                    .dwattr $C$DW$85, DW_AT_decl_line(0x2a)
    1626                    .dwattr $C$DW$85, DW_AT_decl_column(0x11)
    1627            
    1628            $C$DW$86        .dwtag  DW_TAG_member
    1629                    .dwattr $C$DW$86, DW_AT_type(*$C$DW$T$22)
    1630                    .dwattr $C$DW$86, DW_AT_name("month")
    1631                    .dwattr $C$DW$86, DW_AT_TI_symbol_name("month")
    1632                    .dwattr $C$DW$86, DW_AT_data_member_location[DW_OP_plus_uconst 0x2]
    1633                    .dwattr $C$DW$86, DW_AT_accessibility(DW_ACCESS_public)
    1634                    .dwattr $C$DW$86, DW_AT_decl_file("C:\Users\kyle_\Documents\CodeComposerStudio\PIXIE_MSP430\in
    1635                    .dwattr $C$DW$86, DW_AT_decl_line(0x2b)
    1636                    .dwattr $C$DW$86, DW_AT_decl_column(0x11)
    1637            
    1638            $C$DW$87        .dwtag  DW_TAG_member
    1639                    .dwattr $C$DW$87, DW_AT_type(*$C$DW$T$22)
    1640                    .dwattr $C$DW$87, DW_AT_name("day")
    1641                    .dwattr $C$DW$87, DW_AT_TI_symbol_name("day")
    1642                    .dwattr $C$DW$87, DW_AT_data_member_location[DW_OP_plus_uconst 0x4]
    1643                    .dwattr $C$DW$87, DW_AT_accessibility(DW_ACCESS_public)
    1644                    .dwattr $C$DW$87, DW_AT_decl_file("C:\Users\kyle_\Documents\CodeComposerStudio\PIXIE_MSP430\in
    1645                    .dwattr $C$DW$87, DW_AT_decl_line(0x2c)
    1646                    .dwattr $C$DW$87, DW_AT_decl_column(0x11)
    1647            
    1648            $C$DW$88        .dwtag  DW_TAG_member
    1649                    .dwattr $C$DW$88, DW_AT_type(*$C$DW$T$22)
    1650                    .dwattr $C$DW$88, DW_AT_name("hour")
    1651                    .dwattr $C$DW$88, DW_AT_TI_symbol_name("hour")
    1652                    .dwattr $C$DW$88, DW_AT_data_member_location[DW_OP_plus_uconst 0x6]
    1653                    .dwattr $C$DW$88, DW_AT_accessibility(DW_ACCESS_public)
    1654                    .dwattr $C$DW$88, DW_AT_decl_file("C:\Users\kyle_\Documents\CodeComposerStudio\PIXIE_MSP430\in
    1655                    .dwattr $C$DW$88, DW_AT_decl_line(0x2d)
    1656                    .dwattr $C$DW$88, DW_AT_decl_column(0x11)
    1657            
    1658            $C$DW$89        .dwtag  DW_TAG_member
    1659                    .dwattr $C$DW$89, DW_AT_type(*$C$DW$T$22)
    1660                    .dwattr $C$DW$89, DW_AT_name("min")
    1661                    .dwattr $C$DW$89, DW_AT_TI_symbol_name("min")
    1662                    .dwattr $C$DW$89, DW_AT_data_member_location[DW_OP_plus_uconst 0x8]
    1663                    .dwattr $C$DW$89, DW_AT_accessibility(DW_ACCESS_public)
    1664                    .dwattr $C$DW$89, DW_AT_decl_file("C:\Users\kyle_\Documents\CodeComposerStudio\PIXIE_MSP430\in
MSP430 Assembler PC v21.6.1 Mon Feb 24 13:22:57 2025

Copyright (c) 2003-2018 Texas Instruments Incorporated
bak.asm                                                              PAGE   34

    1665                    .dwattr $C$DW$89, DW_AT_decl_line(0x2e)
    1666                    .dwattr $C$DW$89, DW_AT_decl_column(0x11)
    1667            
    1668            $C$DW$90        .dwtag  DW_TAG_member
    1669                    .dwattr $C$DW$90, DW_AT_type(*$C$DW$T$22)
    1670                    .dwattr $C$DW$90, DW_AT_name("sec")
    1671                    .dwattr $C$DW$90, DW_AT_TI_symbol_name("sec")
    1672                    .dwattr $C$DW$90, DW_AT_data_member_location[DW_OP_plus_uconst 0xa]
    1673                    .dwattr $C$DW$90, DW_AT_accessibility(DW_ACCESS_public)
    1674                    .dwattr $C$DW$90, DW_AT_decl_file("C:\Users\kyle_\Documents\CodeComposerStudio\PIXIE_MSP430\in
    1675                    .dwattr $C$DW$90, DW_AT_decl_line(0x2f)
    1676                    .dwattr $C$DW$90, DW_AT_decl_column(0x11)
    1677            
    1678                    .dwattr $C$DW$T$23, DW_AT_decl_file("C:\Users\kyle_\Documents\CodeComposerStudio\PIXIE_MSP430\
    1679                    .dwattr $C$DW$T$23, DW_AT_decl_line(0x29)
    1680                    .dwattr $C$DW$T$23, DW_AT_decl_column(0x01)
    1681                    .dwendtag $C$DW$T$23
    1682            
    1683            $C$DW$T$32      .dwtag  DW_TAG_typedef
    1684                    .dwattr $C$DW$T$32, DW_AT_name("CLK_TimeStamp")
    1685                    .dwattr $C$DW$T$32, DW_AT_type(*$C$DW$T$23)
    1686                    .dwattr $C$DW$T$32, DW_AT_language(DW_LANG_C)
    1687                    .dwattr $C$DW$T$32, DW_AT_decl_file("C:\Users\kyle_\Documents\CodeComposerStudio\PIXIE_MSP430\
    1688                    .dwattr $C$DW$T$32, DW_AT_decl_line(0x30)
    1689                    .dwattr $C$DW$T$32, DW_AT_decl_column(0x03)
    1690            
    1691            $C$DW$T$33      .dwtag  DW_TAG_pointer_type
    1692                    .dwattr $C$DW$T$33, DW_AT_type(*$C$DW$T$32)
    1693                    .dwattr $C$DW$T$33, DW_AT_address_class(0x14)
    1694            
    1695            
    1696            $C$DW$T$27      .dwtag  DW_TAG_structure_type
    1697                    .dwattr $C$DW$T$27, DW_AT_byte_size(0x6a)
    1698            $C$DW$91        .dwtag  DW_TAG_member
    1699                    .dwattr $C$DW$91, DW_AT_type(*$C$DW$T$22)
    1700                    .dwattr $C$DW$91, DW_AT_name("id")
    1701                    .dwattr $C$DW$91, DW_AT_TI_symbol_name("id")
    1702                    .dwattr $C$DW$91, DW_AT_data_member_location[DW_OP_plus_uconst 0x0]
    1703                    .dwattr $C$DW$91, DW_AT_accessibility(DW_ACCESS_public)
    1704                    .dwattr $C$DW$91, DW_AT_decl_file("C:/Users/kyle_/Documents/CodeComposerStudio/PIXIE_MSP430/in
    1705                    .dwattr $C$DW$91, DW_AT_decl_line(0x22)
    1706                    .dwattr $C$DW$91, DW_AT_decl_column(0x15)
    1707            
    1708            $C$DW$92        .dwtag  DW_TAG_member
    1709                    .dwattr $C$DW$92, DW_AT_type(*$C$DW$T$22)
    1710                    .dwattr $C$DW$92, DW_AT_name("typeid")
    1711                    .dwattr $C$DW$92, DW_AT_TI_symbol_name("typeid")
    1712                    .dwattr $C$DW$92, DW_AT_data_member_location[DW_OP_plus_uconst 0x2]
    1713                    .dwattr $C$DW$92, DW_AT_accessibility(DW_ACCESS_public)
    1714                    .dwattr $C$DW$92, DW_AT_decl_file("C:/Users/kyle_/Documents/CodeComposerStudio/PIXIE_MSP430/in
    1715                    .dwattr $C$DW$92, DW_AT_decl_line(0x23)
    1716                    .dwattr $C$DW$92, DW_AT_decl_column(0x15)
    1717            
    1718            $C$DW$93        .dwtag  DW_TAG_member
    1719                    .dwattr $C$DW$93, DW_AT_type(*$C$DW$T$22)
MSP430 Assembler PC v21.6.1 Mon Feb 24 13:22:57 2025

Copyright (c) 2003-2018 Texas Instruments Incorporated
bak.asm                                                              PAGE   35

    1720                    .dwattr $C$DW$93, DW_AT_name("pregain")
    1721                    .dwattr $C$DW$93, DW_AT_TI_symbol_name("pregain")
    1722                    .dwattr $C$DW$93, DW_AT_data_member_location[DW_OP_plus_uconst 0x4]
    1723                    .dwattr $C$DW$93, DW_AT_accessibility(DW_ACCESS_public)
    1724                    .dwattr $C$DW$93, DW_AT_decl_file("C:/Users/kyle_/Documents/CodeComposerStudio/PIXIE_MSP430/in
    1725                    .dwattr $C$DW$93, DW_AT_decl_line(0x24)
    1726                    .dwattr $C$DW$93, DW_AT_decl_column(0x15)
    1727            
    1728            $C$DW$94        .dwtag  DW_TAG_member
    1729                    .dwattr $C$DW$94, DW_AT_type(*$C$DW$T$22)
    1730                    .dwattr $C$DW$94, DW_AT_name("gain")
    1731                    .dwattr $C$DW$94, DW_AT_TI_symbol_name("gain")
    1732                    .dwattr $C$DW$94, DW_AT_data_member_location[DW_OP_plus_uconst 0x6]
    1733                    .dwattr $C$DW$94, DW_AT_accessibility(DW_ACCESS_public)
    1734                    .dwattr $C$DW$94, DW_AT_decl_file("C:/Users/kyle_/Documents/CodeComposerStudio/PIXIE_MSP430/in
    1735                    .dwattr $C$DW$94, DW_AT_decl_line(0x25)
    1736                    .dwattr $C$DW$94, DW_AT_decl_column(0x15)
    1737            
    1738            $C$DW$95        .dwtag  DW_TAG_member
    1739                    .dwattr $C$DW$95, DW_AT_type(*$C$DW$T$22)
    1740                    .dwattr $C$DW$95, DW_AT_name("attenuation")
    1741                    .dwattr $C$DW$95, DW_AT_TI_symbol_name("attenuation")
    1742                    .dwattr $C$DW$95, DW_AT_data_member_location[DW_OP_plus_uconst 0x8]
    1743                    .dwattr $C$DW$95, DW_AT_accessibility(DW_ACCESS_public)
    1744                    .dwattr $C$DW$95, DW_AT_decl_file("C:/Users/kyle_/Documents/CodeComposerStudio/PIXIE_MSP430/in
    1745                    .dwattr $C$DW$95, DW_AT_decl_line(0x26)
    1746                    .dwattr $C$DW$95, DW_AT_decl_column(0x15)
    1747            
    1748            $C$DW$96        .dwtag  DW_TAG_member
    1749                    .dwattr $C$DW$96, DW_AT_type(*$C$DW$T$24)
    1750                    .dwattr $C$DW$96, DW_AT_name("DACbuffer")
    1751                    .dwattr $C$DW$96, DW_AT_TI_symbol_name("DACbuffer")
    1752                    .dwattr $C$DW$96, DW_AT_data_member_location[DW_OP_plus_uconst 0xa]
    1753                    .dwattr $C$DW$96, DW_AT_accessibility(DW_ACCESS_public)
    1754                    .dwattr $C$DW$96, DW_AT_decl_file("C:/Users/kyle_/Documents/CodeComposerStudio/PIXIE_MSP430/in
    1755                    .dwattr $C$DW$96, DW_AT_decl_line(0x29)
    1756                    .dwattr $C$DW$96, DW_AT_decl_column(0x15)
    1757            
    1758            $C$DW$97        .dwtag  DW_TAG_member
    1759                    .dwattr $C$DW$97, DW_AT_type(*$C$DW$T$26)
    1760                    .dwattr $C$DW$97, DW_AT_name("tap1")
    1761                    .dwattr $C$DW$97, DW_AT_TI_symbol_name("tap1")
    1762                    .dwattr $C$DW$97, DW_AT_data_member_location[DW_OP_plus_uconst 0x4a]
    1763                    .dwattr $C$DW$97, DW_AT_accessibility(DW_ACCESS_public)
    1764                    .dwattr $C$DW$97, DW_AT_decl_file("C:/Users/kyle_/Documents/CodeComposerStudio/PIXIE_MSP430/in
    1765                    .dwattr $C$DW$97, DW_AT_decl_line(0x2e)
    1766                    .dwattr $C$DW$97, DW_AT_decl_column(0x15)
    1767            
    1768            $C$DW$98        .dwtag  DW_TAG_member
    1769                    .dwattr $C$DW$98, DW_AT_type(*$C$DW$T$26)
    1770                    .dwattr $C$DW$98, DW_AT_name("tap2")
    1771                    .dwattr $C$DW$98, DW_AT_TI_symbol_name("tap2")
    1772                    .dwattr $C$DW$98, DW_AT_data_member_location[DW_OP_plus_uconst 0x4e]
    1773                    .dwattr $C$DW$98, DW_AT_accessibility(DW_ACCESS_public)
    1774                    .dwattr $C$DW$98, DW_AT_decl_file("C:/Users/kyle_/Documents/CodeComposerStudio/PIXIE_MSP430/in
MSP430 Assembler PC v21.6.1 Mon Feb 24 13:22:57 2025

Copyright (c) 2003-2018 Texas Instruments Incorporated
bak.asm                                                              PAGE   36

    1775                    .dwattr $C$DW$98, DW_AT_decl_line(0x2f)
    1776                    .dwattr $C$DW$98, DW_AT_decl_column(0x15)
    1777            
    1778            $C$DW$99        .dwtag  DW_TAG_member
    1779                    .dwattr $C$DW$99, DW_AT_type(*$C$DW$T$26)
    1780                    .dwattr $C$DW$99, DW_AT_name("xtap1")
    1781                    .dwattr $C$DW$99, DW_AT_TI_symbol_name("xtap1")
    1782                    .dwattr $C$DW$99, DW_AT_data_member_location[DW_OP_plus_uconst 0x52]
    1783                    .dwattr $C$DW$99, DW_AT_accessibility(DW_ACCESS_public)
    1784                    .dwattr $C$DW$99, DW_AT_decl_file("C:/Users/kyle_/Documents/CodeComposerStudio/PIXIE_MSP430/in
    1785                    .dwattr $C$DW$99, DW_AT_decl_line(0x30)
    1786                    .dwattr $C$DW$99, DW_AT_decl_column(0x15)
    1787            
    1788            $C$DW$100       .dwtag  DW_TAG_member
    1789                    .dwattr $C$DW$100, DW_AT_type(*$C$DW$T$26)
    1790                    .dwattr $C$DW$100, DW_AT_name("xtap2")
    1791                    .dwattr $C$DW$100, DW_AT_TI_symbol_name("xtap2")
    1792                    .dwattr $C$DW$100, DW_AT_data_member_location[DW_OP_plus_uconst 0x56]
    1793                    .dwattr $C$DW$100, DW_AT_accessibility(DW_ACCESS_public)
    1794                    .dwattr $C$DW$100, DW_AT_decl_file("C:/Users/kyle_/Documents/CodeComposerStudio/PIXIE_MSP430/i
    1795                    .dwattr $C$DW$100, DW_AT_decl_line(0x31)
    1796                    .dwattr $C$DW$100, DW_AT_decl_column(0x15)
    1797            
    1798            $C$DW$101       .dwtag  DW_TAG_member
    1799                    .dwattr $C$DW$101, DW_AT_type(*$C$DW$T$26)
    1800                    .dwattr $C$DW$101, DW_AT_name("ytap1")
    1801                    .dwattr $C$DW$101, DW_AT_TI_symbol_name("ytap1")
    1802                    .dwattr $C$DW$101, DW_AT_data_member_location[DW_OP_plus_uconst 0x5a]
    1803                    .dwattr $C$DW$101, DW_AT_accessibility(DW_ACCESS_public)
    1804                    .dwattr $C$DW$101, DW_AT_decl_file("C:/Users/kyle_/Documents/CodeComposerStudio/PIXIE_MSP430/i
    1805                    .dwattr $C$DW$101, DW_AT_decl_line(0x32)
    1806                    .dwattr $C$DW$101, DW_AT_decl_column(0x15)
    1807            
    1808            $C$DW$102       .dwtag  DW_TAG_member
    1809                    .dwattr $C$DW$102, DW_AT_type(*$C$DW$T$26)
    1810                    .dwattr $C$DW$102, DW_AT_name("ytap2")
    1811                    .dwattr $C$DW$102, DW_AT_TI_symbol_name("ytap2")
    1812                    .dwattr $C$DW$102, DW_AT_data_member_location[DW_OP_plus_uconst 0x5e]
    1813                    .dwattr $C$DW$102, DW_AT_accessibility(DW_ACCESS_public)
    1814                    .dwattr $C$DW$102, DW_AT_decl_file("C:/Users/kyle_/Documents/CodeComposerStudio/PIXIE_MSP430/i
    1815                    .dwattr $C$DW$102, DW_AT_decl_line(0x33)
    1816                    .dwattr $C$DW$102, DW_AT_decl_column(0x15)
    1817            
    1818            $C$DW$103       .dwtag  DW_TAG_member
    1819                    .dwattr $C$DW$103, DW_AT_type(*$C$DW$T$22)
    1820                    .dwattr $C$DW$103, DW_AT_name("cycles")
    1821                    .dwattr $C$DW$103, DW_AT_TI_symbol_name("cycles")
    1822                    .dwattr $C$DW$103, DW_AT_data_member_location[DW_OP_plus_uconst 0x62]
    1823                    .dwattr $C$DW$103, DW_AT_accessibility(DW_ACCESS_public)
    1824                    .dwattr $C$DW$103, DW_AT_decl_file("C:/Users/kyle_/Documents/CodeComposerStudio/PIXIE_MSP430/i
    1825                    .dwattr $C$DW$103, DW_AT_decl_line(0x35)
    1826                    .dwattr $C$DW$103, DW_AT_decl_column(0x15)
    1827            
    1828            $C$DW$104       .dwtag  DW_TAG_member
    1829                    .dwattr $C$DW$104, DW_AT_type(*$C$DW$T$22)
MSP430 Assembler PC v21.6.1 Mon Feb 24 13:22:57 2025

Copyright (c) 2003-2018 Texas Instruments Incorporated
bak.asm                                                              PAGE   37

    1830                    .dwattr $C$DW$104, DW_AT_name("seqcycles")
    1831                    .dwattr $C$DW$104, DW_AT_TI_symbol_name("seqcycles")
    1832                    .dwattr $C$DW$104, DW_AT_data_member_location[DW_OP_plus_uconst 0x64]
    1833                    .dwattr $C$DW$104, DW_AT_accessibility(DW_ACCESS_public)
    1834                    .dwattr $C$DW$104, DW_AT_decl_file("C:/Users/kyle_/Documents/CodeComposerStudio/PIXIE_MSP430/i
    1835                    .dwattr $C$DW$104, DW_AT_decl_line(0x36)
    1836                    .dwattr $C$DW$104, DW_AT_decl_column(0x15)
    1837            
    1838            $C$DW$105       .dwtag  DW_TAG_member
    1839                    .dwattr $C$DW$105, DW_AT_type(*$C$DW$T$3)
    1840                    .dwattr $C$DW$105, DW_AT_name("next")
    1841                    .dwattr $C$DW$105, DW_AT_TI_symbol_name("next")
    1842                    .dwattr $C$DW$105, DW_AT_data_member_location[DW_OP_plus_uconst 0x66]
    1843                    .dwattr $C$DW$105, DW_AT_accessibility(DW_ACCESS_public)
    1844                    .dwattr $C$DW$105, DW_AT_decl_file("C:/Users/kyle_/Documents/CodeComposerStudio/PIXIE_MSP430/i
    1845                    .dwattr $C$DW$105, DW_AT_decl_line(0x37)
    1846                    .dwattr $C$DW$105, DW_AT_decl_column(0x15)
    1847            
    1848                    .dwattr $C$DW$T$27, DW_AT_decl_file("C:/Users/kyle_/Documents/CodeComposerStudio/PIXIE_MSP430/
    1849                    .dwattr $C$DW$T$27, DW_AT_decl_line(0x21)
    1850                    .dwattr $C$DW$T$27, DW_AT_decl_column(0x01)
    1851                    .dwendtag $C$DW$T$27
    1852            
    1853            $C$DW$T$35      .dwtag  DW_TAG_typedef
    1854                    .dwattr $C$DW$T$35, DW_AT_name("CH_ChannelSpec")
    1855                    .dwattr $C$DW$T$35, DW_AT_type(*$C$DW$T$27)
    1856                    .dwattr $C$DW$T$35, DW_AT_language(DW_LANG_C)
    1857                    .dwattr $C$DW$T$35, DW_AT_decl_file("C:/Users/kyle_/Documents/CodeComposerStudio/PIXIE_MSP430/
    1858                    .dwattr $C$DW$T$35, DW_AT_decl_line(0x39)
    1859                    .dwattr $C$DW$T$35, DW_AT_decl_column(0x03)
    1860            
    1861            $C$DW$T$36      .dwtag  DW_TAG_pointer_type
    1862                    .dwattr $C$DW$T$36, DW_AT_type(*$C$DW$T$35)
    1863                    .dwattr $C$DW$T$36, DW_AT_address_class(0x14)
    1864            
    1865            
    1866            $C$DW$T$37      .dwtag  DW_TAG_array_type
    1867                    .dwattr $C$DW$T$37, DW_AT_type(*$C$DW$T$36)
    1868                    .dwattr $C$DW$T$37, DW_AT_language(DW_LANG_C)
    1869                    .dwattr $C$DW$T$37, DW_AT_byte_size(0x14)
    1870            $C$DW$106       .dwtag  DW_TAG_subrange_type
    1871                    .dwattr $C$DW$106, DW_AT_upper_bound(0x04)
    1872            
    1873                    .dwendtag $C$DW$T$37
    1874            
    1875            
    1876            $C$DW$T$28      .dwtag  DW_TAG_structure_type
    1877                    .dwattr $C$DW$T$28, DW_AT_byte_size(0x10)
    1878            $C$DW$107       .dwtag  DW_TAG_member
    1879                    .dwattr $C$DW$107, DW_AT_type(*$C$DW$T$14)
    1880                    .dwattr $C$DW$107, DW_AT_name("__max_align1")
    1881                    .dwattr $C$DW$107, DW_AT_TI_symbol_name("__max_align1")
    1882                    .dwattr $C$DW$107, DW_AT_data_member_location[DW_OP_plus_uconst 0x0]
    1883                    .dwattr $C$DW$107, DW_AT_accessibility(DW_ACCESS_public)
    1884                    .dwattr $C$DW$107, DW_AT_decl_file("C:/ti/ccs1250/ccs/tools/compiler/ti-cgt-msp430_21.6.1.LTS/
MSP430 Assembler PC v21.6.1 Mon Feb 24 13:22:57 2025

Copyright (c) 2003-2018 Texas Instruments Incorporated
bak.asm                                                              PAGE   38

    1885                    .dwattr $C$DW$107, DW_AT_decl_line(0x7b)
    1886                    .dwattr $C$DW$107, DW_AT_decl_column(0x0c)
    1887            
    1888            $C$DW$108       .dwtag  DW_TAG_member
    1889                    .dwattr $C$DW$108, DW_AT_type(*$C$DW$T$18)
    1890                    .dwattr $C$DW$108, DW_AT_name("__max_align2")
    1891                    .dwattr $C$DW$108, DW_AT_TI_symbol_name("__max_align2")
    1892                    .dwattr $C$DW$108, DW_AT_data_member_location[DW_OP_plus_uconst 0x8]
    1893                    .dwattr $C$DW$108, DW_AT_accessibility(DW_ACCESS_public)
    1894                    .dwattr $C$DW$108, DW_AT_decl_file("C:/ti/ccs1250/ccs/tools/compiler/ti-cgt-msp430_21.6.1.LTS/
    1895                    .dwattr $C$DW$108, DW_AT_decl_line(0x7c)
    1896                    .dwattr $C$DW$108, DW_AT_decl_column(0x0e)
    1897            
    1898                    .dwattr $C$DW$T$28, DW_AT_decl_file("C:/ti/ccs1250/ccs/tools/compiler/ti-cgt-msp430_21.6.1.LTS
    1899                    .dwattr $C$DW$T$28, DW_AT_decl_line(0x7a)
    1900                    .dwattr $C$DW$T$28, DW_AT_decl_column(0x10)
    1901                    .dwendtag $C$DW$T$28
    1902            
    1903            $C$DW$T$41      .dwtag  DW_TAG_typedef
    1904                    .dwattr $C$DW$T$41, DW_AT_name("__max_align_t")
    1905                    .dwattr $C$DW$T$41, DW_AT_type(*$C$DW$T$28)
    1906                    .dwattr $C$DW$T$41, DW_AT_language(DW_LANG_C)
    1907                    .dwattr $C$DW$T$41, DW_AT_decl_file("C:/ti/ccs1250/ccs/tools/compiler/ti-cgt-msp430_21.6.1.LTS
    1908                    .dwattr $C$DW$T$41, DW_AT_decl_line(0x7d)
    1909                    .dwattr $C$DW$T$41, DW_AT_decl_column(0x03)
    1910            
    1911            
    1912            $C$DW$T$29      .dwtag  DW_TAG_structure_type
    1913                    .dwattr $C$DW$T$29, DW_AT_byte_size(0x04)
    1914            $C$DW$109       .dwtag  DW_TAG_member
    1915                    .dwattr $C$DW$109, DW_AT_type(*$C$DW$T$10)
    1916                    .dwattr $C$DW$109, DW_AT_name("quot")
    1917                    .dwattr $C$DW$109, DW_AT_TI_symbol_name("quot")
    1918                    .dwattr $C$DW$109, DW_AT_data_member_location[DW_OP_plus_uconst 0x0]
    1919                    .dwattr $C$DW$109, DW_AT_accessibility(DW_ACCESS_public)
    1920                    .dwattr $C$DW$109, DW_AT_decl_file("C:/ti/ccs1250/ccs/tools/compiler/ti-cgt-msp430_21.6.1.LTS/
    1921                    .dwattr $C$DW$109, DW_AT_decl_line(0x56)
    1922                    .dwattr $C$DW$109, DW_AT_decl_column(0x16)
    1923            
    1924            $C$DW$110       .dwtag  DW_TAG_member
    1925                    .dwattr $C$DW$110, DW_AT_type(*$C$DW$T$10)
    1926                    .dwattr $C$DW$110, DW_AT_name("rem")
    1927                    .dwattr $C$DW$110, DW_AT_TI_symbol_name("rem")
    1928                    .dwattr $C$DW$110, DW_AT_data_member_location[DW_OP_plus_uconst 0x2]
    1929                    .dwattr $C$DW$110, DW_AT_accessibility(DW_ACCESS_public)
    1930                    .dwattr $C$DW$110, DW_AT_decl_file("C:/ti/ccs1250/ccs/tools/compiler/ti-cgt-msp430_21.6.1.LTS/
    1931                    .dwattr $C$DW$110, DW_AT_decl_line(0x56)
    1932                    .dwattr $C$DW$110, DW_AT_decl_column(0x1c)
    1933            
    1934                    .dwattr $C$DW$T$29, DW_AT_decl_file("C:/ti/ccs1250/ccs/tools/compiler/ti-cgt-msp430_21.6.1.LTS
    1935                    .dwattr $C$DW$T$29, DW_AT_decl_line(0x56)
    1936                    .dwattr $C$DW$T$29, DW_AT_decl_column(0x10)
    1937                    .dwendtag $C$DW$T$29
    1938            
    1939            $C$DW$T$42      .dwtag  DW_TAG_typedef
MSP430 Assembler PC v21.6.1 Mon Feb 24 13:22:57 2025

Copyright (c) 2003-2018 Texas Instruments Incorporated
bak.asm                                                              PAGE   39

    1940                    .dwattr $C$DW$T$42, DW_AT_name("div_t")
    1941                    .dwattr $C$DW$T$42, DW_AT_type(*$C$DW$T$29)
    1942                    .dwattr $C$DW$T$42, DW_AT_language(DW_LANG_C)
    1943                    .dwattr $C$DW$T$42, DW_AT_decl_file("C:/ti/ccs1250/ccs/tools/compiler/ti-cgt-msp430_21.6.1.LTS
    1944                    .dwattr $C$DW$T$42, DW_AT_decl_line(0x56)
    1945                    .dwattr $C$DW$T$42, DW_AT_decl_column(0x23)
    1946            
    1947            
    1948            $C$DW$T$30      .dwtag  DW_TAG_structure_type
    1949                    .dwattr $C$DW$T$30, DW_AT_byte_size(0x08)
    1950            $C$DW$111       .dwtag  DW_TAG_member
    1951                    .dwattr $C$DW$111, DW_AT_type(*$C$DW$T$12)
    1952                    .dwattr $C$DW$111, DW_AT_name("quot")
    1953                    .dwattr $C$DW$111, DW_AT_TI_symbol_name("quot")
    1954                    .dwattr $C$DW$111, DW_AT_data_member_location[DW_OP_plus_uconst 0x0]
    1955                    .dwattr $C$DW$111, DW_AT_accessibility(DW_ACCESS_public)
    1956                    .dwattr $C$DW$111, DW_AT_decl_file("C:/ti/ccs1250/ccs/tools/compiler/ti-cgt-msp430_21.6.1.LTS/
    1957                    .dwattr $C$DW$111, DW_AT_decl_line(0x59)
    1958                    .dwattr $C$DW$111, DW_AT_decl_column(0x17)
    1959            
    1960            $C$DW$112       .dwtag  DW_TAG_member
    1961                    .dwattr $C$DW$112, DW_AT_type(*$C$DW$T$12)
    1962                    .dwattr $C$DW$112, DW_AT_name("rem")
    1963                    .dwattr $C$DW$112, DW_AT_TI_symbol_name("rem")
    1964                    .dwattr $C$DW$112, DW_AT_data_member_location[DW_OP_plus_uconst 0x4]
    1965                    .dwattr $C$DW$112, DW_AT_accessibility(DW_ACCESS_public)
    1966                    .dwattr $C$DW$112, DW_AT_decl_file("C:/ti/ccs1250/ccs/tools/compiler/ti-cgt-msp430_21.6.1.LTS/
    1967                    .dwattr $C$DW$112, DW_AT_decl_line(0x59)
    1968                    .dwattr $C$DW$112, DW_AT_decl_column(0x1d)
    1969            
    1970                    .dwattr $C$DW$T$30, DW_AT_decl_file("C:/ti/ccs1250/ccs/tools/compiler/ti-cgt-msp430_21.6.1.LTS
    1971                    .dwattr $C$DW$T$30, DW_AT_decl_line(0x59)
    1972                    .dwattr $C$DW$T$30, DW_AT_decl_column(0x10)
    1973                    .dwendtag $C$DW$T$30
    1974            
    1975            $C$DW$T$43      .dwtag  DW_TAG_typedef
    1976                    .dwattr $C$DW$T$43, DW_AT_name("ldiv_t")
    1977                    .dwattr $C$DW$T$43, DW_AT_type(*$C$DW$T$30)
    1978                    .dwattr $C$DW$T$43, DW_AT_language(DW_LANG_C)
    1979                    .dwattr $C$DW$T$43, DW_AT_decl_file("C:/ti/ccs1250/ccs/tools/compiler/ti-cgt-msp430_21.6.1.LTS
    1980                    .dwattr $C$DW$T$43, DW_AT_decl_line(0x59)
    1981                    .dwattr $C$DW$T$43, DW_AT_decl_column(0x24)
    1982            
    1983            
    1984            $C$DW$T$31      .dwtag  DW_TAG_structure_type
    1985                    .dwattr $C$DW$T$31, DW_AT_byte_size(0x10)
    1986            $C$DW$113       .dwtag  DW_TAG_member
    1987                    .dwattr $C$DW$113, DW_AT_type(*$C$DW$T$14)
    1988                    .dwattr $C$DW$113, DW_AT_name("quot")
    1989                    .dwattr $C$DW$113, DW_AT_TI_symbol_name("quot")
    1990                    .dwattr $C$DW$113, DW_AT_data_member_location[DW_OP_plus_uconst 0x0]
    1991                    .dwattr $C$DW$113, DW_AT_accessibility(DW_ACCESS_public)
    1992                    .dwattr $C$DW$113, DW_AT_decl_file("C:/ti/ccs1250/ccs/tools/compiler/ti-cgt-msp430_21.6.1.LTS/
    1993                    .dwattr $C$DW$113, DW_AT_decl_line(0x63)
    1994                    .dwattr $C$DW$113, DW_AT_decl_column(0x1c)
MSP430 Assembler PC v21.6.1 Mon Feb 24 13:22:57 2025

Copyright (c) 2003-2018 Texas Instruments Incorporated
bak.asm                                                              PAGE   40

    1995            
    1996            $C$DW$114       .dwtag  DW_TAG_member
    1997                    .dwattr $C$DW$114, DW_AT_type(*$C$DW$T$14)
    1998                    .dwattr $C$DW$114, DW_AT_name("rem")
    1999                    .dwattr $C$DW$114, DW_AT_TI_symbol_name("rem")
    2000                    .dwattr $C$DW$114, DW_AT_data_member_location[DW_OP_plus_uconst 0x8]
    2001                    .dwattr $C$DW$114, DW_AT_accessibility(DW_ACCESS_public)
    2002                    .dwattr $C$DW$114, DW_AT_decl_file("C:/ti/ccs1250/ccs/tools/compiler/ti-cgt-msp430_21.6.1.LTS/
    2003                    .dwattr $C$DW$114, DW_AT_decl_line(0x63)
    2004                    .dwattr $C$DW$114, DW_AT_decl_column(0x22)
    2005            
    2006                    .dwattr $C$DW$T$31, DW_AT_decl_file("C:/ti/ccs1250/ccs/tools/compiler/ti-cgt-msp430_21.6.1.LTS
    2007                    .dwattr $C$DW$T$31, DW_AT_decl_line(0x63)
    2008                    .dwattr $C$DW$T$31, DW_AT_decl_column(0x10)
    2009                    .dwendtag $C$DW$T$31
    2010            
    2011            $C$DW$T$44      .dwtag  DW_TAG_typedef
    2012                    .dwattr $C$DW$T$44, DW_AT_name("lldiv_t")
    2013                    .dwattr $C$DW$T$44, DW_AT_type(*$C$DW$T$31)
    2014                    .dwattr $C$DW$T$44, DW_AT_language(DW_LANG_C)
    2015                    .dwattr $C$DW$T$44, DW_AT_decl_file("C:/ti/ccs1250/ccs/tools/compiler/ti-cgt-msp430_21.6.1.LTS
    2016                    .dwattr $C$DW$T$44, DW_AT_decl_line(0x63)
    2017                    .dwattr $C$DW$T$44, DW_AT_decl_column(0x29)
    2018            
    2019            $C$DW$T$2       .dwtag  DW_TAG_unspecified_type
    2020                    .dwattr $C$DW$T$2, DW_AT_name("void")
    2021            
    2022            $C$DW$T$3       .dwtag  DW_TAG_pointer_type
    2023                    .dwattr $C$DW$T$3, DW_AT_type(*$C$DW$T$2)
    2024                    .dwattr $C$DW$T$3, DW_AT_address_class(0x14)
    2025            
    2026            
    2027            $C$DW$T$47      .dwtag  DW_TAG_subroutine_type
    2028                    .dwattr $C$DW$T$47, DW_AT_language(DW_LANG_C)
    2029                    .dwendtag $C$DW$T$47
    2030            
    2031            $C$DW$T$48      .dwtag  DW_TAG_pointer_type
    2032                    .dwattr $C$DW$T$48, DW_AT_type(*$C$DW$T$47)
    2033                    .dwattr $C$DW$T$48, DW_AT_address_class(0x14)
    2034            
    2035            $C$DW$T$49      .dwtag  DW_TAG_typedef
    2036                    .dwattr $C$DW$T$49, DW_AT_name("__TI_atexit_fn")
    2037                    .dwattr $C$DW$T$49, DW_AT_type(*$C$DW$T$48)
    2038                    .dwattr $C$DW$T$49, DW_AT_language(DW_LANG_C)
    2039                    .dwattr $C$DW$T$49, DW_AT_decl_file("C:/ti/ccs1250/ccs/tools/compiler/ti-cgt-msp430_21.6.1.LTS
    2040                    .dwattr $C$DW$T$49, DW_AT_decl_line(0xcf)
    2041                    .dwattr $C$DW$T$49, DW_AT_decl_column(0x14)
    2042            
    2043            
    2044            $C$DW$T$50      .dwtag  DW_TAG_subroutine_type
    2045                    .dwattr $C$DW$T$50, DW_AT_language(DW_LANG_C)
    2046                    .dwendtag $C$DW$T$50
    2047            
    2048            $C$DW$T$51      .dwtag  DW_TAG_pointer_type
    2049                    .dwattr $C$DW$T$51, DW_AT_type(*$C$DW$T$50)
MSP430 Assembler PC v21.6.1 Mon Feb 24 13:22:57 2025

Copyright (c) 2003-2018 Texas Instruments Incorporated
bak.asm                                                              PAGE   41

    2050                    .dwattr $C$DW$T$51, DW_AT_address_class(0x14)
    2051            
    2052            $C$DW$T$52      .dwtag  DW_TAG_typedef
    2053                    .dwattr $C$DW$T$52, DW_AT_name("__SFR_FARPTR")
    2054                    .dwattr $C$DW$T$52, DW_AT_type(*$C$DW$T$51)
    2055                    .dwattr $C$DW$T$52, DW_AT_language(DW_LANG_C)
    2056                    .dwattr $C$DW$T$52, DW_AT_decl_file("C:\ti\ccs1250\ccs\ccs_base\msp430\include\msp430fg6626.h"
    2057                    .dwattr $C$DW$T$52, DW_AT_decl_line(0x46)
    2058                    .dwattr $C$DW$T$52, DW_AT_decl_column(0x11)
    2059            
    2060            $C$DW$115       .dwtag  DW_TAG_TI_far_type
    2061                    .dwattr $C$DW$115, DW_AT_type(*$C$DW$T$2)
    2062            
    2063            $C$DW$T$53      .dwtag  DW_TAG_const_type
    2064                    .dwattr $C$DW$T$53, DW_AT_type(*$C$DW$115)
    2065            
    2066            $C$DW$T$54      .dwtag  DW_TAG_pointer_type
    2067                    .dwattr $C$DW$T$54, DW_AT_type(*$C$DW$T$53)
    2068                    .dwattr $C$DW$T$54, DW_AT_address_class(0x14)
    2069            
    2070            $C$DW$T$4       .dwtag  DW_TAG_base_type
    2071                    .dwattr $C$DW$T$4, DW_AT_encoding(DW_ATE_boolean)
    2072                    .dwattr $C$DW$T$4, DW_AT_name("bool")
    2073                    .dwattr $C$DW$T$4, DW_AT_byte_size(0x01)
    2074            
    2075            $C$DW$T$5       .dwtag  DW_TAG_base_type
    2076                    .dwattr $C$DW$T$5, DW_AT_encoding(DW_ATE_signed_char)
    2077                    .dwattr $C$DW$T$5, DW_AT_name("signed char")
    2078                    .dwattr $C$DW$T$5, DW_AT_byte_size(0x01)
    2079            
    2080            $C$DW$T$55      .dwtag  DW_TAG_typedef
    2081                    .dwattr $C$DW$T$55, DW_AT_name("__int8_t")
    2082                    .dwattr $C$DW$T$55, DW_AT_type(*$C$DW$T$5)
    2083                    .dwattr $C$DW$T$55, DW_AT_language(DW_LANG_C)
    2084                    .dwattr $C$DW$T$55, DW_AT_decl_file("C:/ti/ccs1250/ccs/tools/compiler/ti-cgt-msp430_21.6.1.LTS
    2085                    .dwattr $C$DW$T$55, DW_AT_decl_line(0x36)
    2086                    .dwattr $C$DW$T$55, DW_AT_decl_column(0x16)
    2087            
    2088            $C$DW$T$56      .dwtag  DW_TAG_typedef
    2089                    .dwattr $C$DW$T$56, DW_AT_name("__int_least8_t")
    2090                    .dwattr $C$DW$T$56, DW_AT_type(*$C$DW$T$55)
    2091                    .dwattr $C$DW$T$56, DW_AT_language(DW_LANG_C)
    2092                    .dwattr $C$DW$T$56, DW_AT_decl_file("C:/ti/ccs1250/ccs/tools/compiler/ti-cgt-msp430_21.6.1.LTS
    2093                    .dwattr $C$DW$T$56, DW_AT_decl_line(0x5a)
    2094                    .dwattr $C$DW$T$56, DW_AT_decl_column(0x12)
    2095            
    2096            $C$DW$T$57      .dwtag  DW_TAG_typedef
    2097                    .dwattr $C$DW$T$57, DW_AT_name("int_least8_t")
    2098                    .dwattr $C$DW$T$57, DW_AT_type(*$C$DW$T$56)
    2099                    .dwattr $C$DW$T$57, DW_AT_language(DW_LANG_C)
    2100                    .dwattr $C$DW$T$57, DW_AT_decl_file("C:/ti/ccs1250/ccs/tools/compiler/ti-cgt-msp430_21.6.1.LTS
    2101                    .dwattr $C$DW$T$57, DW_AT_decl_line(0x2a)
    2102                    .dwattr $C$DW$T$57, DW_AT_decl_column(0x19)
    2103            
    2104            $C$DW$T$58      .dwtag  DW_TAG_typedef
MSP430 Assembler PC v21.6.1 Mon Feb 24 13:22:57 2025

Copyright (c) 2003-2018 Texas Instruments Incorporated
bak.asm                                                              PAGE   42

    2105                    .dwattr $C$DW$T$58, DW_AT_name("int8_t")
    2106                    .dwattr $C$DW$T$58, DW_AT_type(*$C$DW$T$55)
    2107                    .dwattr $C$DW$T$58, DW_AT_language(DW_LANG_C)
    2108                    .dwattr $C$DW$T$58, DW_AT_decl_file("C:/ti/ccs1250/ccs/tools/compiler/ti-cgt-msp430_21.6.1.LTS
    2109                    .dwattr $C$DW$T$58, DW_AT_decl_line(0x25)
    2110                    .dwattr $C$DW$T$58, DW_AT_decl_column(0x13)
    2111            
    2112            $C$DW$T$6       .dwtag  DW_TAG_base_type
    2113                    .dwattr $C$DW$T$6, DW_AT_encoding(DW_ATE_unsigned_char)
    2114                    .dwattr $C$DW$T$6, DW_AT_name("unsigned char")
    2115                    .dwattr $C$DW$T$6, DW_AT_byte_size(0x01)
    2116            
    2117            $C$DW$116       .dwtag  DW_TAG_TI_far_type
    2118                    .dwattr $C$DW$116, DW_AT_type(*$C$DW$T$6)
    2119            
    2120            $C$DW$T$59      .dwtag  DW_TAG_volatile_type
    2121                    .dwattr $C$DW$T$59, DW_AT_type(*$C$DW$116)
    2122            
    2123            $C$DW$T$62      .dwtag  DW_TAG_typedef
    2124                    .dwattr $C$DW$T$62, DW_AT_name("__uint8_t")
    2125                    .dwattr $C$DW$T$62, DW_AT_type(*$C$DW$T$6)
    2126                    .dwattr $C$DW$T$62, DW_AT_language(DW_LANG_C)
    2127                    .dwattr $C$DW$T$62, DW_AT_decl_file("C:/ti/ccs1250/ccs/tools/compiler/ti-cgt-msp430_21.6.1.LTS
    2128                    .dwattr $C$DW$T$62, DW_AT_decl_line(0x37)
    2129                    .dwattr $C$DW$T$62, DW_AT_decl_column(0x18)
    2130            
    2131            $C$DW$T$63      .dwtag  DW_TAG_typedef
    2132                    .dwattr $C$DW$T$63, DW_AT_name("__sa_family_t")
    2133                    .dwattr $C$DW$T$63, DW_AT_type(*$C$DW$T$62)
    2134                    .dwattr $C$DW$T$63, DW_AT_language(DW_LANG_C)
    2135                    .dwattr $C$DW$T$63, DW_AT_decl_file("C:/ti/ccs1250/ccs/tools/compiler/ti-cgt-msp430_21.6.1.LTS
    2136                    .dwattr $C$DW$T$63, DW_AT_decl_line(0x47)
    2137                    .dwattr $C$DW$T$63, DW_AT_decl_column(0x13)
    2138            
    2139            $C$DW$T$64      .dwtag  DW_TAG_typedef
    2140                    .dwattr $C$DW$T$64, DW_AT_name("__uint_least8_t")
    2141                    .dwattr $C$DW$T$64, DW_AT_type(*$C$DW$T$62)
    2142                    .dwattr $C$DW$T$64, DW_AT_language(DW_LANG_C)
    2143                    .dwattr $C$DW$T$64, DW_AT_decl_file("C:/ti/ccs1250/ccs/tools/compiler/ti-cgt-msp430_21.6.1.LTS
    2144                    .dwattr $C$DW$T$64, DW_AT_decl_line(0x74)
    2145                    .dwattr $C$DW$T$64, DW_AT_decl_column(0x13)
    2146            
    2147            $C$DW$T$65      .dwtag  DW_TAG_typedef
    2148                    .dwattr $C$DW$T$65, DW_AT_name("uint_least8_t")
    2149                    .dwattr $C$DW$T$65, DW_AT_type(*$C$DW$T$64)
    2150                    .dwattr $C$DW$T$65, DW_AT_language(DW_LANG_C)
    2151                    .dwattr $C$DW$T$65, DW_AT_decl_file("C:/ti/ccs1250/ccs/tools/compiler/ti-cgt-msp430_21.6.1.LTS
    2152                    .dwattr $C$DW$T$65, DW_AT_decl_line(0x2f)
    2153                    .dwattr $C$DW$T$65, DW_AT_decl_column(0x1a)
    2154            
    2155            $C$DW$T$66      .dwtag  DW_TAG_typedef
    2156                    .dwattr $C$DW$T$66, DW_AT_name("uint8_t")
    2157                    .dwattr $C$DW$T$66, DW_AT_type(*$C$DW$T$62)
    2158                    .dwattr $C$DW$T$66, DW_AT_language(DW_LANG_C)
    2159                    .dwattr $C$DW$T$66, DW_AT_decl_file("C:/ti/ccs1250/ccs/tools/compiler/ti-cgt-msp430_21.6.1.LTS
MSP430 Assembler PC v21.6.1 Mon Feb 24 13:22:57 2025

Copyright (c) 2003-2018 Texas Instruments Incorporated
bak.asm                                                              PAGE   43

    2160                    .dwattr $C$DW$T$66, DW_AT_decl_line(0x3b)
    2161                    .dwattr $C$DW$T$66, DW_AT_decl_column(0x14)
    2162            
    2163            $C$DW$T$7       .dwtag  DW_TAG_base_type
    2164                    .dwattr $C$DW$T$7, DW_AT_encoding(DW_ATE_signed_char)
    2165                    .dwattr $C$DW$T$7, DW_AT_name("wchar_t")
    2166                    .dwattr $C$DW$T$7, DW_AT_byte_size(0x02)
    2167            
    2168            $C$DW$T$8       .dwtag  DW_TAG_base_type
    2169                    .dwattr $C$DW$T$8, DW_AT_encoding(DW_ATE_signed)
    2170                    .dwattr $C$DW$T$8, DW_AT_name("short")
    2171                    .dwattr $C$DW$T$8, DW_AT_byte_size(0x02)
    2172            
    2173            $C$DW$T$9       .dwtag  DW_TAG_base_type
    2174                    .dwattr $C$DW$T$9, DW_AT_encoding(DW_ATE_unsigned)
    2175                    .dwattr $C$DW$T$9, DW_AT_name("unsigned short")
    2176                    .dwattr $C$DW$T$9, DW_AT_byte_size(0x02)
    2177            
    2178            $C$DW$T$10      .dwtag  DW_TAG_base_type
    2179                    .dwattr $C$DW$T$10, DW_AT_encoding(DW_ATE_signed)
    2180                    .dwattr $C$DW$T$10, DW_AT_name("int")
    2181                    .dwattr $C$DW$T$10, DW_AT_byte_size(0x02)
    2182            
    2183            $C$DW$T$68      .dwtag  DW_TAG_typedef
    2184                    .dwattr $C$DW$T$68, DW_AT_name("_Mbstatet")
    2185                    .dwattr $C$DW$T$68, DW_AT_type(*$C$DW$T$10)
    2186                    .dwattr $C$DW$T$68, DW_AT_language(DW_LANG_C)
    2187                    .dwattr $C$DW$T$68, DW_AT_decl_file("C:/ti/ccs1250/ccs/tools/compiler/ti-cgt-msp430_21.6.1.LTS
    2188                    .dwattr $C$DW$T$68, DW_AT_decl_line(0x8f)
    2189                    .dwattr $C$DW$T$68, DW_AT_decl_column(0x0d)
    2190            
    2191            $C$DW$T$69      .dwtag  DW_TAG_typedef
    2192                    .dwattr $C$DW$T$69, DW_AT_name("__mbstate_t")
    2193                    .dwattr $C$DW$T$69, DW_AT_type(*$C$DW$T$68)
    2194                    .dwattr $C$DW$T$69, DW_AT_language(DW_LANG_C)
    2195                    .dwattr $C$DW$T$69, DW_AT_decl_file("C:/ti/ccs1250/ccs/tools/compiler/ti-cgt-msp430_21.6.1.LTS
    2196                    .dwattr $C$DW$T$69, DW_AT_decl_line(0x92)
    2197                    .dwattr $C$DW$T$69, DW_AT_decl_column(0x13)
    2198            
    2199            $C$DW$T$70      .dwtag  DW_TAG_typedef
    2200                    .dwattr $C$DW$T$70, DW_AT_name("__accmode_t")
    2201                    .dwattr $C$DW$T$70, DW_AT_type(*$C$DW$T$10)
    2202                    .dwattr $C$DW$T$70, DW_AT_language(DW_LANG_C)
    2203                    .dwattr $C$DW$T$70, DW_AT_decl_file("C:/ti/ccs1250/ccs/tools/compiler/ti-cgt-msp430_21.6.1.LTS
    2204                    .dwattr $C$DW$T$70, DW_AT_decl_line(0x3b)
    2205                    .dwattr $C$DW$T$70, DW_AT_decl_column(0x0e)
    2206            
    2207            
    2208            $C$DW$T$71      .dwtag  DW_TAG_subroutine_type
    2209                    .dwattr $C$DW$T$71, DW_AT_type(*$C$DW$T$10)
    2210                    .dwattr $C$DW$T$71, DW_AT_language(DW_LANG_C)
    2211            $C$DW$117       .dwtag  DW_TAG_formal_parameter
    2212                    .dwattr $C$DW$117, DW_AT_type(*$C$DW$T$54)
    2213            
    2214            $C$DW$118       .dwtag  DW_TAG_formal_parameter
MSP430 Assembler PC v21.6.1 Mon Feb 24 13:22:57 2025

Copyright (c) 2003-2018 Texas Instruments Incorporated
bak.asm                                                              PAGE   44

    2215                    .dwattr $C$DW$118, DW_AT_type(*$C$DW$T$54)
    2216            
    2217                    .dwendtag $C$DW$T$71
    2218            
    2219            $C$DW$T$72      .dwtag  DW_TAG_pointer_type
    2220                    .dwattr $C$DW$T$72, DW_AT_type(*$C$DW$T$71)
    2221                    .dwattr $C$DW$T$72, DW_AT_address_class(0x14)
    2222            
    2223            $C$DW$T$73      .dwtag  DW_TAG_typedef
    2224                    .dwattr $C$DW$T$73, DW_AT_name("__TI_compar_fn")
    2225                    .dwattr $C$DW$T$73, DW_AT_type(*$C$DW$T$72)
    2226                    .dwattr $C$DW$T$73, DW_AT_language(DW_LANG_C)
    2227                    .dwattr $C$DW$T$73, DW_AT_decl_file("C:/ti/ccs1250/ccs/tools/compiler/ti-cgt-msp430_21.6.1.LTS
    2228                    .dwattr $C$DW$T$73, DW_AT_decl_line(0xd2)
    2229                    .dwattr $C$DW$T$73, DW_AT_decl_column(0x13)
    2230            
    2231            $C$DW$T$74      .dwtag  DW_TAG_typedef
    2232                    .dwattr $C$DW$T$74, DW_AT_name("__cpulevel_t")
    2233                    .dwattr $C$DW$T$74, DW_AT_type(*$C$DW$T$10)
    2234                    .dwattr $C$DW$T$74, DW_AT_language(DW_LANG_C)
    2235                    .dwattr $C$DW$T$74, DW_AT_decl_file("C:/ti/ccs1250/ccs/tools/compiler/ti-cgt-msp430_21.6.1.LTS
    2236                    .dwattr $C$DW$T$74, DW_AT_decl_line(0x50)
    2237                    .dwattr $C$DW$T$74, DW_AT_decl_column(0x0e)
    2238            
    2239            $C$DW$T$75      .dwtag  DW_TAG_typedef
    2240                    .dwattr $C$DW$T$75, DW_AT_name("__cpusetid_t")
    2241                    .dwattr $C$DW$T$75, DW_AT_type(*$C$DW$T$10)
    2242                    .dwattr $C$DW$T$75, DW_AT_language(DW_LANG_C)
    2243                    .dwattr $C$DW$T$75, DW_AT_decl_file("C:/ti/ccs1250/ccs/tools/compiler/ti-cgt-msp430_21.6.1.LTS
    2244                    .dwattr $C$DW$T$75, DW_AT_decl_line(0x51)
    2245                    .dwattr $C$DW$T$75, DW_AT_decl_column(0x0e)
    2246            
    2247            $C$DW$T$76      .dwtag  DW_TAG_typedef
    2248                    .dwattr $C$DW$T$76, DW_AT_name("__cpuwhich_t")
    2249                    .dwattr $C$DW$T$76, DW_AT_type(*$C$DW$T$10)
    2250                    .dwattr $C$DW$T$76, DW_AT_language(DW_LANG_C)
    2251                    .dwattr $C$DW$T$76, DW_AT_decl_file("C:/ti/ccs1250/ccs/tools/compiler/ti-cgt-msp430_21.6.1.LTS
    2252                    .dwattr $C$DW$T$76, DW_AT_decl_line(0x4f)
    2253                    .dwattr $C$DW$T$76, DW_AT_decl_column(0x0e)
    2254            
    2255            $C$DW$T$77      .dwtag  DW_TAG_typedef
    2256                    .dwattr $C$DW$T$77, DW_AT_name("__ct_rune_t")
    2257                    .dwattr $C$DW$T$77, DW_AT_type(*$C$DW$T$10)
    2258                    .dwattr $C$DW$T$77, DW_AT_language(DW_LANG_C)
    2259                    .dwattr $C$DW$T$77, DW_AT_decl_file("C:/ti/ccs1250/ccs/tools/compiler/ti-cgt-msp430_21.6.1.LTS
    2260                    .dwattr $C$DW$T$77, DW_AT_decl_line(0x69)
    2261                    .dwattr $C$DW$T$77, DW_AT_decl_column(0x0e)
    2262            
    2263            $C$DW$T$78      .dwtag  DW_TAG_typedef
    2264                    .dwattr $C$DW$T$78, DW_AT_name("__rune_t")
    2265                    .dwattr $C$DW$T$78, DW_AT_type(*$C$DW$T$77)
    2266                    .dwattr $C$DW$T$78, DW_AT_language(DW_LANG_C)
    2267                    .dwattr $C$DW$T$78, DW_AT_decl_file("C:/ti/ccs1250/ccs/tools/compiler/ti-cgt-msp430_21.6.1.LTS
    2268                    .dwattr $C$DW$T$78, DW_AT_decl_line(0x6c)
    2269                    .dwattr $C$DW$T$78, DW_AT_decl_column(0x15)
MSP430 Assembler PC v21.6.1 Mon Feb 24 13:22:57 2025

Copyright (c) 2003-2018 Texas Instruments Incorporated
bak.asm                                                              PAGE   45

    2270            
    2271            $C$DW$T$79      .dwtag  DW_TAG_typedef
    2272                    .dwattr $C$DW$T$79, DW_AT_name("__wint_t")
    2273                    .dwattr $C$DW$T$79, DW_AT_type(*$C$DW$T$77)
    2274                    .dwattr $C$DW$T$79, DW_AT_language(DW_LANG_C)
    2275                    .dwattr $C$DW$T$79, DW_AT_decl_file("C:/ti/ccs1250/ccs/tools/compiler/ti-cgt-msp430_21.6.1.LTS
    2276                    .dwattr $C$DW$T$79, DW_AT_decl_line(0x6d)
    2277                    .dwattr $C$DW$T$79, DW_AT_decl_column(0x15)
    2278            
    2279            $C$DW$T$80      .dwtag  DW_TAG_typedef
    2280                    .dwattr $C$DW$T$80, DW_AT_name("__int16_t")
    2281                    .dwattr $C$DW$T$80, DW_AT_type(*$C$DW$T$10)
    2282                    .dwattr $C$DW$T$80, DW_AT_language(DW_LANG_C)
    2283                    .dwattr $C$DW$T$80, DW_AT_decl_file("C:/ti/ccs1250/ccs/tools/compiler/ti-cgt-msp430_21.6.1.LTS
    2284                    .dwattr $C$DW$T$80, DW_AT_decl_line(0x38)
    2285                    .dwattr $C$DW$T$80, DW_AT_decl_column(0x0f)
    2286            
    2287            $C$DW$T$81      .dwtag  DW_TAG_typedef
    2288                    .dwattr $C$DW$T$81, DW_AT_name("__int_fast16_t")
    2289                    .dwattr $C$DW$T$81, DW_AT_type(*$C$DW$T$80)
    2290                    .dwattr $C$DW$T$81, DW_AT_language(DW_LANG_C)
    2291                    .dwattr $C$DW$T$81, DW_AT_decl_file("C:/ti/ccs1250/ccs/tools/compiler/ti-cgt-msp430_21.6.1.LTS
    2292                    .dwattr $C$DW$T$81, DW_AT_decl_line(0x57)
    2293                    .dwattr $C$DW$T$81, DW_AT_decl_column(0x13)
    2294            
    2295            $C$DW$T$82      .dwtag  DW_TAG_typedef
    2296                    .dwattr $C$DW$T$82, DW_AT_name("int_fast16_t")
    2297                    .dwattr $C$DW$T$82, DW_AT_type(*$C$DW$T$81)
    2298                    .dwattr $C$DW$T$82, DW_AT_language(DW_LANG_C)
    2299                    .dwattr $C$DW$T$82, DW_AT_decl_file("C:/ti/ccs1250/ccs/tools/compiler/ti-cgt-msp430_21.6.1.LTS
    2300                    .dwattr $C$DW$T$82, DW_AT_decl_line(0x35)
    2301                    .dwattr $C$DW$T$82, DW_AT_decl_column(0x19)
    2302            
    2303            $C$DW$T$83      .dwtag  DW_TAG_typedef
    2304                    .dwattr $C$DW$T$83, DW_AT_name("__int_fast8_t")
    2305                    .dwattr $C$DW$T$83, DW_AT_type(*$C$DW$T$80)
    2306                    .dwattr $C$DW$T$83, DW_AT_language(DW_LANG_C)
    2307                    .dwattr $C$DW$T$83, DW_AT_decl_file("C:/ti/ccs1250/ccs/tools/compiler/ti-cgt-msp430_21.6.1.LTS
    2308                    .dwattr $C$DW$T$83, DW_AT_decl_line(0x56)
    2309                    .dwattr $C$DW$T$83, DW_AT_decl_column(0x13)
    2310            
    2311            $C$DW$T$84      .dwtag  DW_TAG_typedef
    2312                    .dwattr $C$DW$T$84, DW_AT_name("int_fast8_t")
    2313                    .dwattr $C$DW$T$84, DW_AT_type(*$C$DW$T$83)
    2314                    .dwattr $C$DW$T$84, DW_AT_language(DW_LANG_C)
    2315                    .dwattr $C$DW$T$84, DW_AT_decl_file("C:/ti/ccs1250/ccs/tools/compiler/ti-cgt-msp430_21.6.1.LTS
    2316                    .dwattr $C$DW$T$84, DW_AT_decl_line(0x34)
    2317                    .dwattr $C$DW$T$84, DW_AT_decl_column(0x18)
    2318            
    2319            $C$DW$T$85      .dwtag  DW_TAG_typedef
    2320                    .dwattr $C$DW$T$85, DW_AT_name("__int_least16_t")
    2321                    .dwattr $C$DW$T$85, DW_AT_type(*$C$DW$T$80)
    2322                    .dwattr $C$DW$T$85, DW_AT_language(DW_LANG_C)
    2323                    .dwattr $C$DW$T$85, DW_AT_decl_file("C:/ti/ccs1250/ccs/tools/compiler/ti-cgt-msp430_21.6.1.LTS
    2324                    .dwattr $C$DW$T$85, DW_AT_decl_line(0x5b)
MSP430 Assembler PC v21.6.1 Mon Feb 24 13:22:57 2025

Copyright (c) 2003-2018 Texas Instruments Incorporated
bak.asm                                                              PAGE   46

    2325                    .dwattr $C$DW$T$85, DW_AT_decl_column(0x13)
    2326            
    2327            $C$DW$T$86      .dwtag  DW_TAG_typedef
    2328                    .dwattr $C$DW$T$86, DW_AT_name("int_least16_t")
    2329                    .dwattr $C$DW$T$86, DW_AT_type(*$C$DW$T$85)
    2330                    .dwattr $C$DW$T$86, DW_AT_language(DW_LANG_C)
    2331                    .dwattr $C$DW$T$86, DW_AT_decl_file("C:/ti/ccs1250/ccs/tools/compiler/ti-cgt-msp430_21.6.1.LTS
    2332                    .dwattr $C$DW$T$86, DW_AT_decl_line(0x2b)
    2333                    .dwattr $C$DW$T$86, DW_AT_decl_column(0x1a)
    2334            
    2335            $C$DW$T$87      .dwtag  DW_TAG_typedef
    2336                    .dwattr $C$DW$T$87, DW_AT_name("__register_t")
    2337                    .dwattr $C$DW$T$87, DW_AT_type(*$C$DW$T$80)
    2338                    .dwattr $C$DW$T$87, DW_AT_language(DW_LANG_C)
    2339                    .dwattr $C$DW$T$87, DW_AT_decl_file("C:/ti/ccs1250/ccs/tools/compiler/ti-cgt-msp430_21.6.1.LTS
    2340                    .dwattr $C$DW$T$87, DW_AT_decl_line(0x5f)
    2341                    .dwattr $C$DW$T$87, DW_AT_decl_column(0x13)
    2342            
    2343            $C$DW$T$88      .dwtag  DW_TAG_typedef
    2344                    .dwattr $C$DW$T$88, DW_AT_name("int16_t")
    2345                    .dwattr $C$DW$T$88, DW_AT_type(*$C$DW$T$80)
    2346                    .dwattr $C$DW$T$88, DW_AT_language(DW_LANG_C)
    2347                    .dwattr $C$DW$T$88, DW_AT_decl_file("C:/ti/ccs1250/ccs/tools/compiler/ti-cgt-msp430_21.6.1.LTS
    2348                    .dwattr $C$DW$T$88, DW_AT_decl_line(0x2b)
    2349                    .dwattr $C$DW$T$88, DW_AT_decl_column(0x14)
    2350            
    2351            $C$DW$T$89      .dwtag  DW_TAG_typedef
    2352                    .dwattr $C$DW$T$89, DW_AT_name("__nl_item")
    2353                    .dwattr $C$DW$T$89, DW_AT_type(*$C$DW$T$10)
    2354                    .dwattr $C$DW$T$89, DW_AT_language(DW_LANG_C)
    2355                    .dwattr $C$DW$T$89, DW_AT_decl_file("C:/ti/ccs1250/ccs/tools/compiler/ti-cgt-msp430_21.6.1.LTS
    2356                    .dwattr $C$DW$T$89, DW_AT_decl_line(0x3c)
    2357                    .dwattr $C$DW$T$89, DW_AT_decl_column(0x0e)
    2358            
    2359            $C$DW$T$90      .dwtag  DW_TAG_typedef
    2360                    .dwattr $C$DW$T$90, DW_AT_name("__ptrdiff_t")
    2361                    .dwattr $C$DW$T$90, DW_AT_type(*$C$DW$T$10)
    2362                    .dwattr $C$DW$T$90, DW_AT_language(DW_LANG_C)
    2363                    .dwattr $C$DW$T$90, DW_AT_decl_file("C:/ti/ccs1250/ccs/tools/compiler/ti-cgt-msp430_21.6.1.LTS
    2364                    .dwattr $C$DW$T$90, DW_AT_decl_line(0x5e)
    2365                    .dwattr $C$DW$T$90, DW_AT_decl_column(0x1c)
    2366            
    2367            $C$DW$T$11      .dwtag  DW_TAG_base_type
    2368                    .dwattr $C$DW$T$11, DW_AT_encoding(DW_ATE_unsigned)
    2369                    .dwattr $C$DW$T$11, DW_AT_name("unsigned int")
    2370                    .dwattr $C$DW$T$11, DW_AT_byte_size(0x02)
    2371            
    2372            $C$DW$T$91      .dwtag  DW_TAG_typedef
    2373                    .dwattr $C$DW$T$91, DW_AT_name("___wchar_t")
    2374                    .dwattr $C$DW$T$91, DW_AT_type(*$C$DW$T$11)
    2375                    .dwattr $C$DW$T$91, DW_AT_language(DW_LANG_C)
    2376                    .dwattr $C$DW$T$91, DW_AT_decl_file("C:/ti/ccs1250/ccs/tools/compiler/ti-cgt-msp430_21.6.1.LTS
    2377                    .dwattr $C$DW$T$91, DW_AT_decl_line(0x7d)
    2378                    .dwattr $C$DW$T$91, DW_AT_decl_column(0x1a)
    2379            
MSP430 Assembler PC v21.6.1 Mon Feb 24 13:22:57 2025

Copyright (c) 2003-2018 Texas Instruments Incorporated
bak.asm                                                              PAGE   47

    2380            $C$DW$119       .dwtag  DW_TAG_TI_far_type
    2381                    .dwattr $C$DW$119, DW_AT_type(*$C$DW$T$11)
    2382            
    2383            $C$DW$T$92      .dwtag  DW_TAG_volatile_type
    2384                    .dwattr $C$DW$T$92, DW_AT_type(*$C$DW$119)
    2385            
    2386            $C$DW$T$97      .dwtag  DW_TAG_typedef
    2387                    .dwattr $C$DW$T$97, DW_AT_name("__size_t")
    2388                    .dwattr $C$DW$T$97, DW_AT_type(*$C$DW$T$11)
    2389                    .dwattr $C$DW$T$97, DW_AT_language(DW_LANG_C)
    2390                    .dwattr $C$DW$T$97, DW_AT_decl_file("C:/ti/ccs1250/ccs/tools/compiler/ti-cgt-msp430_21.6.1.LTS
    2391                    .dwattr $C$DW$T$97, DW_AT_decl_line(0x61)
    2392                    .dwattr $C$DW$T$97, DW_AT_decl_column(0x19)
    2393            
    2394            $C$DW$T$21      .dwtag  DW_TAG_typedef
    2395                    .dwattr $C$DW$T$21, DW_AT_name("__uint16_t")
    2396                    .dwattr $C$DW$T$21, DW_AT_type(*$C$DW$T$11)
    2397                    .dwattr $C$DW$T$21, DW_AT_language(DW_LANG_C)
    2398                    .dwattr $C$DW$T$21, DW_AT_decl_file("C:/ti/ccs1250/ccs/tools/compiler/ti-cgt-msp430_21.6.1.LTS
    2399                    .dwattr $C$DW$T$21, DW_AT_decl_line(0x39)
    2400                    .dwattr $C$DW$T$21, DW_AT_decl_column(0x17)
    2401            
    2402            $C$DW$T$98      .dwtag  DW_TAG_typedef
    2403                    .dwattr $C$DW$T$98, DW_AT_name("__mode_t")
    2404                    .dwattr $C$DW$T$98, DW_AT_type(*$C$DW$T$21)
    2405                    .dwattr $C$DW$T$98, DW_AT_language(DW_LANG_C)
    2406                    .dwattr $C$DW$T$98, DW_AT_decl_file("C:/ti/ccs1250/ccs/tools/compiler/ti-cgt-msp430_21.6.1.LTS
    2407                    .dwattr $C$DW$T$98, DW_AT_decl_line(0x3a)
    2408                    .dwattr $C$DW$T$98, DW_AT_decl_column(0x14)
    2409            
    2410            $C$DW$T$99      .dwtag  DW_TAG_typedef
    2411                    .dwattr $C$DW$T$99, DW_AT_name("__u_register_t")
    2412                    .dwattr $C$DW$T$99, DW_AT_type(*$C$DW$T$21)
    2413                    .dwattr $C$DW$T$99, DW_AT_language(DW_LANG_C)
    2414                    .dwattr $C$DW$T$99, DW_AT_decl_file("C:/ti/ccs1250/ccs/tools/compiler/ti-cgt-msp430_21.6.1.LTS
    2415                    .dwattr $C$DW$T$99, DW_AT_decl_line(0x78)
    2416                    .dwattr $C$DW$T$99, DW_AT_decl_column(0x14)
    2417            
    2418            $C$DW$T$100     .dwtag  DW_TAG_typedef
    2419                    .dwattr $C$DW$T$100, DW_AT_name("__uint_fast16_t")
    2420                    .dwattr $C$DW$T$100, DW_AT_type(*$C$DW$T$21)
    2421                    .dwattr $C$DW$T$100, DW_AT_language(DW_LANG_C)
    2422                    .dwattr $C$DW$T$100, DW_AT_decl_file("C:/ti/ccs1250/ccs/tools/compiler/ti-cgt-msp430_21.6.1.LT
    2423                    .dwattr $C$DW$T$100, DW_AT_decl_line(0x71)
    2424                    .dwattr $C$DW$T$100, DW_AT_decl_column(0x14)
    2425            
    2426            $C$DW$T$101     .dwtag  DW_TAG_typedef
    2427                    .dwattr $C$DW$T$101, DW_AT_name("uint_fast16_t")
    2428                    .dwattr $C$DW$T$101, DW_AT_type(*$C$DW$T$100)
    2429                    .dwattr $C$DW$T$101, DW_AT_language(DW_LANG_C)
    2430                    .dwattr $C$DW$T$101, DW_AT_decl_file("C:/ti/ccs1250/ccs/tools/compiler/ti-cgt-msp430_21.6.1.LT
    2431                    .dwattr $C$DW$T$101, DW_AT_decl_line(0x3a)
    2432                    .dwattr $C$DW$T$101, DW_AT_decl_column(0x1a)
    2433            
    2434            $C$DW$T$102     .dwtag  DW_TAG_typedef
MSP430 Assembler PC v21.6.1 Mon Feb 24 13:22:57 2025

Copyright (c) 2003-2018 Texas Instruments Incorporated
bak.asm                                                              PAGE   48

    2435                    .dwattr $C$DW$T$102, DW_AT_name("__uint_fast8_t")
    2436                    .dwattr $C$DW$T$102, DW_AT_type(*$C$DW$T$21)
    2437                    .dwattr $C$DW$T$102, DW_AT_language(DW_LANG_C)
    2438                    .dwattr $C$DW$T$102, DW_AT_decl_file("C:/ti/ccs1250/ccs/tools/compiler/ti-cgt-msp430_21.6.1.LT
    2439                    .dwattr $C$DW$T$102, DW_AT_decl_line(0x70)
    2440                    .dwattr $C$DW$T$102, DW_AT_decl_column(0x14)
    2441            
    2442            $C$DW$T$103     .dwtag  DW_TAG_typedef
    2443                    .dwattr $C$DW$T$103, DW_AT_name("uint_fast8_t")
    2444                    .dwattr $C$DW$T$103, DW_AT_type(*$C$DW$T$102)
    2445                    .dwattr $C$DW$T$103, DW_AT_language(DW_LANG_C)
    2446                    .dwattr $C$DW$T$103, DW_AT_decl_file("C:/ti/ccs1250/ccs/tools/compiler/ti-cgt-msp430_21.6.1.LT
    2447                    .dwattr $C$DW$T$103, DW_AT_decl_line(0x39)
    2448                    .dwattr $C$DW$T$103, DW_AT_decl_column(0x19)
    2449            
    2450            $C$DW$T$104     .dwtag  DW_TAG_typedef
    2451                    .dwattr $C$DW$T$104, DW_AT_name("__uint_least16_t")
    2452                    .dwattr $C$DW$T$104, DW_AT_type(*$C$DW$T$21)
    2453                    .dwattr $C$DW$T$104, DW_AT_language(DW_LANG_C)
    2454                    .dwattr $C$DW$T$104, DW_AT_decl_file("C:/ti/ccs1250/ccs/tools/compiler/ti-cgt-msp430_21.6.1.LT
    2455                    .dwattr $C$DW$T$104, DW_AT_decl_line(0x75)
    2456                    .dwattr $C$DW$T$104, DW_AT_decl_column(0x14)
    2457            
    2458            $C$DW$T$105     .dwtag  DW_TAG_typedef
    2459                    .dwattr $C$DW$T$105, DW_AT_name("__char16_t")
    2460                    .dwattr $C$DW$T$105, DW_AT_type(*$C$DW$T$104)
    2461                    .dwattr $C$DW$T$105, DW_AT_language(DW_LANG_C)
    2462                    .dwattr $C$DW$T$105, DW_AT_decl_file("C:/ti/ccs1250/ccs/tools/compiler/ti-cgt-msp430_21.6.1.LT
    2463                    .dwattr $C$DW$T$105, DW_AT_decl_line(0x71)
    2464                    .dwattr $C$DW$T$105, DW_AT_decl_column(0x1a)
    2465            
    2466            $C$DW$T$106     .dwtag  DW_TAG_typedef
    2467                    .dwattr $C$DW$T$106, DW_AT_name("uint_least16_t")
    2468                    .dwattr $C$DW$T$106, DW_AT_type(*$C$DW$T$104)
    2469                    .dwattr $C$DW$T$106, DW_AT_language(DW_LANG_C)
    2470                    .dwattr $C$DW$T$106, DW_AT_decl_file("C:/ti/ccs1250/ccs/tools/compiler/ti-cgt-msp430_21.6.1.LT
    2471                    .dwattr $C$DW$T$106, DW_AT_decl_line(0x30)
    2472                    .dwattr $C$DW$T$106, DW_AT_decl_column(0x1a)
    2473            
    2474            $C$DW$T$22      .dwtag  DW_TAG_typedef
    2475                    .dwattr $C$DW$T$22, DW_AT_name("uint16_t")
    2476                    .dwattr $C$DW$T$22, DW_AT_type(*$C$DW$T$21)
    2477                    .dwattr $C$DW$T$22, DW_AT_language(DW_LANG_C)
    2478                    .dwattr $C$DW$T$22, DW_AT_decl_file("C:/ti/ccs1250/ccs/tools/compiler/ti-cgt-msp430_21.6.1.LTS
    2479                    .dwattr $C$DW$T$22, DW_AT_decl_line(0x41)
    2480                    .dwattr $C$DW$T$22, DW_AT_decl_column(0x15)
    2481            
    2482            
    2483            $C$DW$T$24      .dwtag  DW_TAG_array_type
    2484                    .dwattr $C$DW$T$24, DW_AT_type(*$C$DW$T$22)
    2485                    .dwattr $C$DW$T$24, DW_AT_language(DW_LANG_C)
    2486                    .dwattr $C$DW$T$24, DW_AT_byte_size(0x40)
    2487            $C$DW$120       .dwtag  DW_TAG_subrange_type
    2488                    .dwattr $C$DW$120, DW_AT_upper_bound(0x1f)
    2489            
MSP430 Assembler PC v21.6.1 Mon Feb 24 13:22:57 2025

Copyright (c) 2003-2018 Texas Instruments Incorporated
bak.asm                                                              PAGE   49

    2490                    .dwendtag $C$DW$T$24
    2491            
    2492            $C$DW$121       .dwtag  DW_TAG_TI_far_type
    2493                    .dwattr $C$DW$121, DW_AT_type(*$C$DW$T$22)
    2494            
    2495            $C$DW$T$109     .dwtag  DW_TAG_const_type
    2496                    .dwattr $C$DW$T$109, DW_AT_type(*$C$DW$121)
    2497            
    2498            $C$DW$T$110     .dwtag  DW_TAG_typedef
    2499                    .dwattr $C$DW$T$110, DW_AT_name("__useconds_t")
    2500                    .dwattr $C$DW$T$110, DW_AT_type(*$C$DW$T$11)
    2501                    .dwattr $C$DW$T$110, DW_AT_language(DW_LANG_C)
    2502                    .dwattr $C$DW$T$110, DW_AT_decl_file("C:/ti/ccs1250/ccs/tools/compiler/ti-cgt-msp430_21.6.1.LT
    2503                    .dwattr $C$DW$T$110, DW_AT_decl_line(0x4e)
    2504                    .dwattr $C$DW$T$110, DW_AT_decl_column(0x16)
    2505            
    2506            $C$DW$T$111     .dwtag  DW_TAG_typedef
    2507                    .dwattr $C$DW$T$111, DW_AT_name("size_t")
    2508                    .dwattr $C$DW$T$111, DW_AT_type(*$C$DW$T$11)
    2509                    .dwattr $C$DW$T$111, DW_AT_language(DW_LANG_C)
    2510                    .dwattr $C$DW$T$111, DW_AT_decl_file("C:/ti/ccs1250/ccs/tools/compiler/ti-cgt-msp430_21.6.1.LT
    2511                    .dwattr $C$DW$T$111, DW_AT_decl_line(0x79)
    2512                    .dwattr $C$DW$T$111, DW_AT_decl_column(0x19)
    2513            
    2514            $C$DW$T$112     .dwtag  DW_TAG_typedef
    2515                    .dwattr $C$DW$T$112, DW_AT_name("wchar_t")
    2516                    .dwattr $C$DW$T$112, DW_AT_type(*$C$DW$T$11)
    2517                    .dwattr $C$DW$T$112, DW_AT_language(DW_LANG_C)
    2518                    .dwattr $C$DW$T$112, DW_AT_decl_file("C:/ti/ccs1250/ccs/tools/compiler/ti-cgt-msp430_21.6.1.LT
    2519                    .dwattr $C$DW$T$112, DW_AT_decl_line(0x83)
    2520                    .dwattr $C$DW$T$112, DW_AT_decl_column(0x1a)
    2521            
    2522            $C$DW$T$12      .dwtag  DW_TAG_base_type
    2523                    .dwattr $C$DW$T$12, DW_AT_encoding(DW_ATE_signed)
    2524                    .dwattr $C$DW$T$12, DW_AT_name("long")
    2525                    .dwattr $C$DW$T$12, DW_AT_byte_size(0x04)
    2526            
    2527            $C$DW$T$25      .dwtag  DW_TAG_typedef
    2528                    .dwattr $C$DW$T$25, DW_AT_name("__int32_t")
    2529                    .dwattr $C$DW$T$25, DW_AT_type(*$C$DW$T$12)
    2530                    .dwattr $C$DW$T$25, DW_AT_language(DW_LANG_C)
    2531                    .dwattr $C$DW$T$25, DW_AT_decl_file("C:/ti/ccs1250/ccs/tools/compiler/ti-cgt-msp430_21.6.1.LTS
    2532                    .dwattr $C$DW$T$25, DW_AT_decl_line(0x3a)
    2533                    .dwattr $C$DW$T$25, DW_AT_decl_column(0x10)
    2534            
    2535            $C$DW$T$113     .dwtag  DW_TAG_typedef
    2536                    .dwattr $C$DW$T$113, DW_AT_name("__blksize_t")
    2537                    .dwattr $C$DW$T$113, DW_AT_type(*$C$DW$T$25)
    2538                    .dwattr $C$DW$T$113, DW_AT_language(DW_LANG_C)
    2539                    .dwattr $C$DW$T$113, DW_AT_decl_file("C:/ti/ccs1250/ccs/tools/compiler/ti-cgt-msp430_21.6.1.LT
    2540                    .dwattr $C$DW$T$113, DW_AT_decl_line(0x2f)
    2541                    .dwattr $C$DW$T$113, DW_AT_decl_column(0x13)
    2542            
    2543            $C$DW$T$114     .dwtag  DW_TAG_typedef
    2544                    .dwattr $C$DW$T$114, DW_AT_name("__clockid_t")
MSP430 Assembler PC v21.6.1 Mon Feb 24 13:22:57 2025

Copyright (c) 2003-2018 Texas Instruments Incorporated
bak.asm                                                              PAGE   50

    2545                    .dwattr $C$DW$T$114, DW_AT_type(*$C$DW$T$25)
    2546                    .dwattr $C$DW$T$114, DW_AT_language(DW_LANG_C)
    2547                    .dwattr $C$DW$T$114, DW_AT_decl_file("C:/ti/ccs1250/ccs/tools/compiler/ti-cgt-msp430_21.6.1.LT
    2548                    .dwattr $C$DW$T$114, DW_AT_decl_line(0x31)
    2549                    .dwattr $C$DW$T$114, DW_AT_decl_column(0x13)
    2550            
    2551            $C$DW$T$115     .dwtag  DW_TAG_typedef
    2552                    .dwattr $C$DW$T$115, DW_AT_name("__critical_t")
    2553                    .dwattr $C$DW$T$115, DW_AT_type(*$C$DW$T$25)
    2554                    .dwattr $C$DW$T$115, DW_AT_language(DW_LANG_C)
    2555                    .dwattr $C$DW$T$115, DW_AT_decl_file("C:/ti/ccs1250/ccs/tools/compiler/ti-cgt-msp430_21.6.1.LT
    2556                    .dwattr $C$DW$T$115, DW_AT_decl_line(0x4b)
    2557                    .dwattr $C$DW$T$115, DW_AT_decl_column(0x13)
    2558            
    2559            $C$DW$T$116     .dwtag  DW_TAG_typedef
    2560                    .dwattr $C$DW$T$116, DW_AT_name("__int_fast32_t")
    2561                    .dwattr $C$DW$T$116, DW_AT_type(*$C$DW$T$25)
    2562                    .dwattr $C$DW$T$116, DW_AT_language(DW_LANG_C)
    2563                    .dwattr $C$DW$T$116, DW_AT_decl_file("C:/ti/ccs1250/ccs/tools/compiler/ti-cgt-msp430_21.6.1.LT
    2564                    .dwattr $C$DW$T$116, DW_AT_decl_line(0x58)
    2565                    .dwattr $C$DW$T$116, DW_AT_decl_column(0x13)
    2566            
    2567            $C$DW$T$117     .dwtag  DW_TAG_typedef
    2568                    .dwattr $C$DW$T$117, DW_AT_name("int_fast32_t")
    2569                    .dwattr $C$DW$T$117, DW_AT_type(*$C$DW$T$116)
    2570                    .dwattr $C$DW$T$117, DW_AT_language(DW_LANG_C)
    2571                    .dwattr $C$DW$T$117, DW_AT_decl_file("C:/ti/ccs1250/ccs/tools/compiler/ti-cgt-msp430_21.6.1.LT
    2572                    .dwattr $C$DW$T$117, DW_AT_decl_line(0x36)
    2573                    .dwattr $C$DW$T$117, DW_AT_decl_column(0x19)
    2574            
    2575            $C$DW$T$118     .dwtag  DW_TAG_typedef
    2576                    .dwattr $C$DW$T$118, DW_AT_name("__int_least32_t")
    2577                    .dwattr $C$DW$T$118, DW_AT_type(*$C$DW$T$25)
    2578                    .dwattr $C$DW$T$118, DW_AT_language(DW_LANG_C)
    2579                    .dwattr $C$DW$T$118, DW_AT_decl_file("C:/ti/ccs1250/ccs/tools/compiler/ti-cgt-msp430_21.6.1.LT
    2580                    .dwattr $C$DW$T$118, DW_AT_decl_line(0x5c)
    2581                    .dwattr $C$DW$T$118, DW_AT_decl_column(0x13)
    2582            
    2583            $C$DW$T$119     .dwtag  DW_TAG_typedef
    2584                    .dwattr $C$DW$T$119, DW_AT_name("int_least32_t")
    2585                    .dwattr $C$DW$T$119, DW_AT_type(*$C$DW$T$118)
    2586                    .dwattr $C$DW$T$119, DW_AT_language(DW_LANG_C)
    2587                    .dwattr $C$DW$T$119, DW_AT_decl_file("C:/ti/ccs1250/ccs/tools/compiler/ti-cgt-msp430_21.6.1.LT
    2588                    .dwattr $C$DW$T$119, DW_AT_decl_line(0x2c)
    2589                    .dwattr $C$DW$T$119, DW_AT_decl_column(0x1a)
    2590            
    2591            $C$DW$T$120     .dwtag  DW_TAG_typedef
    2592                    .dwattr $C$DW$T$120, DW_AT_name("__intfptr_t")
    2593                    .dwattr $C$DW$T$120, DW_AT_type(*$C$DW$T$25)
    2594                    .dwattr $C$DW$T$120, DW_AT_language(DW_LANG_C)
    2595                    .dwattr $C$DW$T$120, DW_AT_decl_file("C:/ti/ccs1250/ccs/tools/compiler/ti-cgt-msp430_21.6.1.LT
    2596                    .dwattr $C$DW$T$120, DW_AT_decl_line(0x4e)
    2597                    .dwattr $C$DW$T$120, DW_AT_decl_column(0x13)
    2598            
    2599            $C$DW$T$121     .dwtag  DW_TAG_typedef
MSP430 Assembler PC v21.6.1 Mon Feb 24 13:22:57 2025

Copyright (c) 2003-2018 Texas Instruments Incorporated
bak.asm                                                              PAGE   51

    2600                    .dwattr $C$DW$T$121, DW_AT_name("__intptr_t")
    2601                    .dwattr $C$DW$T$121, DW_AT_type(*$C$DW$T$25)
    2602                    .dwattr $C$DW$T$121, DW_AT_language(DW_LANG_C)
    2603                    .dwattr $C$DW$T$121, DW_AT_decl_file("C:/ti/ccs1250/ccs/tools/compiler/ti-cgt-msp430_21.6.1.LT
    2604                    .dwattr $C$DW$T$121, DW_AT_decl_line(0x51)
    2605                    .dwattr $C$DW$T$121, DW_AT_decl_column(0x13)
    2606            
    2607            $C$DW$T$122     .dwtag  DW_TAG_typedef
    2608                    .dwattr $C$DW$T$122, DW_AT_name("intptr_t")
    2609                    .dwattr $C$DW$T$122, DW_AT_type(*$C$DW$T$121)
    2610                    .dwattr $C$DW$T$122, DW_AT_language(DW_LANG_C)
    2611                    .dwattr $C$DW$T$122, DW_AT_decl_file("C:/ti/ccs1250/ccs/tools/compiler/ti-cgt-msp430_21.6.1.LT
    2612                    .dwattr $C$DW$T$122, DW_AT_decl_line(0x50)
    2613                    .dwattr $C$DW$T$122, DW_AT_decl_column(0x15)
    2614            
    2615            $C$DW$T$123     .dwtag  DW_TAG_typedef
    2616                    .dwattr $C$DW$T$123, DW_AT_name("__lwpid_t")
    2617                    .dwattr $C$DW$T$123, DW_AT_type(*$C$DW$T$25)
    2618                    .dwattr $C$DW$T$123, DW_AT_language(DW_LANG_C)
    2619                    .dwattr $C$DW$T$123, DW_AT_decl_file("C:/ti/ccs1250/ccs/tools/compiler/ti-cgt-msp430_21.6.1.LT
    2620                    .dwattr $C$DW$T$123, DW_AT_decl_line(0x39)
    2621                    .dwattr $C$DW$T$123, DW_AT_decl_column(0x13)
    2622            
    2623            $C$DW$T$124     .dwtag  DW_TAG_typedef
    2624                    .dwattr $C$DW$T$124, DW_AT_name("__pid_t")
    2625                    .dwattr $C$DW$T$124, DW_AT_type(*$C$DW$T$25)
    2626                    .dwattr $C$DW$T$124, DW_AT_language(DW_LANG_C)
    2627                    .dwattr $C$DW$T$124, DW_AT_decl_file("C:/ti/ccs1250/ccs/tools/compiler/ti-cgt-msp430_21.6.1.LT
    2628                    .dwattr $C$DW$T$124, DW_AT_decl_line(0x40)
    2629                    .dwattr $C$DW$T$124, DW_AT_decl_column(0x13)
    2630            
    2631            $C$DW$T$125     .dwtag  DW_TAG_typedef
    2632                    .dwattr $C$DW$T$125, DW_AT_name("__segsz_t")
    2633                    .dwattr $C$DW$T$125, DW_AT_type(*$C$DW$T$25)
    2634                    .dwattr $C$DW$T$125, DW_AT_language(DW_LANG_C)
    2635                    .dwattr $C$DW$T$125, DW_AT_decl_file("C:/ti/ccs1250/ccs/tools/compiler/ti-cgt-msp430_21.6.1.LT
    2636                    .dwattr $C$DW$T$125, DW_AT_decl_line(0x60)
    2637                    .dwattr $C$DW$T$125, DW_AT_decl_column(0x13)
    2638            
    2639            $C$DW$T$126     .dwtag  DW_TAG_typedef
    2640                    .dwattr $C$DW$T$126, DW_AT_name("__ssize_t")
    2641                    .dwattr $C$DW$T$126, DW_AT_type(*$C$DW$T$25)
    2642                    .dwattr $C$DW$T$126, DW_AT_language(DW_LANG_C)
    2643                    .dwattr $C$DW$T$126, DW_AT_decl_file("C:/ti/ccs1250/ccs/tools/compiler/ti-cgt-msp430_21.6.1.LT
    2644                    .dwattr $C$DW$T$126, DW_AT_decl_line(0x62)
    2645                    .dwattr $C$DW$T$126, DW_AT_decl_column(0x13)
    2646            
    2647            $C$DW$T$26      .dwtag  DW_TAG_typedef
    2648                    .dwattr $C$DW$T$26, DW_AT_name("int32_t")
    2649                    .dwattr $C$DW$T$26, DW_AT_type(*$C$DW$T$25)
    2650                    .dwattr $C$DW$T$26, DW_AT_language(DW_LANG_C)
    2651                    .dwattr $C$DW$T$26, DW_AT_decl_file("C:/ti/ccs1250/ccs/tools/compiler/ti-cgt-msp430_21.6.1.LTS
    2652                    .dwattr $C$DW$T$26, DW_AT_decl_line(0x30)
    2653                    .dwattr $C$DW$T$26, DW_AT_decl_column(0x14)
    2654            
MSP430 Assembler PC v21.6.1 Mon Feb 24 13:22:57 2025

Copyright (c) 2003-2018 Texas Instruments Incorporated
bak.asm                                                              PAGE   52

    2655            $C$DW$T$127     .dwtag  DW_TAG_typedef
    2656                    .dwattr $C$DW$T$127, DW_AT_name("__key_t")
    2657                    .dwattr $C$DW$T$127, DW_AT_type(*$C$DW$T$12)
    2658                    .dwattr $C$DW$T$127, DW_AT_language(DW_LANG_C)
    2659                    .dwattr $C$DW$T$127, DW_AT_decl_file("C:/ti/ccs1250/ccs/tools/compiler/ti-cgt-msp430_21.6.1.LT
    2660                    .dwattr $C$DW$T$127, DW_AT_decl_line(0x38)
    2661                    .dwattr $C$DW$T$127, DW_AT_decl_column(0x0f)
    2662            
    2663            $C$DW$T$128     .dwtag  DW_TAG_typedef
    2664                    .dwattr $C$DW$T$128, DW_AT_name("__suseconds_t")
    2665                    .dwattr $C$DW$T$128, DW_AT_type(*$C$DW$T$12)
    2666                    .dwattr $C$DW$T$128, DW_AT_language(DW_LANG_C)
    2667                    .dwattr $C$DW$T$128, DW_AT_decl_file("C:/ti/ccs1250/ccs/tools/compiler/ti-cgt-msp430_21.6.1.LT
    2668                    .dwattr $C$DW$T$128, DW_AT_decl_line(0x4a)
    2669                    .dwattr $C$DW$T$128, DW_AT_decl_column(0x0f)
    2670            
    2671            $C$DW$T$129     .dwtag  DW_TAG_typedef
    2672                    .dwattr $C$DW$T$129, DW_AT_name("_off_t")
    2673                    .dwattr $C$DW$T$129, DW_AT_type(*$C$DW$T$12)
    2674                    .dwattr $C$DW$T$129, DW_AT_language(DW_LANG_C)
    2675                    .dwattr $C$DW$T$129, DW_AT_decl_file("C:/ti/ccs1250/ccs/tools/compiler/ti-cgt-msp430_21.6.1.LT
    2676                    .dwattr $C$DW$T$129, DW_AT_decl_line(0x8d)
    2677                    .dwattr $C$DW$T$129, DW_AT_decl_column(0x12)
    2678            
    2679            $C$DW$T$130     .dwtag  DW_TAG_typedef
    2680                    .dwattr $C$DW$T$130, DW_AT_name("__off_t")
    2681                    .dwattr $C$DW$T$130, DW_AT_type(*$C$DW$T$129)
    2682                    .dwattr $C$DW$T$130, DW_AT_language(DW_LANG_C)
    2683                    .dwattr $C$DW$T$130, DW_AT_decl_file("C:/ti/ccs1250/ccs/tools/compiler/ti-cgt-msp430_21.6.1.LT
    2684                    .dwattr $C$DW$T$130, DW_AT_decl_line(0x3e)
    2685                    .dwattr $C$DW$T$130, DW_AT_decl_column(0x18)
    2686            
    2687            $C$DW$T$13      .dwtag  DW_TAG_base_type
    2688                    .dwattr $C$DW$T$13, DW_AT_encoding(DW_ATE_unsigned)
    2689                    .dwattr $C$DW$T$13, DW_AT_name("unsigned long")
    2690                    .dwattr $C$DW$T$13, DW_AT_byte_size(0x04)
    2691            
    2692            $C$DW$T$131     .dwtag  DW_TAG_typedef
    2693                    .dwattr $C$DW$T$131, DW_AT_name("__uint32_t")
    2694                    .dwattr $C$DW$T$131, DW_AT_type(*$C$DW$T$13)
    2695                    .dwattr $C$DW$T$131, DW_AT_language(DW_LANG_C)
    2696                    .dwattr $C$DW$T$131, DW_AT_decl_file("C:/ti/ccs1250/ccs/tools/compiler/ti-cgt-msp430_21.6.1.LT
    2697                    .dwattr $C$DW$T$131, DW_AT_decl_line(0x3b)
    2698                    .dwattr $C$DW$T$131, DW_AT_decl_column(0x18)
    2699            
    2700            $C$DW$T$132     .dwtag  DW_TAG_typedef
    2701                    .dwattr $C$DW$T$132, DW_AT_name("__clock_t")
    2702                    .dwattr $C$DW$T$132, DW_AT_type(*$C$DW$T$131)
    2703                    .dwattr $C$DW$T$132, DW_AT_language(DW_LANG_C)
    2704                    .dwattr $C$DW$T$132, DW_AT_decl_file("C:/ti/ccs1250/ccs/tools/compiler/ti-cgt-msp430_21.6.1.LT
    2705                    .dwattr $C$DW$T$132, DW_AT_decl_line(0x4a)
    2706                    .dwattr $C$DW$T$132, DW_AT_decl_column(0x14)
    2707            
    2708            $C$DW$T$133     .dwtag  DW_TAG_typedef
    2709                    .dwattr $C$DW$T$133, DW_AT_name("__fflags_t")
MSP430 Assembler PC v21.6.1 Mon Feb 24 13:22:57 2025

Copyright (c) 2003-2018 Texas Instruments Incorporated
bak.asm                                                              PAGE   53

    2710                    .dwattr $C$DW$T$133, DW_AT_type(*$C$DW$T$131)
    2711                    .dwattr $C$DW$T$133, DW_AT_language(DW_LANG_C)
    2712                    .dwattr $C$DW$T$133, DW_AT_decl_file("C:/ti/ccs1250/ccs/tools/compiler/ti-cgt-msp430_21.6.1.LT
    2713                    .dwattr $C$DW$T$133, DW_AT_decl_line(0x32)
    2714                    .dwattr $C$DW$T$133, DW_AT_decl_column(0x14)
    2715            
    2716            $C$DW$T$134     .dwtag  DW_TAG_typedef
    2717                    .dwattr $C$DW$T$134, DW_AT_name("__fixpt_t")
    2718                    .dwattr $C$DW$T$134, DW_AT_type(*$C$DW$T$131)
    2719                    .dwattr $C$DW$T$134, DW_AT_language(DW_LANG_C)
    2720                    .dwattr $C$DW$T$134, DW_AT_decl_file("C:/ti/ccs1250/ccs/tools/compiler/ti-cgt-msp430_21.6.1.LT
    2721                    .dwattr $C$DW$T$134, DW_AT_decl_line(0x81)
    2722                    .dwattr $C$DW$T$134, DW_AT_decl_column(0x14)
    2723            
    2724            $C$DW$T$135     .dwtag  DW_TAG_typedef
    2725                    .dwattr $C$DW$T$135, DW_AT_name("__gid_t")
    2726                    .dwattr $C$DW$T$135, DW_AT_type(*$C$DW$T$131)
    2727                    .dwattr $C$DW$T$135, DW_AT_language(DW_LANG_C)
    2728                    .dwattr $C$DW$T$135, DW_AT_decl_file("C:/ti/ccs1250/ccs/tools/compiler/ti-cgt-msp430_21.6.1.LT
    2729                    .dwattr $C$DW$T$135, DW_AT_decl_line(0x35)
    2730                    .dwattr $C$DW$T$135, DW_AT_decl_column(0x14)
    2731            
    2732            $C$DW$T$136     .dwtag  DW_TAG_typedef
    2733                    .dwattr $C$DW$T$136, DW_AT_name("__socklen_t")
    2734                    .dwattr $C$DW$T$136, DW_AT_type(*$C$DW$T$131)
    2735                    .dwattr $C$DW$T$136, DW_AT_language(DW_LANG_C)
    2736                    .dwattr $C$DW$T$136, DW_AT_decl_file("C:/ti/ccs1250/ccs/tools/compiler/ti-cgt-msp430_21.6.1.LT
    2737                    .dwattr $C$DW$T$136, DW_AT_decl_line(0x49)
    2738                    .dwattr $C$DW$T$136, DW_AT_decl_column(0x14)
    2739            
    2740            $C$DW$T$137     .dwtag  DW_TAG_typedef
    2741                    .dwattr $C$DW$T$137, DW_AT_name("__time_t")
    2742                    .dwattr $C$DW$T$137, DW_AT_type(*$C$DW$T$131)
    2743                    .dwattr $C$DW$T$137, DW_AT_language(DW_LANG_C)
    2744                    .dwattr $C$DW$T$137, DW_AT_decl_file("C:/ti/ccs1250/ccs/tools/compiler/ti-cgt-msp430_21.6.1.LT
    2745                    .dwattr $C$DW$T$137, DW_AT_decl_line(0x66)
    2746                    .dwattr $C$DW$T$137, DW_AT_decl_column(0x19)
    2747            
    2748            $C$DW$T$138     .dwtag  DW_TAG_typedef
    2749                    .dwattr $C$DW$T$138, DW_AT_name("__uid_t")
    2750                    .dwattr $C$DW$T$138, DW_AT_type(*$C$DW$T$131)
    2751                    .dwattr $C$DW$T$138, DW_AT_language(DW_LANG_C)
    2752                    .dwattr $C$DW$T$138, DW_AT_decl_file("C:/ti/ccs1250/ccs/tools/compiler/ti-cgt-msp430_21.6.1.LT
    2753                    .dwattr $C$DW$T$138, DW_AT_decl_line(0x4d)
    2754                    .dwattr $C$DW$T$138, DW_AT_decl_column(0x14)
    2755            
    2756            $C$DW$T$139     .dwtag  DW_TAG_typedef
    2757                    .dwattr $C$DW$T$139, DW_AT_name("__uint_fast32_t")
    2758                    .dwattr $C$DW$T$139, DW_AT_type(*$C$DW$T$131)
    2759                    .dwattr $C$DW$T$139, DW_AT_language(DW_LANG_C)
    2760                    .dwattr $C$DW$T$139, DW_AT_decl_file("C:/ti/ccs1250/ccs/tools/compiler/ti-cgt-msp430_21.6.1.LT
    2761                    .dwattr $C$DW$T$139, DW_AT_decl_line(0x72)
    2762                    .dwattr $C$DW$T$139, DW_AT_decl_column(0x14)
    2763            
    2764            $C$DW$T$140     .dwtag  DW_TAG_typedef
MSP430 Assembler PC v21.6.1 Mon Feb 24 13:22:57 2025

Copyright (c) 2003-2018 Texas Instruments Incorporated
bak.asm                                                              PAGE   54

    2765                    .dwattr $C$DW$T$140, DW_AT_name("uint_fast32_t")
    2766                    .dwattr $C$DW$T$140, DW_AT_type(*$C$DW$T$139)
    2767                    .dwattr $C$DW$T$140, DW_AT_language(DW_LANG_C)
    2768                    .dwattr $C$DW$T$140, DW_AT_decl_file("C:/ti/ccs1250/ccs/tools/compiler/ti-cgt-msp430_21.6.1.LT
    2769                    .dwattr $C$DW$T$140, DW_AT_decl_line(0x3b)
    2770                    .dwattr $C$DW$T$140, DW_AT_decl_column(0x1a)
    2771            
    2772            $C$DW$T$141     .dwtag  DW_TAG_typedef
    2773                    .dwattr $C$DW$T$141, DW_AT_name("__uint_least32_t")
    2774                    .dwattr $C$DW$T$141, DW_AT_type(*$C$DW$T$131)
    2775                    .dwattr $C$DW$T$141, DW_AT_language(DW_LANG_C)
    2776                    .dwattr $C$DW$T$141, DW_AT_decl_file("C:/ti/ccs1250/ccs/tools/compiler/ti-cgt-msp430_21.6.1.LT
    2777                    .dwattr $C$DW$T$141, DW_AT_decl_line(0x76)
    2778                    .dwattr $C$DW$T$141, DW_AT_decl_column(0x14)
    2779            
    2780            $C$DW$T$142     .dwtag  DW_TAG_typedef
    2781                    .dwattr $C$DW$T$142, DW_AT_name("__char32_t")
    2782                    .dwattr $C$DW$T$142, DW_AT_type(*$C$DW$T$141)
    2783                    .dwattr $C$DW$T$142, DW_AT_language(DW_LANG_C)
    2784                    .dwattr $C$DW$T$142, DW_AT_decl_file("C:/ti/ccs1250/ccs/tools/compiler/ti-cgt-msp430_21.6.1.LT
    2785                    .dwattr $C$DW$T$142, DW_AT_decl_line(0x72)
    2786                    .dwattr $C$DW$T$142, DW_AT_decl_column(0x1a)
    2787            
    2788            $C$DW$T$143     .dwtag  DW_TAG_typedef
    2789                    .dwattr $C$DW$T$143, DW_AT_name("uint_least32_t")
    2790                    .dwattr $C$DW$T$143, DW_AT_type(*$C$DW$T$141)
    2791                    .dwattr $C$DW$T$143, DW_AT_language(DW_LANG_C)
    2792                    .dwattr $C$DW$T$143, DW_AT_decl_file("C:/ti/ccs1250/ccs/tools/compiler/ti-cgt-msp430_21.6.1.LT
    2793                    .dwattr $C$DW$T$143, DW_AT_decl_line(0x31)
    2794                    .dwattr $C$DW$T$143, DW_AT_decl_column(0x1a)
    2795            
    2796            $C$DW$T$144     .dwtag  DW_TAG_typedef
    2797                    .dwattr $C$DW$T$144, DW_AT_name("__uintfptr_t")
    2798                    .dwattr $C$DW$T$144, DW_AT_type(*$C$DW$T$131)
    2799                    .dwattr $C$DW$T$144, DW_AT_language(DW_LANG_C)
    2800                    .dwattr $C$DW$T$144, DW_AT_decl_file("C:/ti/ccs1250/ccs/tools/compiler/ti-cgt-msp430_21.6.1.LT
    2801                    .dwattr $C$DW$T$144, DW_AT_decl_line(0x68)
    2802                    .dwattr $C$DW$T$144, DW_AT_decl_column(0x14)
    2803            
    2804            $C$DW$T$145     .dwtag  DW_TAG_typedef
    2805                    .dwattr $C$DW$T$145, DW_AT_name("__uintptr_t")
    2806                    .dwattr $C$DW$T$145, DW_AT_type(*$C$DW$T$131)
    2807                    .dwattr $C$DW$T$145, DW_AT_language(DW_LANG_C)
    2808                    .dwattr $C$DW$T$145, DW_AT_decl_file("C:/ti/ccs1250/ccs/tools/compiler/ti-cgt-msp430_21.6.1.LT
    2809                    .dwattr $C$DW$T$145, DW_AT_decl_line(0x6b)
    2810                    .dwattr $C$DW$T$145, DW_AT_decl_column(0x14)
    2811            
    2812            $C$DW$T$146     .dwtag  DW_TAG_typedef
    2813                    .dwattr $C$DW$T$146, DW_AT_name("uintptr_t")
    2814                    .dwattr $C$DW$T$146, DW_AT_type(*$C$DW$T$145)
    2815                    .dwattr $C$DW$T$146, DW_AT_language(DW_LANG_C)
    2816                    .dwattr $C$DW$T$146, DW_AT_decl_file("C:/ti/ccs1250/ccs/tools/compiler/ti-cgt-msp430_21.6.1.LT
    2817                    .dwattr $C$DW$T$146, DW_AT_decl_line(0x54)
    2818                    .dwattr $C$DW$T$146, DW_AT_decl_column(0x16)
    2819            
MSP430 Assembler PC v21.6.1 Mon Feb 24 13:22:57 2025

Copyright (c) 2003-2018 Texas Instruments Incorporated
bak.asm                                                              PAGE   55

    2820            $C$DW$T$147     .dwtag  DW_TAG_typedef
    2821                    .dwattr $C$DW$T$147, DW_AT_name("__vm_offset_t")
    2822                    .dwattr $C$DW$T$147, DW_AT_type(*$C$DW$T$131)
    2823                    .dwattr $C$DW$T$147, DW_AT_language(DW_LANG_C)
    2824                    .dwattr $C$DW$T$147, DW_AT_decl_file("C:/ti/ccs1250/ccs/tools/compiler/ti-cgt-msp430_21.6.1.LT
    2825                    .dwattr $C$DW$T$147, DW_AT_decl_line(0x79)
    2826                    .dwattr $C$DW$T$147, DW_AT_decl_column(0x14)
    2827            
    2828            $C$DW$T$148     .dwtag  DW_TAG_typedef
    2829                    .dwattr $C$DW$T$148, DW_AT_name("__vm_paddr_t")
    2830                    .dwattr $C$DW$T$148, DW_AT_type(*$C$DW$T$131)
    2831                    .dwattr $C$DW$T$148, DW_AT_language(DW_LANG_C)
    2832                    .dwattr $C$DW$T$148, DW_AT_decl_file("C:/ti/ccs1250/ccs/tools/compiler/ti-cgt-msp430_21.6.1.LT
    2833                    .dwattr $C$DW$T$148, DW_AT_decl_line(0x7a)
    2834                    .dwattr $C$DW$T$148, DW_AT_decl_column(0x14)
    2835            
    2836            $C$DW$T$149     .dwtag  DW_TAG_typedef
    2837                    .dwattr $C$DW$T$149, DW_AT_name("__vm_size_t")
    2838                    .dwattr $C$DW$T$149, DW_AT_type(*$C$DW$T$131)
    2839                    .dwattr $C$DW$T$149, DW_AT_language(DW_LANG_C)
    2840                    .dwattr $C$DW$T$149, DW_AT_decl_file("C:/ti/ccs1250/ccs/tools/compiler/ti-cgt-msp430_21.6.1.LT
    2841                    .dwattr $C$DW$T$149, DW_AT_decl_line(0x7b)
    2842                    .dwattr $C$DW$T$149, DW_AT_decl_column(0x14)
    2843            
    2844            $C$DW$T$150     .dwtag  DW_TAG_typedef
    2845                    .dwattr $C$DW$T$150, DW_AT_name("uint32_t")
    2846                    .dwattr $C$DW$T$150, DW_AT_type(*$C$DW$T$131)
    2847                    .dwattr $C$DW$T$150, DW_AT_language(DW_LANG_C)
    2848                    .dwattr $C$DW$T$150, DW_AT_decl_file("C:/ti/ccs1250/ccs/tools/compiler/ti-cgt-msp430_21.6.1.LT
    2849                    .dwattr $C$DW$T$150, DW_AT_decl_line(0x46)
    2850                    .dwattr $C$DW$T$150, DW_AT_decl_column(0x15)
    2851            
    2852            $C$DW$T$14      .dwtag  DW_TAG_base_type
    2853                    .dwattr $C$DW$T$14, DW_AT_encoding(DW_ATE_signed)
    2854                    .dwattr $C$DW$T$14, DW_AT_name("long long")
    2855                    .dwattr $C$DW$T$14, DW_AT_byte_size(0x08)
    2856            
    2857            $C$DW$T$151     .dwtag  DW_TAG_typedef
    2858                    .dwattr $C$DW$T$151, DW_AT_name("__int64_t")
    2859                    .dwattr $C$DW$T$151, DW_AT_type(*$C$DW$T$14)
    2860                    .dwattr $C$DW$T$151, DW_AT_language(DW_LANG_C)
    2861                    .dwattr $C$DW$T$151, DW_AT_decl_file("C:/ti/ccs1250/ccs/tools/compiler/ti-cgt-msp430_21.6.1.LT
    2862                    .dwattr $C$DW$T$151, DW_AT_decl_line(0x40)
    2863                    .dwattr $C$DW$T$151, DW_AT_decl_column(0x14)
    2864            
    2865            $C$DW$T$152     .dwtag  DW_TAG_typedef
    2866                    .dwattr $C$DW$T$152, DW_AT_name("__blkcnt_t")
    2867                    .dwattr $C$DW$T$152, DW_AT_type(*$C$DW$T$151)
    2868                    .dwattr $C$DW$T$152, DW_AT_language(DW_LANG_C)
    2869                    .dwattr $C$DW$T$152, DW_AT_decl_file("C:/ti/ccs1250/ccs/tools/compiler/ti-cgt-msp430_21.6.1.LT
    2870                    .dwattr $C$DW$T$152, DW_AT_decl_line(0x30)
    2871                    .dwattr $C$DW$T$152, DW_AT_decl_column(0x13)
    2872            
    2873            $C$DW$T$153     .dwtag  DW_TAG_typedef
    2874                    .dwattr $C$DW$T$153, DW_AT_name("__id_t")
MSP430 Assembler PC v21.6.1 Mon Feb 24 13:22:57 2025

Copyright (c) 2003-2018 Texas Instruments Incorporated
bak.asm                                                              PAGE   56

    2875                    .dwattr $C$DW$T$153, DW_AT_type(*$C$DW$T$151)
    2876                    .dwattr $C$DW$T$153, DW_AT_language(DW_LANG_C)
    2877                    .dwattr $C$DW$T$153, DW_AT_decl_file("C:/ti/ccs1250/ccs/tools/compiler/ti-cgt-msp430_21.6.1.LT
    2878                    .dwattr $C$DW$T$153, DW_AT_decl_line(0x36)
    2879                    .dwattr $C$DW$T$153, DW_AT_decl_column(0x13)
    2880            
    2881            $C$DW$T$154     .dwtag  DW_TAG_typedef
    2882                    .dwattr $C$DW$T$154, DW_AT_name("__int_fast64_t")
    2883                    .dwattr $C$DW$T$154, DW_AT_type(*$C$DW$T$151)
    2884                    .dwattr $C$DW$T$154, DW_AT_language(DW_LANG_C)
    2885                    .dwattr $C$DW$T$154, DW_AT_decl_file("C:/ti/ccs1250/ccs/tools/compiler/ti-cgt-msp430_21.6.1.LT
    2886                    .dwattr $C$DW$T$154, DW_AT_decl_line(0x59)
    2887                    .dwattr $C$DW$T$154, DW_AT_decl_column(0x13)
    2888            
    2889            $C$DW$T$155     .dwtag  DW_TAG_typedef
    2890                    .dwattr $C$DW$T$155, DW_AT_name("int_fast64_t")
    2891                    .dwattr $C$DW$T$155, DW_AT_type(*$C$DW$T$154)
    2892                    .dwattr $C$DW$T$155, DW_AT_language(DW_LANG_C)
    2893                    .dwattr $C$DW$T$155, DW_AT_decl_file("C:/ti/ccs1250/ccs/tools/compiler/ti-cgt-msp430_21.6.1.LT
    2894                    .dwattr $C$DW$T$155, DW_AT_decl_line(0x37)
    2895                    .dwattr $C$DW$T$155, DW_AT_decl_column(0x19)
    2896            
    2897            $C$DW$T$156     .dwtag  DW_TAG_typedef
    2898                    .dwattr $C$DW$T$156, DW_AT_name("__int_least64_t")
    2899                    .dwattr $C$DW$T$156, DW_AT_type(*$C$DW$T$151)
    2900                    .dwattr $C$DW$T$156, DW_AT_language(DW_LANG_C)
    2901                    .dwattr $C$DW$T$156, DW_AT_decl_file("C:/ti/ccs1250/ccs/tools/compiler/ti-cgt-msp430_21.6.1.LT
    2902                    .dwattr $C$DW$T$156, DW_AT_decl_line(0x5d)
    2903                    .dwattr $C$DW$T$156, DW_AT_decl_column(0x13)
    2904            
    2905            $C$DW$T$157     .dwtag  DW_TAG_typedef
    2906                    .dwattr $C$DW$T$157, DW_AT_name("int_least64_t")
    2907                    .dwattr $C$DW$T$157, DW_AT_type(*$C$DW$T$156)
    2908                    .dwattr $C$DW$T$157, DW_AT_language(DW_LANG_C)
    2909                    .dwattr $C$DW$T$157, DW_AT_decl_file("C:/ti/ccs1250/ccs/tools/compiler/ti-cgt-msp430_21.6.1.LT
    2910                    .dwattr $C$DW$T$157, DW_AT_decl_line(0x2d)
    2911                    .dwattr $C$DW$T$157, DW_AT_decl_column(0x1a)
    2912            
    2913            $C$DW$T$158     .dwtag  DW_TAG_typedef
    2914                    .dwattr $C$DW$T$158, DW_AT_name("__intmax_t")
    2915                    .dwattr $C$DW$T$158, DW_AT_type(*$C$DW$T$151)
    2916                    .dwattr $C$DW$T$158, DW_AT_language(DW_LANG_C)
    2917                    .dwattr $C$DW$T$158, DW_AT_decl_file("C:/ti/ccs1250/ccs/tools/compiler/ti-cgt-msp430_21.6.1.LT
    2918                    .dwattr $C$DW$T$158, DW_AT_decl_line(0x4f)
    2919                    .dwattr $C$DW$T$158, DW_AT_decl_column(0x13)
    2920            
    2921            $C$DW$T$159     .dwtag  DW_TAG_typedef
    2922                    .dwattr $C$DW$T$159, DW_AT_name("intmax_t")
    2923                    .dwattr $C$DW$T$159, DW_AT_type(*$C$DW$T$158)
    2924                    .dwattr $C$DW$T$159, DW_AT_language(DW_LANG_C)
    2925                    .dwattr $C$DW$T$159, DW_AT_decl_file("C:/ti/ccs1250/ccs/tools/compiler/ti-cgt-msp430_21.6.1.LT
    2926                    .dwattr $C$DW$T$159, DW_AT_decl_line(0x58)
    2927                    .dwattr $C$DW$T$159, DW_AT_decl_column(0x15)
    2928            
    2929            $C$DW$T$160     .dwtag  DW_TAG_typedef
MSP430 Assembler PC v21.6.1 Mon Feb 24 13:22:57 2025

Copyright (c) 2003-2018 Texas Instruments Incorporated
bak.asm                                                              PAGE   57

    2930                    .dwattr $C$DW$T$160, DW_AT_name("__off64_t")
    2931                    .dwattr $C$DW$T$160, DW_AT_type(*$C$DW$T$151)
    2932                    .dwattr $C$DW$T$160, DW_AT_language(DW_LANG_C)
    2933                    .dwattr $C$DW$T$160, DW_AT_decl_file("C:/ti/ccs1250/ccs/tools/compiler/ti-cgt-msp430_21.6.1.LT
    2934                    .dwattr $C$DW$T$160, DW_AT_decl_line(0x3f)
    2935                    .dwattr $C$DW$T$160, DW_AT_decl_column(0x13)
    2936            
    2937            $C$DW$T$161     .dwtag  DW_TAG_typedef
    2938                    .dwattr $C$DW$T$161, DW_AT_name("__rlim_t")
    2939                    .dwattr $C$DW$T$161, DW_AT_type(*$C$DW$T$151)
    2940                    .dwattr $C$DW$T$161, DW_AT_language(DW_LANG_C)
    2941                    .dwattr $C$DW$T$161, DW_AT_decl_file("C:/ti/ccs1250/ccs/tools/compiler/ti-cgt-msp430_21.6.1.LT
    2942                    .dwattr $C$DW$T$161, DW_AT_decl_line(0x41)
    2943                    .dwattr $C$DW$T$161, DW_AT_decl_column(0x13)
    2944            
    2945            $C$DW$T$162     .dwtag  DW_TAG_typedef
    2946                    .dwattr $C$DW$T$162, DW_AT_name("int64_t")
    2947                    .dwattr $C$DW$T$162, DW_AT_type(*$C$DW$T$151)
    2948                    .dwattr $C$DW$T$162, DW_AT_language(DW_LANG_C)
    2949                    .dwattr $C$DW$T$162, DW_AT_decl_file("C:/ti/ccs1250/ccs/tools/compiler/ti-cgt-msp430_21.6.1.LT
    2950                    .dwattr $C$DW$T$162, DW_AT_decl_line(0x35)
    2951                    .dwattr $C$DW$T$162, DW_AT_decl_column(0x14)
    2952            
    2953            $C$DW$T$15      .dwtag  DW_TAG_base_type
    2954                    .dwattr $C$DW$T$15, DW_AT_encoding(DW_ATE_unsigned)
    2955                    .dwattr $C$DW$T$15, DW_AT_name("unsigned long long")
    2956                    .dwattr $C$DW$T$15, DW_AT_byte_size(0x08)
    2957            
    2958            $C$DW$T$163     .dwtag  DW_TAG_typedef
    2959                    .dwattr $C$DW$T$163, DW_AT_name("__uint64_t")
    2960                    .dwattr $C$DW$T$163, DW_AT_type(*$C$DW$T$15)
    2961                    .dwattr $C$DW$T$163, DW_AT_language(DW_LANG_C)
    2962                    .dwattr $C$DW$T$163, DW_AT_decl_file("C:/ti/ccs1250/ccs/tools/compiler/ti-cgt-msp430_21.6.1.LT
    2963                    .dwattr $C$DW$T$163, DW_AT_decl_line(0x45)
    2964                    .dwattr $C$DW$T$163, DW_AT_decl_column(0x1c)
    2965            
    2966            $C$DW$T$164     .dwtag  DW_TAG_typedef
    2967                    .dwattr $C$DW$T$164, DW_AT_name("__dev_t")
    2968                    .dwattr $C$DW$T$164, DW_AT_type(*$C$DW$T$163)
    2969                    .dwattr $C$DW$T$164, DW_AT_language(DW_LANG_C)
    2970                    .dwattr $C$DW$T$164, DW_AT_decl_file("C:/ti/ccs1250/ccs/tools/compiler/ti-cgt-msp430_21.6.1.LT
    2971                    .dwattr $C$DW$T$164, DW_AT_decl_line(0x7f)
    2972                    .dwattr $C$DW$T$164, DW_AT_decl_column(0x14)
    2973            
    2974            $C$DW$T$165     .dwtag  DW_TAG_typedef
    2975                    .dwattr $C$DW$T$165, DW_AT_name("__fsblkcnt_t")
    2976                    .dwattr $C$DW$T$165, DW_AT_type(*$C$DW$T$163)
    2977                    .dwattr $C$DW$T$165, DW_AT_language(DW_LANG_C)
    2978                    .dwattr $C$DW$T$165, DW_AT_decl_file("C:/ti/ccs1250/ccs/tools/compiler/ti-cgt-msp430_21.6.1.LT
    2979                    .dwattr $C$DW$T$165, DW_AT_decl_line(0x33)
    2980                    .dwattr $C$DW$T$165, DW_AT_decl_column(0x14)
    2981            
    2982            $C$DW$T$166     .dwtag  DW_TAG_typedef
    2983                    .dwattr $C$DW$T$166, DW_AT_name("__fsfilcnt_t")
    2984                    .dwattr $C$DW$T$166, DW_AT_type(*$C$DW$T$163)
MSP430 Assembler PC v21.6.1 Mon Feb 24 13:22:57 2025

Copyright (c) 2003-2018 Texas Instruments Incorporated
bak.asm                                                              PAGE   58

    2985                    .dwattr $C$DW$T$166, DW_AT_language(DW_LANG_C)
    2986                    .dwattr $C$DW$T$166, DW_AT_decl_file("C:/ti/ccs1250/ccs/tools/compiler/ti-cgt-msp430_21.6.1.LT
    2987                    .dwattr $C$DW$T$166, DW_AT_decl_line(0x34)
    2988                    .dwattr $C$DW$T$166, DW_AT_decl_column(0x14)
    2989            
    2990            $C$DW$T$167     .dwtag  DW_TAG_typedef
    2991                    .dwattr $C$DW$T$167, DW_AT_name("__ino_t")
    2992                    .dwattr $C$DW$T$167, DW_AT_type(*$C$DW$T$163)
    2993                    .dwattr $C$DW$T$167, DW_AT_language(DW_LANG_C)
    2994                    .dwattr $C$DW$T$167, DW_AT_decl_file("C:/ti/ccs1250/ccs/tools/compiler/ti-cgt-msp430_21.6.1.LT
    2995                    .dwattr $C$DW$T$167, DW_AT_decl_line(0x37)
    2996                    .dwattr $C$DW$T$167, DW_AT_decl_column(0x14)
    2997            
    2998            $C$DW$T$168     .dwtag  DW_TAG_typedef
    2999                    .dwattr $C$DW$T$168, DW_AT_name("__nlink_t")
    3000                    .dwattr $C$DW$T$168, DW_AT_type(*$C$DW$T$163)
    3001                    .dwattr $C$DW$T$168, DW_AT_language(DW_LANG_C)
    3002                    .dwattr $C$DW$T$168, DW_AT_decl_file("C:/ti/ccs1250/ccs/tools/compiler/ti-cgt-msp430_21.6.1.LT
    3003                    .dwattr $C$DW$T$168, DW_AT_decl_line(0x3d)
    3004                    .dwattr $C$DW$T$168, DW_AT_decl_column(0x14)
    3005            
    3006            $C$DW$T$169     .dwtag  DW_TAG_typedef
    3007                    .dwattr $C$DW$T$169, DW_AT_name("__uint_fast64_t")
    3008                    .dwattr $C$DW$T$169, DW_AT_type(*$C$DW$T$163)
    3009                    .dwattr $C$DW$T$169, DW_AT_language(DW_LANG_C)
    3010                    .dwattr $C$DW$T$169, DW_AT_decl_file("C:/ti/ccs1250/ccs/tools/compiler/ti-cgt-msp430_21.6.1.LT
    3011                    .dwattr $C$DW$T$169, DW_AT_decl_line(0x73)
    3012                    .dwattr $C$DW$T$169, DW_AT_decl_column(0x14)
    3013            
    3014            $C$DW$T$170     .dwtag  DW_TAG_typedef
    3015                    .dwattr $C$DW$T$170, DW_AT_name("uint_fast64_t")
    3016                    .dwattr $C$DW$T$170, DW_AT_type(*$C$DW$T$169)
    3017                    .dwattr $C$DW$T$170, DW_AT_language(DW_LANG_C)
    3018                    .dwattr $C$DW$T$170, DW_AT_decl_file("C:/ti/ccs1250/ccs/tools/compiler/ti-cgt-msp430_21.6.1.LT
    3019                    .dwattr $C$DW$T$170, DW_AT_decl_line(0x3c)
    3020                    .dwattr $C$DW$T$170, DW_AT_decl_column(0x1a)
    3021            
    3022            $C$DW$T$171     .dwtag  DW_TAG_typedef
    3023                    .dwattr $C$DW$T$171, DW_AT_name("__uint_least64_t")
    3024                    .dwattr $C$DW$T$171, DW_AT_type(*$C$DW$T$163)
    3025                    .dwattr $C$DW$T$171, DW_AT_language(DW_LANG_C)
    3026                    .dwattr $C$DW$T$171, DW_AT_decl_file("C:/ti/ccs1250/ccs/tools/compiler/ti-cgt-msp430_21.6.1.LT
    3027                    .dwattr $C$DW$T$171, DW_AT_decl_line(0x77)
    3028                    .dwattr $C$DW$T$171, DW_AT_decl_column(0x14)
    3029            
    3030            $C$DW$T$172     .dwtag  DW_TAG_typedef
    3031                    .dwattr $C$DW$T$172, DW_AT_name("uint_least64_t")
    3032                    .dwattr $C$DW$T$172, DW_AT_type(*$C$DW$T$171)
    3033                    .dwattr $C$DW$T$172, DW_AT_language(DW_LANG_C)
    3034                    .dwattr $C$DW$T$172, DW_AT_decl_file("C:/ti/ccs1250/ccs/tools/compiler/ti-cgt-msp430_21.6.1.LT
    3035                    .dwattr $C$DW$T$172, DW_AT_decl_line(0x32)
    3036                    .dwattr $C$DW$T$172, DW_AT_decl_column(0x1a)
    3037            
    3038            $C$DW$T$173     .dwtag  DW_TAG_typedef
    3039                    .dwattr $C$DW$T$173, DW_AT_name("__uintmax_t")
MSP430 Assembler PC v21.6.1 Mon Feb 24 13:22:57 2025

Copyright (c) 2003-2018 Texas Instruments Incorporated
bak.asm                                                              PAGE   59

    3040                    .dwattr $C$DW$T$173, DW_AT_type(*$C$DW$T$163)
    3041                    .dwattr $C$DW$T$173, DW_AT_language(DW_LANG_C)
    3042                    .dwattr $C$DW$T$173, DW_AT_decl_file("C:/ti/ccs1250/ccs/tools/compiler/ti-cgt-msp430_21.6.1.LT
    3043                    .dwattr $C$DW$T$173, DW_AT_decl_line(0x69)
    3044                    .dwattr $C$DW$T$173, DW_AT_decl_column(0x14)
    3045            
    3046            $C$DW$T$174     .dwtag  DW_TAG_typedef
    3047                    .dwattr $C$DW$T$174, DW_AT_name("__rman_res_t")
    3048                    .dwattr $C$DW$T$174, DW_AT_type(*$C$DW$T$173)
    3049                    .dwattr $C$DW$T$174, DW_AT_language(DW_LANG_C)
    3050                    .dwattr $C$DW$T$174, DW_AT_decl_file("C:/ti/ccs1250/ccs/tools/compiler/ti-cgt-msp430_21.6.1.LT
    3051                    .dwattr $C$DW$T$174, DW_AT_decl_line(0x9a)
    3052                    .dwattr $C$DW$T$174, DW_AT_decl_column(0x19)
    3053            
    3054            $C$DW$T$175     .dwtag  DW_TAG_typedef
    3055                    .dwattr $C$DW$T$175, DW_AT_name("uintmax_t")
    3056                    .dwattr $C$DW$T$175, DW_AT_type(*$C$DW$T$173)
    3057                    .dwattr $C$DW$T$175, DW_AT_language(DW_LANG_C)
    3058                    .dwattr $C$DW$T$175, DW_AT_decl_file("C:/ti/ccs1250/ccs/tools/compiler/ti-cgt-msp430_21.6.1.LT
    3059                    .dwattr $C$DW$T$175, DW_AT_decl_line(0x5c)
    3060                    .dwattr $C$DW$T$175, DW_AT_decl_column(0x16)
    3061            
    3062            $C$DW$T$176     .dwtag  DW_TAG_typedef
    3063                    .dwattr $C$DW$T$176, DW_AT_name("uint64_t")
    3064                    .dwattr $C$DW$T$176, DW_AT_type(*$C$DW$T$163)
    3065                    .dwattr $C$DW$T$176, DW_AT_language(DW_LANG_C)
    3066                    .dwattr $C$DW$T$176, DW_AT_decl_file("C:/ti/ccs1250/ccs/tools/compiler/ti-cgt-msp430_21.6.1.LT
    3067                    .dwattr $C$DW$T$176, DW_AT_decl_line(0x4b)
    3068                    .dwattr $C$DW$T$176, DW_AT_decl_column(0x15)
    3069            
    3070            $C$DW$T$16      .dwtag  DW_TAG_base_type
    3071                    .dwattr $C$DW$T$16, DW_AT_encoding(DW_ATE_float)
    3072                    .dwattr $C$DW$T$16, DW_AT_name("float")
    3073                    .dwattr $C$DW$T$16, DW_AT_byte_size(0x04)
    3074            
    3075            $C$DW$T$177     .dwtag  DW_TAG_typedef
    3076                    .dwattr $C$DW$T$177, DW_AT_name("__float_t")
    3077                    .dwattr $C$DW$T$177, DW_AT_type(*$C$DW$T$16)
    3078                    .dwattr $C$DW$T$177, DW_AT_language(DW_LANG_C)
    3079                    .dwattr $C$DW$T$177, DW_AT_decl_file("C:/ti/ccs1250/ccs/tools/compiler/ti-cgt-msp430_21.6.1.LT
    3080                    .dwattr $C$DW$T$177, DW_AT_decl_line(0x4d)
    3081                    .dwattr $C$DW$T$177, DW_AT_decl_column(0x10)
    3082            
    3083            $C$DW$T$17      .dwtag  DW_TAG_base_type
    3084                    .dwattr $C$DW$T$17, DW_AT_encoding(DW_ATE_float)
    3085                    .dwattr $C$DW$T$17, DW_AT_name("double")
    3086                    .dwattr $C$DW$T$17, DW_AT_byte_size(0x08)
    3087            
    3088            $C$DW$T$178     .dwtag  DW_TAG_typedef
    3089                    .dwattr $C$DW$T$178, DW_AT_name("__double_t")
    3090                    .dwattr $C$DW$T$178, DW_AT_type(*$C$DW$T$17)
    3091                    .dwattr $C$DW$T$178, DW_AT_language(DW_LANG_C)
    3092                    .dwattr $C$DW$T$178, DW_AT_decl_file("C:/ti/ccs1250/ccs/tools/compiler/ti-cgt-msp430_21.6.1.LT
    3093                    .dwattr $C$DW$T$178, DW_AT_decl_line(0x4c)
    3094                    .dwattr $C$DW$T$178, DW_AT_decl_column(0x11)
MSP430 Assembler PC v21.6.1 Mon Feb 24 13:22:57 2025

Copyright (c) 2003-2018 Texas Instruments Incorporated
bak.asm                                                              PAGE   60

    3095            
    3096            $C$DW$T$18      .dwtag  DW_TAG_base_type
    3097                    .dwattr $C$DW$T$18, DW_AT_encoding(DW_ATE_float)
    3098                    .dwattr $C$DW$T$18, DW_AT_name("long double")
    3099                    .dwattr $C$DW$T$18, DW_AT_byte_size(0x08)
    3100            
    3101            $C$DW$T$180     .dwtag  DW_TAG_pointer_type
    3102                    .dwattr $C$DW$T$180, DW_AT_type(*$C$DW$T$6)
    3103                    .dwattr $C$DW$T$180, DW_AT_address_class(0x14)
    3104            
    3105            $C$DW$T$181     .dwtag  DW_TAG_typedef
    3106                    .dwattr $C$DW$T$181, DW_AT_name("__va_list")
    3107                    .dwattr $C$DW$T$181, DW_AT_type(*$C$DW$T$180)
    3108                    .dwattr $C$DW$T$181, DW_AT_language(DW_LANG_C)
    3109                    .dwattr $C$DW$T$181, DW_AT_decl_file("C:/ti/ccs1250/ccs/tools/compiler/ti-cgt-msp430_21.6.1.LT
    3110                    .dwattr $C$DW$T$181, DW_AT_decl_line(0x92)
    3111                    .dwattr $C$DW$T$181, DW_AT_decl_column(0x0f)
    3112            
    3113            
    3114            $C$DW$T$19      .dwtag  DW_TAG_structure_type
    3115                    .dwattr $C$DW$T$19, DW_AT_name("__mq")
    3116                    .dwattr $C$DW$T$19, DW_AT_declaration
    3117                    .dwattr $C$DW$T$19, DW_AT_decl_file("C:/ti/ccs1250/ccs/tools/compiler/ti-cgt-msp430_21.6.1.LTS
    3118                    .dwattr $C$DW$T$19, DW_AT_decl_line(0x4c)
    3119                    .dwattr $C$DW$T$19, DW_AT_decl_column(0x10)
    3120                    .dwendtag $C$DW$T$19
    3121            
    3122            $C$DW$T$182     .dwtag  DW_TAG_pointer_type
    3123                    .dwattr $C$DW$T$182, DW_AT_type(*$C$DW$T$19)
    3124                    .dwattr $C$DW$T$182, DW_AT_address_class(0x14)
    3125            
    3126            $C$DW$T$183     .dwtag  DW_TAG_typedef
    3127                    .dwattr $C$DW$T$183, DW_AT_name("__mqd_t")
    3128                    .dwattr $C$DW$T$183, DW_AT_type(*$C$DW$T$182)
    3129                    .dwattr $C$DW$T$183, DW_AT_language(DW_LANG_C)
    3130                    .dwattr $C$DW$T$183, DW_AT_decl_file("C:/ti/ccs1250/ccs/tools/compiler/ti-cgt-msp430_21.6.1.LT
    3131                    .dwattr $C$DW$T$183, DW_AT_decl_line(0x4c)
    3132                    .dwattr $C$DW$T$183, DW_AT_decl_column(0x16)
    3133            
    3134            
    3135            $C$DW$T$20      .dwtag  DW_TAG_structure_type
    3136                    .dwattr $C$DW$T$20, DW_AT_name("__timer")
    3137                    .dwattr $C$DW$T$20, DW_AT_declaration
    3138                    .dwattr $C$DW$T$20, DW_AT_decl_file("C:/ti/ccs1250/ccs/tools/compiler/ti-cgt-msp430_21.6.1.LTS
    3139                    .dwattr $C$DW$T$20, DW_AT_decl_line(0x4b)
    3140                    .dwattr $C$DW$T$20, DW_AT_decl_column(0x10)
    3141                    .dwendtag $C$DW$T$20
    3142            
    3143            $C$DW$T$184     .dwtag  DW_TAG_pointer_type
    3144                    .dwattr $C$DW$T$184, DW_AT_type(*$C$DW$T$20)
    3145                    .dwattr $C$DW$T$184, DW_AT_address_class(0x14)
    3146            
    3147            $C$DW$T$185     .dwtag  DW_TAG_typedef
    3148                    .dwattr $C$DW$T$185, DW_AT_name("__timer_t")
    3149                    .dwattr $C$DW$T$185, DW_AT_type(*$C$DW$T$184)
MSP430 Assembler PC v21.6.1 Mon Feb 24 13:22:57 2025

Copyright (c) 2003-2018 Texas Instruments Incorporated
bak.asm                                                              PAGE   61

    3150                    .dwattr $C$DW$T$185, DW_AT_language(DW_LANG_C)
    3151                    .dwattr $C$DW$T$185, DW_AT_decl_file("C:/ti/ccs1250/ccs/tools/compiler/ti-cgt-msp430_21.6.1.LT
    3152                    .dwattr $C$DW$T$185, DW_AT_decl_line(0x4b)
    3153                    .dwattr $C$DW$T$185, DW_AT_decl_column(0x19)
    3154            
    3155                    .dwattr $C$DW$CU, DW_AT_language(DW_LANG_C)
    3156            
    3157            ;***************************************************************
    3158            ;* DWARF CIE ENTRIES                                           *
    3159            ;***************************************************************
    3160            
    3161            $C$DW$CIE       .dwcie 16
    3162                    .dwcfi  cfa_register, 1
    3163                    .dwcfi  cfa_offset, 0
    3164                    .dwcfi  same_value, 0
    3165                    .dwcfi  same_value, 1
    3166                    .dwcfi  same_value, 3
    3167                    .dwcfi  same_value, 4
    3168                    .dwcfi  same_value, 5
    3169                    .dwcfi  same_value, 6
    3170                    .dwcfi  same_value, 7
    3171                    .dwcfi  same_value, 8
    3172                    .dwcfi  same_value, 9
    3173                    .dwcfi  same_value, 10
    3174                    .dwendentry
    3175            
    3176            ;***************************************************************
    3177            ;* DWARF REGISTER MAP                                          *
    3178            ;***************************************************************
    3179            
    3180            $C$DW$122       .dwtag  DW_TAG_TI_assign_register
    3181                    .dwattr $C$DW$122, DW_AT_name("PC")
    3182                    .dwattr $C$DW$122, DW_AT_location[DW_OP_reg0]
    3183            
    3184            $C$DW$123       .dwtag  DW_TAG_TI_assign_register
    3185                    .dwattr $C$DW$123, DW_AT_name("SP")
    3186                    .dwattr $C$DW$123, DW_AT_location[DW_OP_reg1]
    3187            
    3188            $C$DW$124       .dwtag  DW_TAG_TI_assign_register
    3189                    .dwattr $C$DW$124, DW_AT_name("SR")
    3190                    .dwattr $C$DW$124, DW_AT_location[DW_OP_reg2]
    3191            
    3192            $C$DW$125       .dwtag  DW_TAG_TI_assign_register
    3193                    .dwattr $C$DW$125, DW_AT_name("CG")
    3194                    .dwattr $C$DW$125, DW_AT_location[DW_OP_reg3]
    3195            
    3196            $C$DW$126       .dwtag  DW_TAG_TI_assign_register
    3197                    .dwattr $C$DW$126, DW_AT_name("r4")
    3198                    .dwattr $C$DW$126, DW_AT_location[DW_OP_reg4]
    3199            
    3200            $C$DW$127       .dwtag  DW_TAG_TI_assign_register
    3201                    .dwattr $C$DW$127, DW_AT_name("r5")
    3202                    .dwattr $C$DW$127, DW_AT_location[DW_OP_reg5]
    3203            
    3204            $C$DW$128       .dwtag  DW_TAG_TI_assign_register
MSP430 Assembler PC v21.6.1 Mon Feb 24 13:22:57 2025

Copyright (c) 2003-2018 Texas Instruments Incorporated
bak.asm                                                              PAGE   62

    3205                    .dwattr $C$DW$128, DW_AT_name("r6")
    3206                    .dwattr $C$DW$128, DW_AT_location[DW_OP_reg6]
    3207            
    3208            $C$DW$129       .dwtag  DW_TAG_TI_assign_register
    3209                    .dwattr $C$DW$129, DW_AT_name("r7")
    3210                    .dwattr $C$DW$129, DW_AT_location[DW_OP_reg7]
    3211            
    3212            $C$DW$130       .dwtag  DW_TAG_TI_assign_register
    3213                    .dwattr $C$DW$130, DW_AT_name("r8")
    3214                    .dwattr $C$DW$130, DW_AT_location[DW_OP_reg8]
    3215            
    3216            $C$DW$131       .dwtag  DW_TAG_TI_assign_register
    3217                    .dwattr $C$DW$131, DW_AT_name("r9")
    3218                    .dwattr $C$DW$131, DW_AT_location[DW_OP_reg9]
    3219            
    3220            $C$DW$132       .dwtag  DW_TAG_TI_assign_register
    3221                    .dwattr $C$DW$132, DW_AT_name("r10")
    3222                    .dwattr $C$DW$132, DW_AT_location[DW_OP_reg10]
    3223            
    3224            $C$DW$133       .dwtag  DW_TAG_TI_assign_register
    3225                    .dwattr $C$DW$133, DW_AT_name("r11")
    3226                    .dwattr $C$DW$133, DW_AT_location[DW_OP_reg11]
    3227            
    3228            $C$DW$134       .dwtag  DW_TAG_TI_assign_register
    3229                    .dwattr $C$DW$134, DW_AT_name("r12")
    3230                    .dwattr $C$DW$134, DW_AT_location[DW_OP_reg12]
    3231            
    3232            $C$DW$135       .dwtag  DW_TAG_TI_assign_register
    3233                    .dwattr $C$DW$135, DW_AT_name("r13")
    3234                    .dwattr $C$DW$135, DW_AT_location[DW_OP_reg13]
    3235            
    3236            $C$DW$136       .dwtag  DW_TAG_TI_assign_register
    3237                    .dwattr $C$DW$136, DW_AT_name("r14")
    3238                    .dwattr $C$DW$136, DW_AT_location[DW_OP_reg14]
    3239            
    3240            $C$DW$137       .dwtag  DW_TAG_TI_assign_register
    3241                    .dwattr $C$DW$137, DW_AT_name("r15")
    3242                    .dwattr $C$DW$137, DW_AT_location[DW_OP_reg15]
    3243            
    3244            $C$DW$138       .dwtag  DW_TAG_TI_assign_register
    3245                    .dwattr $C$DW$138, DW_AT_name("CIE_RETA")
    3246                    .dwattr $C$DW$138, DW_AT_location[DW_OP_reg16]
    3247            
    3248                    .dwendtag $C$DW$CU
    3249            

No Assembly Errors, No Assembly Warnings
