MSP430 Assembler PC v21.6.1 Mon Feb 24 13:22:57 2025

Copyright (c) 2003-2018 Texas Instruments Incorporated
cmd.asm                                                              PAGE    1

       1            ;******************************************************************************
       2            ;* MSP430 G3 C/C++ Codegen                                              PC v21.6.1.LTS *
       3            ;* Date/Time created: Mon Feb 24 13:22:57 2025                                *
       4            ;******************************************************************************
       5                    .compiler_opts --abi=eabi --diag_wrap=off --hll_source=on --mem_model:code=large --mem_model:d
       6            
       7            $C$DW$CU        .dwtag  DW_TAG_compile_unit
       8                    .dwattr $C$DW$CU, DW_AT_name("../src/cmd.c")
       9                    .dwattr $C$DW$CU, DW_AT_producer("TI MSP430 G3 C/C++ Codegen PC v21.6.1.LTS Copyright (c) 2003
      10                    .dwattr $C$DW$CU, DW_AT_TI_version(0x01)
      11                    .dwattr $C$DW$CU, DW_AT_comp_dir("C:\Users\kyle_\Documents\CodeComposerStudio\PIXIE_MSP430\Deb
      12                    .global CMD_Command
      13 000000               .sect   ".data:CMD_Command", RW
      14                    .align  2
      15                    .elfsym CMD_Command,SYM_SIZE(14)
      16 000000       CMD_Command:
      17 000000 0000          .bits           0,16
      18                                    ; CMD_Command.id @ 0
      19 000002               .space  12
      20            
      21            $C$DW$1 .dwtag  DW_TAG_variable
      22                    .dwattr $C$DW$1, DW_AT_name("CMD_Command")
      23                    .dwattr $C$DW$1, DW_AT_TI_symbol_name("CMD_Command")
      24                    .dwattr $C$DW$1, DW_AT_location[DW_OP_addr CMD_Command]
      25                    .dwattr $C$DW$1, DW_AT_type(*$C$DW$T$41)
      26                    .dwattr $C$DW$1, DW_AT_external
      27                    .dwattr $C$DW$1, DW_AT_decl_file("../src/cmd.c")
      28                    .dwattr $C$DW$1, DW_AT_decl_line(0x53)
      29                    .dwattr $C$DW$1, DW_AT_decl_column(0x16)
      30            
      31            
      32            $C$DW$2 .dwtag  DW_TAG_subprogram
      33                    .dwattr $C$DW$2, DW_AT_name("strtok")
      34                    .dwattr $C$DW$2, DW_AT_TI_symbol_name("strtok")
      35                    .dwattr $C$DW$2, DW_AT_type(*$C$DW$T$60)
      36                    .dwattr $C$DW$2, DW_AT_declaration
      37                    .dwattr $C$DW$2, DW_AT_external
      38                    .dwattr $C$DW$2, DW_AT_decl_file("C:/ti/ccs1250/ccs/tools/compiler/ti-cgt-msp430_21.6.1.LTS/in
      39                    .dwattr $C$DW$2, DW_AT_decl_line(0x6d)
      40                    .dwattr $C$DW$2, DW_AT_decl_column(0x16)
      41            $C$DW$3 .dwtag  DW_TAG_formal_parameter
      42                    .dwattr $C$DW$3, DW_AT_type(*$C$DW$T$61)
      43            
      44            $C$DW$4 .dwtag  DW_TAG_formal_parameter
      45                    .dwattr $C$DW$4, DW_AT_type(*$C$DW$T$64)
      46            
      47                    .dwendtag $C$DW$2
      48            
      49            
      50            $C$DW$5 .dwtag  DW_TAG_subprogram
      51                    .dwattr $C$DW$5, DW_AT_name("sscanf")
      52                    .dwattr $C$DW$5, DW_AT_TI_symbol_name("sscanf")
      53                    .dwattr $C$DW$5, DW_AT_type(*$C$DW$T$10)
      54                    .dwattr $C$DW$5, DW_AT_declaration
      55                    .dwattr $C$DW$5, DW_AT_external
MSP430 Assembler PC v21.6.1 Mon Feb 24 13:22:57 2025

Copyright (c) 2003-2018 Texas Instruments Incorporated
cmd.asm                                                              PAGE    2

      56                    .dwattr $C$DW$5, DW_AT_decl_file("C:/ti/ccs1250/ccs/tools/compiler/ti-cgt-msp430_21.6.1.LTS/in
      57                    .dwattr $C$DW$5, DW_AT_decl_line(0x10a)
      58                    .dwattr $C$DW$5, DW_AT_decl_column(0x19)
      59            $C$DW$6 .dwtag  DW_TAG_formal_parameter
      60                    .dwattr $C$DW$6, DW_AT_type(*$C$DW$T$64)
      61            
      62            $C$DW$7 .dwtag  DW_TAG_formal_parameter
      63                    .dwattr $C$DW$7, DW_AT_type(*$C$DW$T$64)
      64            
      65            $C$DW$8 .dwtag  DW_TAG_unspecified_parameters
      66            
      67                    .dwendtag $C$DW$5
      68            
      69            ;       C:\ti\ccs1250\ccs\tools\compiler\ti-cgt-msp430_21.6.1.LTS\bin\opt430.exe C:\\Users\\kyle_\\App
      70 000000               .sect   ".text:CMD_CommandToken"
      71                    .align  4
      72                    .clink
      73                    .global CMD_CommandToken
      74            
      75            $C$DW$9 .dwtag  DW_TAG_subprogram
      76                    .dwattr $C$DW$9, DW_AT_name("CMD_CommandToken")
      77                    .dwattr $C$DW$9, DW_AT_low_pc(CMD_CommandToken)
      78                    .dwattr $C$DW$9, DW_AT_high_pc(0x00)
      79                    .dwattr $C$DW$9, DW_AT_TI_symbol_name("CMD_CommandToken")
      80                    .dwattr $C$DW$9, DW_AT_external
      81                    .dwattr $C$DW$9, DW_AT_type(*$C$DW$T$157)
      82                    .dwattr $C$DW$9, DW_AT_TI_begin_file("../src/cmd.c")
      83                    .dwattr $C$DW$9, DW_AT_TI_begin_line(0x254)
      84                    .dwattr $C$DW$9, DW_AT_TI_begin_column(0x0a)
      85                    .dwattr $C$DW$9, DW_AT_decl_file("../src/cmd.c")
      86                    .dwattr $C$DW$9, DW_AT_decl_line(0x254)
      87                    .dwattr $C$DW$9, DW_AT_decl_column(0x0a)
      88                    .dwattr $C$DW$9, DW_AT_TI_max_frame_size(0x08)
      89                    .dwpsn  file "../src/cmd.c",line 597,column 1,is_stmt,address CMD_CommandToken,isa 0
      90            
      91                    .dwfde $C$DW$CIE, CMD_CommandToken
      92            $C$DW$10        .dwtag  DW_TAG_formal_parameter
      93                    .dwattr $C$DW$10, DW_AT_name("tok")
      94                    .dwattr $C$DW$10, DW_AT_TI_symbol_name("tok")
      95                    .dwattr $C$DW$10, DW_AT_type(*$C$DW$T$60)
      96                    .dwattr $C$DW$10, DW_AT_location[DW_OP_reg12]
      97            
      98            
      99            ;*****************************************************************************
     100            ;* FUNCTION NAME: CMD_CommandToken                                           *
     101            ;*                                                                           *
     102            ;*   Regs Modified     : SP,SR,r10,r11,r12,r13,r14,r15                       *
     103            ;*   Regs Used         : SP,SR,r10,r11,r12,r13,r14,r15                       *
     104            ;*   Local Frame Size  : 0 Args + 0 Auto + 4 Save = 4 byte                   *
     105            ;*****************************************************************************
     106            CMD_CommandToken:
     107            ;* --------------------------------------------------------------------------*
     108            ;* r15   assigned to $O$C1
     109            ;* r11   assigned to $O$U4
     110            ;* r10   assigned to $O$L1
MSP430 Assembler PC v21.6.1 Mon Feb 24 13:22:57 2025

Copyright (c) 2003-2018 Texas Instruments Incorporated
cmd.asm                                                              PAGE    3

     111            ;* r15   assigned to c
     112            $C$DW$11        .dwtag  DW_TAG_variable
     113                    .dwattr $C$DW$11, DW_AT_name("c")
     114                    .dwattr $C$DW$11, DW_AT_TI_symbol_name("c")
     115                    .dwattr $C$DW$11, DW_AT_type(*$C$DW$T$10)
     116                    .dwattr $C$DW$11, DW_AT_location[DW_OP_reg15]
     117            
     118            ;* r12   assigned to code
     119            $C$DW$12        .dwtag  DW_TAG_variable
     120                    .dwattr $C$DW$12, DW_AT_name("code")
     121                    .dwattr $C$DW$12, DW_AT_TI_symbol_name("code")
     122                    .dwattr $C$DW$12, DW_AT_type(*$C$DW$T$157)
     123                    .dwattr $C$DW$12, DW_AT_location[DW_OP_reg12 DW_OP_piece 2 DW_OP_reg13 DW_OP_piece 2]
     124            
     125                    .dwcfi  cfa_offset, 4
     126                    .dwcfi  save_reg_to_mem, 16, -4
     127 000000 140A          PUSHM.A   #1,r10                ; [] 
     128                    .dwcfi  save_reg_to_mem, 10, -8
     129                    .dwcfi  cfa_offset, 8
     130 000002 0CCB          MOVA      r12,r11               ; [] |597| 
     131                    .dwpsn  file "../src/cmd.c",line 603,column 17,is_stmt,isa 0
     132 000004 403A          MOV.W     #7,r10                ; [] |603| 
         000006 0007 
     133                    .dwpsn  file "../src/cmd.c",line 601,column 22,is_stmt,isa 0
     134 000008 430C          MOV.W     #0,r12                ; [] |601| 
     135 00000a 430D          MOV.W     #0,r13                ; [] |601| 
     136            ;* --------------------------------------------------------------------------*
     137            ;*   BEGIN LOOP $C$L1
     138            ;*
     139            ;*   Loop source line                : 603
     140            ;*   Loop closing brace source line  : 613
     141            ;*   Known Minimum Trip Count        : 1
     142            ;*   Known Maximum Trip Count        : 7
     143            ;*   Known Max Trip Count Factor     : 1
     144            ;* --------------------------------------------------------------------------*
     145                    .align  4
     146 00000c       $C$L1:    
     147                    .dwpsn  file "../src/cmd.c",line 605,column 9,is_stmt,isa 0
     148 00000c 93CB          TST.B     0(r11)                ; [] |605| 
         00000e 0000 
     149 000010 241C          JEQ       $C$L4                 ; [] |605| 
     150                                                      ; [] |605| 
     151            ;* --------------------------------------------------------------------------*
     152                    .dwpsn  file "../src/cmd.c",line 610,column 9,is_stmt,isa 0
     153 000012 4B6F          MOV.B     @r11,r15              ; [] |610| 
     154 000014 907F          CMP.B     #91,r15               ; [] |610| 
         000016 005B 
     155 000018 2C03          JHS       $C$L2                 ; [] |610| 
     156                                                      ; [] |610| 
     157            ;* --------------------------------------------------------------------------*
     158 00001a 807F          SUB.B     #64,r15               ; [] |610| 
         00001c 0040 
     159 00001e 3C03          JMP       $C$L3                 ; [] |610| 
     160                                                      ; [] |610| 
     161            ;* --------------------------------------------------------------------------*
MSP430 Assembler PC v21.6.1 Mon Feb 24 13:22:57 2025

Copyright (c) 2003-2018 Texas Instruments Incorporated
cmd.asm                                                              PAGE    4

     162                    .align  4
     163 000020       $C$L2:    
     164 000020 4B6F          MOV.B     @r11,r15              ; [] |610| 
     165 000022 807F          SUB.B     #96,r15               ; [] |610| 
         000024 0060 
     166            ;* --------------------------------------------------------------------------*
     167 000026       $C$L3:    
     168                    .dwpsn  file "../src/cmd.c",line 612,column 9,is_stmt,isa 0
     169            $C$DW$13        .dwtag  DW_TAG_TI_branch
     170                    .dwattr $C$DW$13, DW_AT_low_pc(0x00)
     171                    .dwattr $C$DW$13, DW_AT_name("__mspabi_slll_5")
     172                    .dwattr $C$DW$13, DW_AT_TI_call
     173            
     174 000026 13B0!         CALLA     #__mspabi_slll_5      ; [] |612| 
         000028 0000 
     175                                                      ; [] |612| 
     176 00002a F03F          AND.W     #31,r15               ; [] |612| 
         00002c 001F 
     177 00002e B03F          BIT.W     #32768,r15            ; [] |612| 
         000030 8000 
     178 000032 7E0E          SUBC.W    r14,r14               ; [] |612| 
     179 000034 E33E          INV.W     r14                   ; [] |612| 
     180 000036 EC0F          XOR.W     r12,r15               ; [] |612| 
     181 000038 ED0E          XOR.W     r13,r14               ; [] |612| 
     182 00003a 0FCC          MOVA      r15,r12               ; [] |612| 
     183 00003c 0ECD          MOVA      r14,r13               ; [] |612| 
     184                    .dwpsn  file "../src/cmd.c",line 603,column 17,is_stmt,isa 0
     185 00003e 00AB          ADDA      #1,r11                ; [] |603| 
         000040 0001 
     186 000042 831A          SUB.W     #1,r10                ; [] |603| 
     187 000044 23E3          JNE       $C$L1                 ; [] |603| 
     188                                                      ; [] |603| 
     189            ;* --------------------------------------------------------------------------*
     190                    .dwpsn  file "../src/cmd.c",line 615,column 5,is_stmt,isa 0
     191 000046 430C          MOV.W     #0,r12                ; [] |615| 
     192 000048 430D          MOV.W     #0,r13                ; [] |615| 
     193            ;* --------------------------------------------------------------------------*
     194 00004a       $C$L4:    
     195 00004a 160A          POPM.A    #1,r10                ; [] 
     196                    .dwcfi  restore_reg, 10
     197                    .dwcfi  cfa_offset, 4
     198            $C$DW$14        .dwtag  DW_TAG_TI_branch
     199                    .dwattr $C$DW$14, DW_AT_low_pc(0x00)
     200                    .dwattr $C$DW$14, DW_AT_TI_return
     201            
     202 00004c 0110          RETA      ; [] 
     203                    ; [] 
     204                    .dwattr $C$DW$9, DW_AT_TI_end_file("../src/cmd.c")
     205                    .dwattr $C$DW$9, DW_AT_TI_end_line(0x268)
     206                    .dwattr $C$DW$9, DW_AT_TI_end_column(0x01)
     207                    .dwendentry
     208                    .dwendtag $C$DW$9
     209            
     210 000000               .sect   ".text:CMD_ParseCommand"
     211                    .align  4
MSP430 Assembler PC v21.6.1 Mon Feb 24 13:22:57 2025

Copyright (c) 2003-2018 Texas Instruments Incorporated
cmd.asm                                                              PAGE    5

     212                    .clink
     213                    .global CMD_ParseCommand
     214            
     215            $C$DW$15        .dwtag  DW_TAG_subprogram
     216                    .dwattr $C$DW$15, DW_AT_name("CMD_ParseCommand")
     217                    .dwattr $C$DW$15, DW_AT_low_pc(CMD_ParseCommand)
     218                    .dwattr $C$DW$15, DW_AT_high_pc(0x00)
     219                    .dwattr $C$DW$15, DW_AT_TI_symbol_name("CMD_ParseCommand")
     220                    .dwattr $C$DW$15, DW_AT_external
     221                    .dwattr $C$DW$15, DW_AT_type(*$C$DW$T$23)
     222                    .dwattr $C$DW$15, DW_AT_TI_begin_file("../src/cmd.c")
     223                    .dwattr $C$DW$15, DW_AT_TI_begin_line(0x60)
     224                    .dwattr $C$DW$15, DW_AT_TI_begin_column(0x0a)
     225                    .dwattr $C$DW$15, DW_AT_decl_file("../src/cmd.c")
     226                    .dwattr $C$DW$15, DW_AT_decl_line(0x60)
     227                    .dwattr $C$DW$15, DW_AT_decl_column(0x0a)
     228                    .dwattr $C$DW$15, DW_AT_TI_max_frame_size(0x20)
     229                    .dwpsn  file "../src/cmd.c",line 97,column 1,is_stmt,address CMD_ParseCommand,isa 0
     230            
     231                    .dwfde $C$DW$CIE, CMD_ParseCommand
     232            $C$DW$16        .dwtag  DW_TAG_formal_parameter
     233                    .dwattr $C$DW$16, DW_AT_name("str")
     234                    .dwattr $C$DW$16, DW_AT_TI_symbol_name("str")
     235                    .dwattr $C$DW$16, DW_AT_type(*$C$DW$T$60)
     236                    .dwattr $C$DW$16, DW_AT_location[DW_OP_reg12]
     237            
     238            
     239            ;*****************************************************************************
     240            ;* FUNCTION NAME: CMD_ParseCommand                                           *
     241            ;*                                                                           *
     242            ;*   Regs Modified     : SP,SR,r11,r12,r13,r14,r15                           *
     243            ;*   Regs Used         : SP,SR,r11,r12,r13,r14,r15                           *
     244            ;*   Local Frame Size  : 28 Args + 0 Auto + 0 Save = 28 byte                 *
     245            ;*****************************************************************************
     246            CMD_ParseCommand:
     247            ;* --------------------------------------------------------------------------*
     248            ;* r15   assigned to $O$C2
     249            ;* r15   assigned to $O$C3
     250            ;* r15   assigned to $O$C4
     251            ;* r15   assigned to $O$C5
     252            ;* r15   assigned to $O$C6
     253            ;* r12   assigned to $O$C7
     254            ;* r12   assigned to token
     255            $C$DW$17        .dwtag  DW_TAG_variable
     256                    .dwattr $C$DW$17, DW_AT_name("token")
     257                    .dwattr $C$DW$17, DW_AT_TI_symbol_name("token")
     258                    .dwattr $C$DW$17, DW_AT_type(*$C$DW$T$60)
     259                    .dwattr $C$DW$17, DW_AT_location[DW_OP_reg12]
     260            
     261            ;* r12   assigned to token
     262            $C$DW$18        .dwtag  DW_TAG_variable
     263                    .dwattr $C$DW$18, DW_AT_name("token")
     264                    .dwattr $C$DW$18, DW_AT_TI_symbol_name("token")
     265                    .dwattr $C$DW$18, DW_AT_type(*$C$DW$T$60)
     266                    .dwattr $C$DW$18, DW_AT_location[DW_OP_reg12]
MSP430 Assembler PC v21.6.1 Mon Feb 24 13:22:57 2025

Copyright (c) 2003-2018 Texas Instruments Incorporated
cmd.asm                                                              PAGE    6

     267            
     268            ;* r12   assigned to token
     269            $C$DW$19        .dwtag  DW_TAG_variable
     270                    .dwattr $C$DW$19, DW_AT_name("token")
     271                    .dwattr $C$DW$19, DW_AT_TI_symbol_name("token")
     272                    .dwattr $C$DW$19, DW_AT_type(*$C$DW$T$60)
     273                    .dwattr $C$DW$19, DW_AT_location[DW_OP_reg12]
     274            
     275            ;* r12   assigned to token
     276            $C$DW$20        .dwtag  DW_TAG_variable
     277                    .dwattr $C$DW$20, DW_AT_name("token")
     278                    .dwattr $C$DW$20, DW_AT_TI_symbol_name("token")
     279                    .dwattr $C$DW$20, DW_AT_type(*$C$DW$T$60)
     280                    .dwattr $C$DW$20, DW_AT_location[DW_OP_reg12]
     281            
     282            ;* r12   assigned to token
     283            $C$DW$21        .dwtag  DW_TAG_variable
     284                    .dwattr $C$DW$21, DW_AT_name("token")
     285                    .dwattr $C$DW$21, DW_AT_TI_symbol_name("token")
     286                    .dwattr $C$DW$21, DW_AT_type(*$C$DW$T$60)
     287                    .dwattr $C$DW$21, DW_AT_location[DW_OP_reg12]
     288            
     289            ;* r12   assigned to token
     290            $C$DW$22        .dwtag  DW_TAG_variable
     291                    .dwattr $C$DW$22, DW_AT_name("token")
     292                    .dwattr $C$DW$22, DW_AT_TI_symbol_name("token")
     293                    .dwattr $C$DW$22, DW_AT_type(*$C$DW$T$60)
     294                    .dwattr $C$DW$22, DW_AT_location[DW_OP_reg12]
     295            
     296            ;* r12   assigned to token
     297            $C$DW$23        .dwtag  DW_TAG_variable
     298                    .dwattr $C$DW$23, DW_AT_name("token")
     299                    .dwattr $C$DW$23, DW_AT_TI_symbol_name("token")
     300                    .dwattr $C$DW$23, DW_AT_type(*$C$DW$T$60)
     301                    .dwattr $C$DW$23, DW_AT_location[DW_OP_reg12]
     302            
     303            ;* r12   assigned to token
     304            $C$DW$24        .dwtag  DW_TAG_variable
     305                    .dwattr $C$DW$24, DW_AT_name("token")
     306                    .dwattr $C$DW$24, DW_AT_TI_symbol_name("token")
     307                    .dwattr $C$DW$24, DW_AT_type(*$C$DW$T$60)
     308                    .dwattr $C$DW$24, DW_AT_location[DW_OP_reg12]
     309            
     310            ;* r12   assigned to token
     311            $C$DW$25        .dwtag  DW_TAG_variable
     312                    .dwattr $C$DW$25, DW_AT_name("token")
     313                    .dwattr $C$DW$25, DW_AT_TI_symbol_name("token")
     314                    .dwattr $C$DW$25, DW_AT_type(*$C$DW$T$60)
     315                    .dwattr $C$DW$25, DW_AT_location[DW_OP_reg12]
     316            
     317            ;* r12   assigned to token
     318            $C$DW$26        .dwtag  DW_TAG_variable
     319                    .dwattr $C$DW$26, DW_AT_name("token")
     320                    .dwattr $C$DW$26, DW_AT_TI_symbol_name("token")
     321                    .dwattr $C$DW$26, DW_AT_type(*$C$DW$T$60)
MSP430 Assembler PC v21.6.1 Mon Feb 24 13:22:57 2025

Copyright (c) 2003-2018 Texas Instruments Incorporated
cmd.asm                                                              PAGE    7

     322                    .dwattr $C$DW$26, DW_AT_location[DW_OP_reg12]
     323            
     324            ;* r12   assigned to token
     325            $C$DW$27        .dwtag  DW_TAG_variable
     326                    .dwattr $C$DW$27, DW_AT_name("token")
     327                    .dwattr $C$DW$27, DW_AT_TI_symbol_name("token")
     328                    .dwattr $C$DW$27, DW_AT_type(*$C$DW$T$60)
     329                    .dwattr $C$DW$27, DW_AT_location[DW_OP_reg12]
     330            
     331            ;* r12   assigned to token
     332            $C$DW$28        .dwtag  DW_TAG_variable
     333                    .dwattr $C$DW$28, DW_AT_name("token")
     334                    .dwattr $C$DW$28, DW_AT_TI_symbol_name("token")
     335                    .dwattr $C$DW$28, DW_AT_type(*$C$DW$T$60)
     336                    .dwattr $C$DW$28, DW_AT_location[DW_OP_reg12]
     337            
     338            ;* r12   assigned to token
     339            $C$DW$29        .dwtag  DW_TAG_variable
     340                    .dwattr $C$DW$29, DW_AT_name("token")
     341                    .dwattr $C$DW$29, DW_AT_TI_symbol_name("token")
     342                    .dwattr $C$DW$29, DW_AT_type(*$C$DW$T$60)
     343                    .dwattr $C$DW$29, DW_AT_location[DW_OP_reg12]
     344            
     345            ;* r12   assigned to token
     346            $C$DW$30        .dwtag  DW_TAG_variable
     347                    .dwattr $C$DW$30, DW_AT_name("token")
     348                    .dwattr $C$DW$30, DW_AT_TI_symbol_name("token")
     349                    .dwattr $C$DW$30, DW_AT_type(*$C$DW$T$60)
     350                    .dwattr $C$DW$30, DW_AT_location[DW_OP_reg12]
     351            
     352            ;* r12   assigned to token
     353            $C$DW$31        .dwtag  DW_TAG_variable
     354                    .dwattr $C$DW$31, DW_AT_name("token")
     355                    .dwattr $C$DW$31, DW_AT_TI_symbol_name("token")
     356                    .dwattr $C$DW$31, DW_AT_type(*$C$DW$T$60)
     357                    .dwattr $C$DW$31, DW_AT_location[DW_OP_reg12]
     358            
     359            ;* r12   assigned to token
     360            $C$DW$32        .dwtag  DW_TAG_variable
     361                    .dwattr $C$DW$32, DW_AT_name("token")
     362                    .dwattr $C$DW$32, DW_AT_TI_symbol_name("token")
     363                    .dwattr $C$DW$32, DW_AT_type(*$C$DW$T$60)
     364                    .dwattr $C$DW$32, DW_AT_location[DW_OP_reg12]
     365            
     366            ;* r12   assigned to token
     367            $C$DW$33        .dwtag  DW_TAG_variable
     368                    .dwattr $C$DW$33, DW_AT_name("token")
     369                    .dwattr $C$DW$33, DW_AT_TI_symbol_name("token")
     370                    .dwattr $C$DW$33, DW_AT_type(*$C$DW$T$60)
     371                    .dwattr $C$DW$33, DW_AT_location[DW_OP_reg12]
     372            
     373            ;* r11   assigned to token
     374            $C$DW$34        .dwtag  DW_TAG_variable
     375                    .dwattr $C$DW$34, DW_AT_name("token")
     376                    .dwattr $C$DW$34, DW_AT_TI_symbol_name("token")
MSP430 Assembler PC v21.6.1 Mon Feb 24 13:22:57 2025

Copyright (c) 2003-2018 Texas Instruments Incorporated
cmd.asm                                                              PAGE    8

     377                    .dwattr $C$DW$34, DW_AT_type(*$C$DW$T$60)
     378                    .dwattr $C$DW$34, DW_AT_location[DW_OP_reg11]
     379            
     380            ;* r12   assigned to code
     381            $C$DW$35        .dwtag  DW_TAG_variable
     382                    .dwattr $C$DW$35, DW_AT_name("code")
     383                    .dwattr $C$DW$35, DW_AT_TI_symbol_name("code")
     384                    .dwattr $C$DW$35, DW_AT_type(*$C$DW$T$157)
     385                    .dwattr $C$DW$35, DW_AT_location[DW_OP_reg12 DW_OP_piece 2 DW_OP_reg13 DW_OP_piece 2]
     386            
     387                    .dwcfi  cfa_offset, 4
     388                    .dwcfi  save_reg_to_mem, 16, -4
     389 000000 00B1          SUBA      #28,SP                ; [] 
         000002 001C 
     390                    .dwcfi  cfa_offset, 32
     391                    .dwpsn  file "../src/cmd.c",line 104,column 9,is_stmt,isa 0
     392 000004 008D!         MOVX.A    #$C$FSL1+0,r13        ; [] |104| 
         000006 0000 
     393            $C$DW$36        .dwtag  DW_TAG_TI_branch
     394                    .dwattr $C$DW$36, DW_AT_low_pc(0x00)
     395                    .dwattr $C$DW$36, DW_AT_name("strtok")
     396                    .dwattr $C$DW$36, DW_AT_TI_call
     397            
     398 000008 13B0!         CALLA     #strtok               ; [] |104| 
         00000a 0000 
     399                                                      ; [] |104| 
     400 00000c 0CCB          MOVA      r12,r11               ; [] |104| 
     401 00000e 03DB          TSTA      r11                   ; [] |104| 
     402 000010 2523          JEQ       $C$L35                ; [] |104| 
     403                                                      ; [] |104| 
     404            ;* --------------------------------------------------------------------------*
     405                    .dwpsn  file "../src/cmd.c",line 605,column 9,is_stmt,isa 0
     406 000012 4B6C          MOV.B     @r11,r12              ; [] |605| 
     407 000014 934C          TST.B     r12                   ; [] |605| 
     408 000016 2520          JEQ       $C$L35                ; [] |605| 
     409                                                      ; [] |605| 
     410            ;* --------------------------------------------------------------------------*
     411                    .dwpsn  file "../src/cmd.c",line 611,column 9,is_stmt,isa 0
     412 000018 907C          CMP.B     #91,r12               ; [] |611| 
         00001a 005B 
     413 00001c 2805          JLO       $C$L5                 ; [] |611| 
     414                                                      ; [] |611| 
     415            ;* --------------------------------------------------------------------------*
     416 00001e 4C4C          MOV.B     r12,r12               ; [] |611| 
     417 000020 803C          SUB.W     #96,r12               ; [] |611| 
         000022 0060 
     418 000024 3C04          JMP       $C$L6                 ; [] |611| 
     419                                                      ; [] |611| 
     420            ;* --------------------------------------------------------------------------*
     421                    .align  4
     422 000028       $C$L5:    
     423 000028 4C4C          MOV.B     r12,r12               ; [] |611| 
     424 00002a 803C          SUB.W     #64,r12               ; [] |611| 
         00002c 0040 
     425            ;* --------------------------------------------------------------------------*
MSP430 Assembler PC v21.6.1 Mon Feb 24 13:22:57 2025

Copyright (c) 2003-2018 Texas Instruments Incorporated
cmd.asm                                                              PAGE    9

     426 00002e       $C$L6:    
     427 00002e F03C          AND.W     #31,r12               ; [] |611| 
         000030 001F 
     428 000032 B03C          BIT.W     #32768,r12            ; [] |611| 
         000034 8000 
     429 000036 7D0D          SUBC.W    r13,r13               ; [] |611| 
     430 000038 E33D          INV.W     r13                   ; [] |611| 
     431                    .dwpsn  file "../src/cmd.c",line 605,column 9,is_stmt,isa 0
     432 00003a 4B5F          MOV.B     1(r11),r15            ; [] |605| 
         00003c 0001 
     433 00003e 934F          TST.B     r15                   ; [] |605| 
     434 000040 248B          JEQ       $C$L17                ; [] |605| 
     435                                                      ; [] |605| 
     436            ;* --------------------------------------------------------------------------*
     437                    .dwpsn  file "../src/cmd.c",line 611,column 9,is_stmt,isa 0
     438            $C$DW$37        .dwtag  DW_TAG_TI_branch
     439                    .dwattr $C$DW$37, DW_AT_low_pc(0x00)
     440                    .dwattr $C$DW$37, DW_AT_name("__mspabi_slll_5")
     441                    .dwattr $C$DW$37, DW_AT_TI_call
     442            
     443 000042 13B0!         CALLA     #__mspabi_slll_5      ; [] |611| 
         000044 0000 
     444                                                      ; [] |611| 
     445 000046 0CCE          MOVA      r12,r14               ; [] |611| 
     446 000048 907F          CMP.B     #91,r15               ; [] |611| 
         00004a 005B 
     447 00004c 2805          JLO       $C$L7                 ; [] |611| 
     448                                                      ; [] |611| 
     449            ;* --------------------------------------------------------------------------*
     450 00004e 4F4F          MOV.B     r15,r15               ; [] |611| 
     451 000050 803F          SUB.W     #96,r15               ; [] |611| 
         000052 0060 
     452 000054 0FCC          MOVA      r15,r12               ; [] |611| 
     453 000056 3C04          JMP       $C$L8                 ; [] |611| 
     454                                                      ; [] |611| 
     455            ;* --------------------------------------------------------------------------*
     456                    .align  4
     457 000058       $C$L7:    
     458 000058 4F4F          MOV.B     r15,r15               ; [] |611| 
     459 00005a 803F          SUB.W     #64,r15               ; [] |611| 
         00005c 0040 
     460 00005e 0FCC          MOVA      r15,r12               ; [] |611| 
     461            ;* --------------------------------------------------------------------------*
     462 000060       $C$L8:    
     463 000060 F03C          AND.W     #31,r12               ; [] |611| 
         000062 001F 
     464 000064 B03C          BIT.W     #32768,r12            ; [] |611| 
         000066 8000 
     465 000068 7F0F          SUBC.W    r15,r15               ; [] |611| 
     466 00006a E33F          INV.W     r15                   ; [] |611| 
     467 00006c EE0C          XOR.W     r14,r12               ; [] |611| 
     468 00006e ED0F          XOR.W     r13,r15               ; [] |611| 
     469 000070 0FCD          MOVA      r15,r13               ; [] |611| 
     470                    .dwpsn  file "../src/cmd.c",line 605,column 9,is_stmt,isa 0
     471 000072 4B5F          MOV.B     2(r11),r15            ; [] |605| 
MSP430 Assembler PC v21.6.1 Mon Feb 24 13:22:57 2025

Copyright (c) 2003-2018 Texas Instruments Incorporated
cmd.asm                                                              PAGE   10

         000074 0002 
     472 000076 934F          TST.B     r15                   ; [] |605| 
     473 000078 246F          JEQ       $C$L17                ; [] |605| 
     474                                                      ; [] |605| 
     475            ;* --------------------------------------------------------------------------*
     476                    .dwpsn  file "../src/cmd.c",line 611,column 9,is_stmt,isa 0
     477            $C$DW$38        .dwtag  DW_TAG_TI_branch
     478                    .dwattr $C$DW$38, DW_AT_low_pc(0x00)
     479                    .dwattr $C$DW$38, DW_AT_name("__mspabi_slll_5")
     480                    .dwattr $C$DW$38, DW_AT_TI_call
     481            
     482 00007a 13B0!         CALLA     #__mspabi_slll_5      ; [] |611| 
         00007c 0000 
     483                                                      ; [] |611| 
     484 00007e 0CCE          MOVA      r12,r14               ; [] |611| 
     485 000080 907F          CMP.B     #91,r15               ; [] |611| 
         000082 005B 
     486 000084 2805          JLO       $C$L9                 ; [] |611| 
     487                                                      ; [] |611| 
     488            ;* --------------------------------------------------------------------------*
     489 000086 4F4F          MOV.B     r15,r15               ; [] |611| 
     490 000088 803F          SUB.W     #96,r15               ; [] |611| 
         00008a 0060 
     491 00008c 0FCC          MOVA      r15,r12               ; [] |611| 
     492 00008e 3C04          JMP       $C$L10                ; [] |611| 
     493                                                      ; [] |611| 
     494            ;* --------------------------------------------------------------------------*
     495                    .align  4
     496 000090       $C$L9:    
     497 000090 4F4F          MOV.B     r15,r15               ; [] |611| 
     498 000092 803F          SUB.W     #64,r15               ; [] |611| 
         000094 0040 
     499 000096 0FCC          MOVA      r15,r12               ; [] |611| 
     500            ;* --------------------------------------------------------------------------*
     501 000098       $C$L10:    
     502 000098 F03C          AND.W     #31,r12               ; [] |611| 
         00009a 001F 
     503 00009c B03C          BIT.W     #32768,r12            ; [] |611| 
         00009e 8000 
     504 0000a0 7F0F          SUBC.W    r15,r15               ; [] |611| 
     505 0000a2 E33F          INV.W     r15                   ; [] |611| 
     506 0000a4 EE0C          XOR.W     r14,r12               ; [] |611| 
     507 0000a6 ED0F          XOR.W     r13,r15               ; [] |611| 
     508 0000a8 0FCD          MOVA      r15,r13               ; [] |611| 
     509                    .dwpsn  file "../src/cmd.c",line 605,column 9,is_stmt,isa 0
     510 0000aa 4B5F          MOV.B     3(r11),r15            ; [] |605| 
         0000ac 0003 
     511 0000ae 934F          TST.B     r15                   ; [] |605| 
     512 0000b0 2453          JEQ       $C$L17                ; [] |605| 
     513                                                      ; [] |605| 
     514            ;* --------------------------------------------------------------------------*
     515                    .dwpsn  file "../src/cmd.c",line 611,column 9,is_stmt,isa 0
     516            $C$DW$39        .dwtag  DW_TAG_TI_branch
     517                    .dwattr $C$DW$39, DW_AT_low_pc(0x00)
     518                    .dwattr $C$DW$39, DW_AT_name("__mspabi_slll_5")
MSP430 Assembler PC v21.6.1 Mon Feb 24 13:22:57 2025

Copyright (c) 2003-2018 Texas Instruments Incorporated
cmd.asm                                                              PAGE   11

     519                    .dwattr $C$DW$39, DW_AT_TI_call
     520            
     521 0000b2 13B0!         CALLA     #__mspabi_slll_5      ; [] |611| 
         0000b4 0000 
     522                                                      ; [] |611| 
     523 0000b6 0CCE          MOVA      r12,r14               ; [] |611| 
     524 0000b8 907F          CMP.B     #91,r15               ; [] |611| 
         0000ba 005B 
     525 0000bc 2805          JLO       $C$L11                ; [] |611| 
     526                                                      ; [] |611| 
     527            ;* --------------------------------------------------------------------------*
     528 0000be 4F4F          MOV.B     r15,r15               ; [] |611| 
     529 0000c0 803F          SUB.W     #96,r15               ; [] |611| 
         0000c2 0060 
     530 0000c4 0FCC          MOVA      r15,r12               ; [] |611| 
     531 0000c6 3C04          JMP       $C$L12                ; [] |611| 
     532                                                      ; [] |611| 
     533            ;* --------------------------------------------------------------------------*
     534                    .align  4
     535 0000c8       $C$L11:    
     536 0000c8 4F4F          MOV.B     r15,r15               ; [] |611| 
     537 0000ca 803F          SUB.W     #64,r15               ; [] |611| 
         0000cc 0040 
     538 0000ce 0FCC          MOVA      r15,r12               ; [] |611| 
     539            ;* --------------------------------------------------------------------------*
     540 0000d0       $C$L12:    
     541 0000d0 F03C          AND.W     #31,r12               ; [] |611| 
         0000d2 001F 
     542 0000d4 B03C          BIT.W     #32768,r12            ; [] |611| 
         0000d6 8000 
     543 0000d8 7F0F          SUBC.W    r15,r15               ; [] |611| 
     544 0000da E33F          INV.W     r15                   ; [] |611| 
     545 0000dc EE0C          XOR.W     r14,r12               ; [] |611| 
     546 0000de ED0F          XOR.W     r13,r15               ; [] |611| 
     547 0000e0 0FCD          MOVA      r15,r13               ; [] |611| 
     548                    .dwpsn  file "../src/cmd.c",line 605,column 9,is_stmt,isa 0
     549 0000e2 4B5F          MOV.B     4(r11),r15            ; [] |605| 
         0000e4 0004 
     550 0000e6 934F          TST.B     r15                   ; [] |605| 
     551 0000e8 2437          JEQ       $C$L17                ; [] |605| 
     552                                                      ; [] |605| 
     553            ;* --------------------------------------------------------------------------*
     554                    .dwpsn  file "../src/cmd.c",line 611,column 9,is_stmt,isa 0
     555            $C$DW$40        .dwtag  DW_TAG_TI_branch
     556                    .dwattr $C$DW$40, DW_AT_low_pc(0x00)
     557                    .dwattr $C$DW$40, DW_AT_name("__mspabi_slll_5")
     558                    .dwattr $C$DW$40, DW_AT_TI_call
     559            
     560 0000ea 13B0!         CALLA     #__mspabi_slll_5      ; [] |611| 
         0000ec 0000 
     561                                                      ; [] |611| 
     562 0000ee 0CCE          MOVA      r12,r14               ; [] |611| 
     563 0000f0 907F          CMP.B     #91,r15               ; [] |611| 
         0000f2 005B 
     564 0000f4 2805          JLO       $C$L13                ; [] |611| 
MSP430 Assembler PC v21.6.1 Mon Feb 24 13:22:57 2025

Copyright (c) 2003-2018 Texas Instruments Incorporated
cmd.asm                                                              PAGE   12

     565                                                      ; [] |611| 
     566            ;* --------------------------------------------------------------------------*
     567 0000f6 4F4F          MOV.B     r15,r15               ; [] |611| 
     568 0000f8 803F          SUB.W     #96,r15               ; [] |611| 
         0000fa 0060 
     569 0000fc 0FCC          MOVA      r15,r12               ; [] |611| 
     570 0000fe 3C04          JMP       $C$L14                ; [] |611| 
     571                                                      ; [] |611| 
     572            ;* --------------------------------------------------------------------------*
     573                    .align  4
     574 000100       $C$L13:    
     575 000100 4F4F          MOV.B     r15,r15               ; [] |611| 
     576 000102 803F          SUB.W     #64,r15               ; [] |611| 
         000104 0040 
     577 000106 0FCC          MOVA      r15,r12               ; [] |611| 
     578            ;* --------------------------------------------------------------------------*
     579 000108       $C$L14:    
     580 000108 F03C          AND.W     #31,r12               ; [] |611| 
         00010a 001F 
     581 00010c B03C          BIT.W     #32768,r12            ; [] |611| 
         00010e 8000 
     582 000110 7F0F          SUBC.W    r15,r15               ; [] |611| 
     583 000112 E33F          INV.W     r15                   ; [] |611| 
     584 000114 EE0C          XOR.W     r14,r12               ; [] |611| 
     585 000116 ED0F          XOR.W     r13,r15               ; [] |611| 
     586 000118 0FCD          MOVA      r15,r13               ; [] |611| 
     587                    .dwpsn  file "../src/cmd.c",line 605,column 9,is_stmt,isa 0
     588 00011a 4B5F          MOV.B     5(r11),r15            ; [] |605| 
         00011c 0005 
     589 00011e 934F          TST.B     r15                   ; [] |605| 
     590 000120 241B          JEQ       $C$L17                ; [] |605| 
     591                                                      ; [] |605| 
     592            ;* --------------------------------------------------------------------------*
     593                    .dwpsn  file "../src/cmd.c",line 611,column 9,is_stmt,isa 0
     594            $C$DW$41        .dwtag  DW_TAG_TI_branch
     595                    .dwattr $C$DW$41, DW_AT_low_pc(0x00)
     596                    .dwattr $C$DW$41, DW_AT_name("__mspabi_slll_5")
     597                    .dwattr $C$DW$41, DW_AT_TI_call
     598            
     599 000122 13B0!         CALLA     #__mspabi_slll_5      ; [] |611| 
         000124 0000 
     600                                                      ; [] |611| 
     601 000126 0CCE          MOVA      r12,r14               ; [] |611| 
     602 000128 907F          CMP.B     #91,r15               ; [] |611| 
         00012a 005B 
     603 00012c 2805          JLO       $C$L15                ; [] |611| 
     604                                                      ; [] |611| 
     605            ;* --------------------------------------------------------------------------*
     606 00012e 4F4F          MOV.B     r15,r15               ; [] |611| 
     607 000130 803F          SUB.W     #96,r15               ; [] |611| 
         000132 0060 
     608 000134 0FCC          MOVA      r15,r12               ; [] |611| 
     609 000136 3C04          JMP       $C$L16                ; [] |611| 
     610                                                      ; [] |611| 
     611            ;* --------------------------------------------------------------------------*
MSP430 Assembler PC v21.6.1 Mon Feb 24 13:22:57 2025

Copyright (c) 2003-2018 Texas Instruments Incorporated
cmd.asm                                                              PAGE   13

     612                    .align  4
     613 000138       $C$L15:    
     614 000138 4F4F          MOV.B     r15,r15               ; [] |611| 
     615 00013a 803F          SUB.W     #64,r15               ; [] |611| 
         00013c 0040 
     616 00013e 0FCC          MOVA      r15,r12               ; [] |611| 
     617            ;* --------------------------------------------------------------------------*
     618 000140       $C$L16:    
     619 000140 F03C          AND.W     #31,r12               ; [] |611| 
         000142 001F 
     620 000144 B03C          BIT.W     #32768,r12            ; [] |611| 
         000146 8000 
     621 000148 7F0F          SUBC.W    r15,r15               ; [] |611| 
     622 00014a E33F          INV.W     r15                   ; [] |611| 
     623 00014c EE0C          XOR.W     r14,r12               ; [] |611| 
     624 00014e ED0F          XOR.W     r13,r15               ; [] |611| 
     625 000150 0FCD          MOVA      r15,r13               ; [] |611| 
     626                    .dwpsn  file "../src/cmd.c",line 605,column 9,is_stmt,isa 0
     627 000152 93CB          TST.B     6(r11)                ; [] |605| 
         000154 0006 
     628 000156 2080          JNE       $C$L35                ; [] |605| 
     629                                                      ; [] |605| 
     630            ;* --------------------------------------------------------------------------*
     631 000158       $C$L17:    
     632                    .dwpsn  file "../src/cmd.c",line 104,column 9,is_stmt,isa 0
     633 000158 903D          CMP.W     #307,r13              ; [] |104| 
         00015a 0133 
     634 00015c 3804          JL        $C$L18                ; [] |104| 
     635                                                      ; [] |104| 
     636            ;* --------------------------------------------------------------------------*
     637 00015e 2044          JNE       $C$L27                ; [] |104| 
     638                                                      ; [] |104| 
     639            ;* --------------------------------------------------------------------------*
     640 000160 903C          CMP.W     #34095,r12            ; [] |104| 
         000162 852F 
     641 000164 2C41          JHS       $C$L27                ; [] |104| 
     642                                                      ; [] |104| 
     643            ;* --------------------------------------------------------------------------*
     644 000166       $C$L18:    
     645 000166 903D          CMP.W     #307,r13              ; [] |104| 
         000168 0133 
     646 00016a 2003          JNE       $C$L19                ; [] |104| 
     647                                                      ; [] |104| 
     648            ;* --------------------------------------------------------------------------*
     649 00016c 903C          CMP.W     #34094,r12            ; [] |104| 
         00016e 852E 
     650 000170 256B          JEQ       $C$L43                ; [] |104| 
     651                                                      ; [] |104| 
     652            ;* --------------------------------------------------------------------------*
     653 000172       $C$L19:    
     654 000172 803C          SUB.W     #19118,r12            ; [] |104| 
         000174 4AAE 
     655 000176 730D          SUBC.W    #0,r13                ; [] |104| 
     656 000178 2002          JNE       $C$L20                ; [] |104| 
     657                                                      ; [] |104| 
MSP430 Assembler PC v21.6.1 Mon Feb 24 13:22:57 2025

Copyright (c) 2003-2018 Texas Instruments Incorporated
cmd.asm                                                              PAGE   14

     658            ;* --------------------------------------------------------------------------*
     659 00017a 930C          TST.W     r12                   ; [] |104| 
     660 00017c 25D9          JEQ       $C$L49                ; [] |104| 
     661                                                      ; [] |104| 
     662            ;* --------------------------------------------------------------------------*
     663 00017e       $C$L20:    
     664 00017e 803C          SUB.W     #47846,r12            ; [] |104| 
         000180 BAE6 
     665 000182 703D          SUBC.W    #3,r13                ; [] |104| 
         000184 0003 
     666 000186 2004          JNE       $C$L21                ; [] |104| 
     667                                                      ; [] |104| 
     668            ;* --------------------------------------------------------------------------*
     669 000188 930C          TST.W     r12                   ; [] |104| 
     670 00018a 2002          JEQ       $C$L55                ; [] |104| 
         00018c 0080!
         00018e 0000 
     671                                                      ; [] |104| 
     672            ;* --------------------------------------------------------------------------*
     673 000190       $C$L21:    
     674 000190 803C          SUB.W     #4092,r12             ; [] |104| 
         000192 0FFC 
     675 000194 730D          SUBC.W    #0,r13                ; [] |104| 
     676 000196 2002          JNE       $C$L22                ; [] |104| 
     677                                                      ; [] |104| 
     678            ;* --------------------------------------------------------------------------*
     679 000198 930C          TST.W     r12                   ; [] |104| 
     680 00019a 25AE          JEQ       $C$L46                ; [] |104| 
     681                                                      ; [] |104| 
     682            ;* --------------------------------------------------------------------------*
     683 00019c       $C$L22:    
     684 00019c 803C          SUB.W     #28981,r12            ; [] |104| 
         00019e 7135 
     685 0001a0 703D          SUBC.W    #5,r13                ; [] |104| 
         0001a2 0005 
     686 0001a4 2004          JNE       $C$L23                ; [] |104| 
     687                                                      ; [] |104| 
     688            ;* --------------------------------------------------------------------------*
     689 0001a6 930C          TST.W     r12                   ; [] |104| 
     690 0001a8 2002          JEQ       $C$L56                ; [] |104| 
         0001aa 0080!
         0001ac 0000 
     691                                                      ; [] |104| 
     692            ;* --------------------------------------------------------------------------*
     693 0001ae       $C$L23:    
     694 0001ae 803C          SUB.W     #19243,r12            ; [] |104| 
         0001b0 4B2B 
     695 0001b2 730D          SUBC.W    #0,r13                ; [] |104| 
     696 0001b4 2002          JNE       $C$L24                ; [] |104| 
     697                                                      ; [] |104| 
     698            ;* --------------------------------------------------------------------------*
     699 0001b6 930C          TST.W     r12                   ; [] |104| 
     700 0001b8 25F9          JEQ       $C$L55                ; [] |104| 
     701                                                      ; [] |104| 
     702            ;* --------------------------------------------------------------------------*
MSP430 Assembler PC v21.6.1 Mon Feb 24 13:22:57 2025

Copyright (c) 2003-2018 Texas Instruments Incorporated
cmd.asm                                                              PAGE   15

     703 0001ba       $C$L24:    
     704 0001ba 803C          SUB.W     #27636,r12            ; [] |104| 
         0001bc 6BF4 
     705 0001be 703D          SUBC.W    #92,r13               ; [] |104| 
         0001c0 005C 
     706 0001c2 2002          JNE       $C$L25                ; [] |104| 
     707                                                      ; [] |104| 
     708            ;* --------------------------------------------------------------------------*
     709 0001c4 930C          TST.W     r12                   ; [] |104| 
     710 0001c6 2580          JEQ       $C$L45                ; [] |104| 
     711                                                      ; [] |104| 
     712            ;* --------------------------------------------------------------------------*
     713 0001c8       $C$L25:    
     714 0001c8 803C          SUB.W     #18250,r12            ; [] |104| 
         0001ca 474A 
     715 0001cc 703D          SUBC.W    #13,r13               ; [] |104| 
         0001ce 000D 
     716 0001d0 2002          JNE       $C$L26                ; [] |104| 
     717                                                      ; [] |104| 
     718            ;* --------------------------------------------------------------------------*
     719 0001d2 930C          TST.W     r12                   ; [] |104| 
     720 0001d4 2563          JEQ       $C$L44                ; [] |104| 
     721                                                      ; [] |104| 
     722            ;* --------------------------------------------------------------------------*
     723 0001d6       $C$L26:    
     724 0001d6 803C          SUB.W     #18310,r12            ; [] |104| 
         0001d8 4786 
     725 0001da 703D          SUBC.W    #175,r13              ; [] |104| 
         0001dc 00AF 
     726 0001de 203C          JNE       $C$L35                ; [] |104| 
     727                                                      ; [] |104| 
     728            ;* --------------------------------------------------------------------------*
     729 0001e0 930C          TST.W     r12                   ; [] |104| 
     730 0001e2 25E0          JEQ       $C$L54                ; [] |104| 
     731                                                      ; [] |104| 
     732            ;* --------------------------------------------------------------------------*
     733 0001e4 3C39          JMP       $C$L35                ; [] |104| 
     734                                                      ; [] |104| 
     735            ;* --------------------------------------------------------------------------*
     736                    .align  4
     737 0001e8       $C$L27:    
     738 0001e8 803C          SUB.W     #15846,r12            ; [] |104| 
         0001ea 3DE6 
     739 0001ec 703D          SUBC.W    #312,r13              ; [] |104| 
         0001ee 0138 
     740 0001f0 2002          JNE       $C$L28                ; [] |104| 
     741                                                      ; [] |104| 
     742            ;* --------------------------------------------------------------------------*
     743 0001f2 930C          TST.W     r12                   ; [] |104| 
     744 0001f4 24FF          JEQ       $C$L42                ; [] |104| 
     745                                                      ; [] |104| 
     746            ;* --------------------------------------------------------------------------*
     747 0001f6       $C$L28:    
     748 0001f6 803C          SUB.W     #4808,r12             ; [] |104| 
         0001f8 12C8 
MSP430 Assembler PC v21.6.1 Mon Feb 24 13:22:57 2025

Copyright (c) 2003-2018 Texas Instruments Incorporated
cmd.asm                                                              PAGE   16

     749 0001fa 703D          SUBC.W    #3298,r13             ; [] |104| 
         0001fc 0CE2 
     750 0001fe 2002          JNE       $C$L29                ; [] |104| 
     751                                                      ; [] |104| 
     752            ;* --------------------------------------------------------------------------*
     753 000200 930C          TST.W     r12                   ; [] |104| 
     754 000202 24E0          JEQ       $C$L41                ; [] |104| 
     755                                                      ; [] |104| 
     756            ;* --------------------------------------------------------------------------*
     757 000204       $C$L29:    
     758 000204 803C          SUB.W     #60349,r12            ; [] |104| 
         000206 EBBD 
     759 000208 703D          SUBC.W    #27,r13               ; [] |104| 
         00020a 001B 
     760 00020c 2002          JNE       $C$L30                ; [] |104| 
     761                                                      ; [] |104| 
     762            ;* --------------------------------------------------------------------------*
     763 00020e 930C          TST.W     r12                   ; [] |104| 
     764 000210 25C5          JEQ       $C$L53                ; [] |104| 
     765                                                      ; [] |104| 
     766            ;* --------------------------------------------------------------------------*
     767 000212       $C$L30:    
     768 000212 803C          SUB.W     #18627,r12            ; [] |104| 
         000214 48C3 
     769 000216 703D          SUBC.W    #205,r13              ; [] |104| 
         000218 00CD 
     770 00021a 2002          JNE       $C$L31                ; [] |104| 
     771                                                      ; [] |104| 
     772            ;* --------------------------------------------------------------------------*
     773 00021c 930C          TST.W     r12                   ; [] |104| 
     774 00021e 24BA          JEQ       $C$L40                ; [] |104| 
     775                                                      ; [] |104| 
     776            ;* --------------------------------------------------------------------------*
     777 000220       $C$L31:    
     778 000220 803C          SUB.W     #52096,r12            ; [] |104| 
         000222 CB80 
     779 000224 703D          SUBC.W    #5910,r13             ; [] |104| 
         000226 1716 
     780 000228 2002          JNE       $C$L32                ; [] |104| 
     781                                                      ; [] |104| 
     782            ;* --------------------------------------------------------------------------*
     783 00022a 930C          TST.W     r12                   ; [] |104| 
     784 00022c 2489          JEQ       $C$L39                ; [] |104| 
     785                                                      ; [] |104| 
     786            ;* --------------------------------------------------------------------------*
     787 00022e       $C$L32:    
     788 00022e 803C          SUB.W     #60349,r12            ; [] |104| 
         000230 EBBD 
     789 000232 703D          SUBC.W    #27,r13               ; [] |104| 
         000234 001B 
     790 000236 2002          JNE       $C$L33                ; [] |104| 
     791                                                      ; [] |104| 
     792            ;* --------------------------------------------------------------------------*
     793 000238 930C          TST.W     r12                   ; [] |104| 
     794 00023a 2456          JEQ       $C$L38                ; [] |104| 
MSP430 Assembler PC v21.6.1 Mon Feb 24 13:22:57 2025

Copyright (c) 2003-2018 Texas Instruments Incorporated
cmd.asm                                                              PAGE   17

     795                                                      ; [] |104| 
     796            ;* --------------------------------------------------------------------------*
     797 00023c       $C$L33:    
     798 00023c 803C          SUB.W     #18627,r12            ; [] |104| 
         00023e 48C3 
     799 000240 703D          SUBC.W    #205,r13              ; [] |104| 
         000242 00CD 
     800 000244 2002          JNE       $C$L34                ; [] |104| 
     801                                                      ; [] |104| 
     802            ;* --------------------------------------------------------------------------*
     803 000246 930C          TST.W     r12                   ; [] |104| 
     804 000248 2425          JEQ       $C$L37                ; [] |104| 
     805                                                      ; [] |104| 
     806            ;* --------------------------------------------------------------------------*
     807 00024a       $C$L34:    
     808 00024a 803C          SUB.W     #19845,r12            ; [] |104| 
         00024c 4D85 
     809 00024e 703D          SUBC.W    #61,r13               ; [] |104| 
         000250 003D 
     810 000252 2002          JNE       $C$L35                ; [] |104| 
     811                                                      ; [] |104| 
     812            ;* --------------------------------------------------------------------------*
     813 000254 930C          TST.W     r12                   ; [] |104| 
     814 000256 2406          JEQ       $C$L36                ; [] |104| 
     815                                                      ; [] |104| 
     816            ;* --------------------------------------------------------------------------*
     817 000258       $C$L35:    
     818                    .dwpsn  file "../src/cmd.c",line 571,column 13,is_stmt,isa 0
     819 000258 4382          MOV.W     #0,&CMD_Command+0     ; [] |571| 
         00025a 0000!
     820                    .dwpsn  file "../src/cmd.c",line 572,column 13,is_stmt,isa 0
     821 00025c 4382          MOV.W     #0,&CMD_Command+2     ; [] |572| 
         00025e 0002!
     822                    .dwpsn  file "../src/cmd.c",line 573,column 13,is_stmt,isa 0
     823 000260 430C          MOV.W     #0,r12                ; [] |573| 
     824 000262 3DB9          JMP       $C$L59                ; [] |573| 
     825                                                      ; [] |573| 
     826            ;* --------------------------------------------------------------------------*
     827                    .align  4
     828 000264       $C$L36:    
     829                    .dwpsn  file "../src/cmd.c",line 185,column 13,is_stmt,isa 0
     830 000264 40B2          MOV.W     #10,&CMD_Command+0    ; [] |185| 
         000266 000A 
         000268 0000!
     831                    .dwpsn  file "../src/cmd.c",line 186,column 13,is_stmt,isa 0
     832 00026a 430C          MOV.W     #0,r12                ; [] |186| 
     833 00026c 008D!         MOVX.A    #$C$FSL1+0,r13        ; [] |186| 
         00026e 0000 
     834            $C$DW$42        .dwtag  DW_TAG_TI_branch
     835                    .dwattr $C$DW$42, DW_AT_low_pc(0x00)
     836                    .dwattr $C$DW$42, DW_AT_name("strtok")
     837                    .dwattr $C$DW$42, DW_AT_TI_call
     838            
     839 000270 13B0!         CALLA     #strtok               ; [] |186| 
         000272 0000 
MSP430 Assembler PC v21.6.1 Mon Feb 24 13:22:57 2025

Copyright (c) 2003-2018 Texas Instruments Incorporated
cmd.asm                                                              PAGE   18

     840                                                      ; [] |186| 
     841 000274 03DC          TSTA      r12                   ; [] |186| 
     842 000276 2549          JEQ       $C$L47                ; [] |186| 
     843                                                      ; [] |186| 
     844            ;* --------------------------------------------------------------------------*
     845                    .dwpsn  file "../src/cmd.c",line 189,column 17,is_stmt,isa 0
     846 000278 1800!         MOVX.A    #$C$FSL2+0,0(SP)      ; [] |189| 
         00027a 40F1 
         00027c 0000 
         00027e 0000 
     847 000280 1800!         MOVX.A    #CMD_Command+2,4(SP)  ; [] |189| 
         000282 40F1 
         000284 0002 
         000286 0004 
     848            $C$DW$43        .dwtag  DW_TAG_TI_branch
     849                    .dwattr $C$DW$43, DW_AT_low_pc(0x00)
     850                    .dwattr $C$DW$43, DW_AT_name("sscanf")
     851                    .dwattr $C$DW$43, DW_AT_TI_call
     852            
     853 000288 13B0!         CALLA     #sscanf               ; [] |189| 
         00028a 0000 
     854                                                      ; [] |189| 
     855 00028c 931C          CMP.W     #1,r12                ; [] |189| 
     856 00028e 217F          JNE       $C$L52                ; [] |189| 
     857                                                      ; [] |189| 
     858            ;* --------------------------------------------------------------------------*
     859 000290 3D94          JMP       $C$L57                ; [] |189| 
     860                                                      ; [] |189| 
     861            ;* --------------------------------------------------------------------------*
     862                    .align  4
     863 000294       $C$L37:    
     864                    .dwpsn  file "../src/cmd.c",line 485,column 13,is_stmt,isa 0
     865 000294 40B2          MOV.W     #18,&CMD_Command+0    ; [] |485| 
         000296 0012 
         000298 0000!
     866                    .dwpsn  file "../src/cmd.c",line 486,column 13,is_stmt,isa 0
     867 00029a 430C          MOV.W     #0,r12                ; [] |486| 
     868 00029c 008D!         MOVX.A    #$C$FSL1+0,r13        ; [] |486| 
         00029e 0000 
     869            $C$DW$44        .dwtag  DW_TAG_TI_branch
     870                    .dwattr $C$DW$44, DW_AT_low_pc(0x00)
     871                    .dwattr $C$DW$44, DW_AT_name("strtok")
     872                    .dwattr $C$DW$44, DW_AT_TI_call
     873            
     874 0002a0 13B0!         CALLA     #strtok               ; [] |486| 
         0002a2 0000 
     875                                                      ; [] |486| 
     876 0002a4 03DC          TSTA      r12                   ; [] |486| 
     877 0002a6 254D          JEQ       $C$L50                ; [] |486| 
     878                                                      ; [] |486| 
     879            ;* --------------------------------------------------------------------------*
     880                    .dwpsn  file "../src/cmd.c",line 489,column 17,is_stmt,isa 0
     881 0002a8 1800!         MOVX.A    #$C$FSL2+0,0(SP)      ; [] |489| 
         0002aa 40F1 
         0002ac 0000 
MSP430 Assembler PC v21.6.1 Mon Feb 24 13:22:57 2025

Copyright (c) 2003-2018 Texas Instruments Incorporated
cmd.asm                                                              PAGE   19

         0002ae 0000 
     882 0002b0 1800!         MOVX.A    #CMD_Command+2,4(SP)  ; [] |489| 
         0002b2 40F1 
         0002b4 0002 
         0002b6 0004 
     883            $C$DW$45        .dwtag  DW_TAG_TI_branch
     884                    .dwattr $C$DW$45, DW_AT_low_pc(0x00)
     885                    .dwattr $C$DW$45, DW_AT_name("sscanf")
     886                    .dwattr $C$DW$45, DW_AT_TI_call
     887            
     888 0002b8 13B0!         CALLA     #sscanf               ; [] |489| 
         0002ba 0000 
     889                                                      ; [] |489| 
     890 0002bc 931C          CMP.W     #1,r12                ; [] |489| 
     891 0002be 2167          JNE       $C$L52                ; [] |489| 
     892                                                      ; [] |489| 
     893            ;* --------------------------------------------------------------------------*
     894                    .dwpsn  file "../src/cmd.c",line 496,column 17,is_stmt,isa 0
     895 0002c0 430C          MOV.W     #0,r12                ; [] |496| 
     896 0002c2 008D!         MOVX.A    #$C$FSL1+0,r13        ; [] |496| 
         0002c4 0000 
     897            $C$DW$46        .dwtag  DW_TAG_TI_branch
     898                    .dwattr $C$DW$46, DW_AT_low_pc(0x00)
     899                    .dwattr $C$DW$46, DW_AT_name("strtok")
     900                    .dwattr $C$DW$46, DW_AT_TI_call
     901            
     902 0002c6 13B0!         CALLA     #strtok               ; [] |496| 
         0002c8 0000 
     903                                                      ; [] |496| 
     904 0002ca 03DC          TSTA      r12                   ; [] |496| 
     905 0002cc 2560          JEQ       $C$L52                ; [] |496| 
     906                                                      ; [] |496| 
     907            ;* --------------------------------------------------------------------------*
     908                    .dwpsn  file "../src/cmd.c",line 503,column 17,is_stmt,isa 0
     909 0002ce 1800!         MOVX.A    #$C$FSL2+0,0(SP)      ; [] |503| 
         0002d0 40F1 
         0002d2 0000 
         0002d4 0000 
     910 0002d6 1800!         MOVX.A    #CMD_Command+4,4(SP)  ; [] |503| 
         0002d8 40F1 
         0002da 0004 
         0002dc 0004 
     911            $C$DW$47        .dwtag  DW_TAG_TI_branch
     912                    .dwattr $C$DW$47, DW_AT_low_pc(0x00)
     913                    .dwattr $C$DW$47, DW_AT_name("sscanf")
     914                    .dwattr $C$DW$47, DW_AT_TI_call
     915            
     916 0002de 13B0!         CALLA     #sscanf               ; [] |503| 
         0002e0 0000 
     917                                                      ; [] |503| 
     918 0002e2 931C          CMP.W     #1,r12                ; [] |503| 
     919 0002e4 2154          JNE       $C$L52                ; [] |503| 
     920                                                      ; [] |503| 
     921            ;* --------------------------------------------------------------------------*
     922 0002e6 3D69          JMP       $C$L57                ; [] |503| 
MSP430 Assembler PC v21.6.1 Mon Feb 24 13:22:57 2025

Copyright (c) 2003-2018 Texas Instruments Incorporated
cmd.asm                                                              PAGE   20

     923                                                      ; [] |503| 
     924            ;* --------------------------------------------------------------------------*
     925                    .align  4
     926 0002e8       $C$L38:    
     927                    .dwpsn  file "../src/cmd.c",line 211,column 13,is_stmt,isa 0
     928 0002e8 40B2          MOV.W     #11,&CMD_Command+0    ; [] |211| 
         0002ea 000B 
         0002ec 0000!
     929                    .dwpsn  file "../src/cmd.c",line 212,column 13,is_stmt,isa 0
     930 0002ee 430C          MOV.W     #0,r12                ; [] |212| 
     931 0002f0 008D!         MOVX.A    #$C$FSL1+0,r13        ; [] |212| 
         0002f2 0000 
     932            $C$DW$48        .dwtag  DW_TAG_TI_branch
     933                    .dwattr $C$DW$48, DW_AT_low_pc(0x00)
     934                    .dwattr $C$DW$48, DW_AT_name("strtok")
     935                    .dwattr $C$DW$48, DW_AT_TI_call
     936            
     937 0002f4 13B0!         CALLA     #strtok               ; [] |212| 
         0002f6 0000 
     938                                                      ; [] |212| 
     939 0002f8 03DC          TSTA      r12                   ; [] |212| 
     940 0002fa 2523          JEQ       $C$L50                ; [] |212| 
     941                                                      ; [] |212| 
     942            ;* --------------------------------------------------------------------------*
     943                    .dwpsn  file "../src/cmd.c",line 214,column 17,is_stmt,isa 0
     944 0002fc 1800!         MOVX.A    #$C$FSL3+0,0(SP)      ; [] |214| 
         0002fe 40F1 
         000300 0000 
         000302 0000 
     945 000304 1800!         MOVX.A    #CMD_Command+2,4(SP)  ; [] |214| 
         000306 40F1 
         000308 0002 
         00030a 0004 
     946 00030c 1800!         MOVX.A    #CMD_Command+4,8(SP)  ; [] |214| 
         00030e 40F1 
         000310 0004 
         000312 0008 
     947 000314 1800!         MOVX.A    #CMD_Command+6,12(SP) ; [] |214| 
         000316 40F1 
         000318 0006 
         00031a 000C 
     948 00031c 1800!         MOVX.A    #CMD_Command+8,16(SP) ; [] |214| 
         00031e 40F1 
         000320 0008 
         000322 0010 
     949 000324 1800!         MOVX.A    #CMD_Command+10,20(SP) ; [] |214| 
         000326 40F1 
         000328 000A 
         00032a 0014 
     950 00032c 1800!         MOVX.A    #CMD_Command+12,24(SP) ; [] |214| 
         00032e 40F1 
         000330 000C 
         000332 0018 
     951            $C$DW$49        .dwtag  DW_TAG_TI_branch
     952                    .dwattr $C$DW$49, DW_AT_low_pc(0x00)
MSP430 Assembler PC v21.6.1 Mon Feb 24 13:22:57 2025

Copyright (c) 2003-2018 Texas Instruments Incorporated
cmd.asm                                                              PAGE   21

     953                    .dwattr $C$DW$49, DW_AT_name("sscanf")
     954                    .dwattr $C$DW$49, DW_AT_TI_call
     955            
     956 000334 13B0!         CALLA     #sscanf               ; [] |214| 
         000336 0000 
     957                                                      ; [] |214| 
     958 000338 903C          CMP.W     #6,r12                ; [] |214| 
         00033a 0006 
     959 00033c 2128          JNE       $C$L52                ; [] |214| 
     960                                                      ; [] |214| 
     961            ;* --------------------------------------------------------------------------*
     962 00033e 3D3D          JMP       $C$L57                ; [] |214| 
     963                                                      ; [] |214| 
     964            ;* --------------------------------------------------------------------------*
     965                    .align  4
     966 000340       $C$L39:    
     967                    .dwpsn  file "../src/cmd.c",line 527,column 13,is_stmt,isa 0
     968 000340 40B2          MOV.W     #13,&CMD_Command+0    ; [] |527| 
         000342 000D 
         000344 0000!
     969                    .dwpsn  file "../src/cmd.c",line 528,column 13,is_stmt,isa 0
     970 000346 430C          MOV.W     #0,r12                ; [] |528| 
     971 000348 008D!         MOVX.A    #$C$FSL1+0,r13        ; [] |528| 
         00034a 0000 
     972            $C$DW$50        .dwtag  DW_TAG_TI_branch
     973                    .dwattr $C$DW$50, DW_AT_low_pc(0x00)
     974                    .dwattr $C$DW$50, DW_AT_name("strtok")
     975                    .dwattr $C$DW$50, DW_AT_TI_call
     976            
     977 00034c 13B0!         CALLA     #strtok               ; [] |528| 
         00034e 0000 
     978                                                      ; [] |528| 
     979 000350 03DC          TSTA      r12                   ; [] |528| 
     980 000352 24F7          JEQ       $C$L50                ; [] |528| 
     981                                                      ; [] |528| 
     982            ;* --------------------------------------------------------------------------*
     983                    .dwpsn  file "../src/cmd.c",line 531,column 17,is_stmt,isa 0
     984 000354 1800!         MOVX.A    #$C$FSL2+0,0(SP)      ; [] |531| 
         000356 40F1 
         000358 0000 
         00035a 0000 
     985 00035c 1800!         MOVX.A    #CMD_Command+2,4(SP)  ; [] |531| 
         00035e 40F1 
         000360 0002 
         000362 0004 
     986            $C$DW$51        .dwtag  DW_TAG_TI_branch
     987                    .dwattr $C$DW$51, DW_AT_low_pc(0x00)
     988                    .dwattr $C$DW$51, DW_AT_name("sscanf")
     989                    .dwattr $C$DW$51, DW_AT_TI_call
     990            
     991 000364 13B0!         CALLA     #sscanf               ; [] |531| 
         000366 0000 
     992                                                      ; [] |531| 
     993 000368 931C          CMP.W     #1,r12                ; [] |531| 
     994 00036a 2111          JNE       $C$L52                ; [] |531| 
MSP430 Assembler PC v21.6.1 Mon Feb 24 13:22:57 2025

Copyright (c) 2003-2018 Texas Instruments Incorporated
cmd.asm                                                              PAGE   22

     995                                                      ; [] |531| 
     996            ;* --------------------------------------------------------------------------*
     997                    .dwpsn  file "../src/cmd.c",line 538,column 17,is_stmt,isa 0
     998 00036c 430C          MOV.W     #0,r12                ; [] |538| 
     999 00036e 008D!         MOVX.A    #$C$FSL1+0,r13        ; [] |538| 
         000370 0000 
    1000            $C$DW$52        .dwtag  DW_TAG_TI_branch
    1001                    .dwattr $C$DW$52, DW_AT_low_pc(0x00)
    1002                    .dwattr $C$DW$52, DW_AT_name("strtok")
    1003                    .dwattr $C$DW$52, DW_AT_TI_call
    1004            
    1005 000372 13B0!         CALLA     #strtok               ; [] |538| 
         000374 0000 
    1006                                                      ; [] |538| 
    1007 000376 03DC          TSTA      r12                   ; [] |538| 
    1008 000378 250A          JEQ       $C$L52                ; [] |538| 
    1009                                                      ; [] |538| 
    1010            ;* --------------------------------------------------------------------------*
    1011                    .dwpsn  file "../src/cmd.c",line 545,column 17,is_stmt,isa 0
    1012 00037a 1800!         MOVX.A    #$C$FSL2+0,0(SP)      ; [] |545| 
         00037c 40F1 
         00037e 0000 
         000380 0000 
    1013 000382 1800!         MOVX.A    #CMD_Command+4,4(SP)  ; [] |545| 
         000384 40F1 
         000386 0004 
         000388 0004 
    1014            $C$DW$53        .dwtag  DW_TAG_TI_branch
    1015                    .dwattr $C$DW$53, DW_AT_low_pc(0x00)
    1016                    .dwattr $C$DW$53, DW_AT_name("sscanf")
    1017                    .dwattr $C$DW$53, DW_AT_TI_call
    1018            
    1019 00038a 13B0!         CALLA     #sscanf               ; [] |545| 
         00038c 0000 
    1020                                                      ; [] |545| 
    1021 00038e 931C          CMP.W     #1,r12                ; [] |545| 
    1022 000390 20FE          JNE       $C$L52                ; [] |545| 
    1023                                                      ; [] |545| 
    1024            ;* --------------------------------------------------------------------------*
    1025 000392 3D13          JMP       $C$L57                ; [] |545| 
    1026                                                      ; [] |545| 
    1027            ;* --------------------------------------------------------------------------*
    1028                    .align  4
    1029 000394       $C$L40:    
    1030                    .dwpsn  file "../src/cmd.c",line 302,column 13,is_stmt,isa 0
    1031 000394 40B2          MOV.W     #19,&CMD_Command+0    ; [] |302| 
         000396 0013 
         000398 0000!
    1032                    .dwpsn  file "../src/cmd.c",line 303,column 13,is_stmt,isa 0
    1033 00039a 430C          MOV.W     #0,r12                ; [] |303| 
    1034 00039c 008D!         MOVX.A    #$C$FSL1+0,r13        ; [] |303| 
         00039e 0000 
    1035            $C$DW$54        .dwtag  DW_TAG_TI_branch
    1036                    .dwattr $C$DW$54, DW_AT_low_pc(0x00)
    1037                    .dwattr $C$DW$54, DW_AT_name("strtok")
MSP430 Assembler PC v21.6.1 Mon Feb 24 13:22:57 2025

Copyright (c) 2003-2018 Texas Instruments Incorporated
cmd.asm                                                              PAGE   23

    1038                    .dwattr $C$DW$54, DW_AT_TI_call
    1039            
    1040 0003a0 13B0!         CALLA     #strtok               ; [] |303| 
         0003a2 0000 
    1041                                                      ; [] |303| 
    1042 0003a4 03DC          TSTA      r12                   ; [] |303| 
    1043 0003a6 24CD          JEQ       $C$L50                ; [] |303| 
    1044                                                      ; [] |303| 
    1045            ;* --------------------------------------------------------------------------*
    1046                    .dwpsn  file "../src/cmd.c",line 306,column 17,is_stmt,isa 0
    1047 0003a8 1800!         MOVX.A    #$C$FSL2+0,0(SP)      ; [] |306| 
         0003aa 40F1 
         0003ac 0000 
         0003ae 0000 
    1048 0003b0 1800!         MOVX.A    #CMD_Command+2,4(SP)  ; [] |306| 
         0003b2 40F1 
         0003b4 0002 
         0003b6 0004 
    1049            $C$DW$55        .dwtag  DW_TAG_TI_branch
    1050                    .dwattr $C$DW$55, DW_AT_low_pc(0x00)
    1051                    .dwattr $C$DW$55, DW_AT_name("sscanf")
    1052                    .dwattr $C$DW$55, DW_AT_TI_call
    1053            
    1054 0003b8 13B0!         CALLA     #sscanf               ; [] |306| 
         0003ba 0000 
    1055                                                      ; [] |306| 
    1056 0003bc 931C          CMP.W     #1,r12                ; [] |306| 
    1057 0003be 20E7          JNE       $C$L52                ; [] |306| 
    1058                                                      ; [] |306| 
    1059            ;* --------------------------------------------------------------------------*
    1060 0003c0 3CFC          JMP       $C$L57                ; [] |306| 
    1061                                                      ; [] |306| 
    1062            ;* --------------------------------------------------------------------------*
    1063                    .align  4
    1064 0003c4       $C$L41:    
    1065                    .dwpsn  file "../src/cmd.c",line 246,column 13,is_stmt,isa 0
    1066 0003c4 40B2          MOV.W     #14,&CMD_Command+0    ; [] |246| 
         0003c6 000E 
         0003c8 0000!
    1067                    .dwpsn  file "../src/cmd.c",line 247,column 13,is_stmt,isa 0
    1068 0003ca 430C          MOV.W     #0,r12                ; [] |247| 
    1069 0003cc 008D!         MOVX.A    #$C$FSL1+0,r13        ; [] |247| 
         0003ce 0000 
    1070            $C$DW$56        .dwtag  DW_TAG_TI_branch
    1071                    .dwattr $C$DW$56, DW_AT_low_pc(0x00)
    1072                    .dwattr $C$DW$56, DW_AT_name("strtok")
    1073                    .dwattr $C$DW$56, DW_AT_TI_call
    1074            
    1075 0003d0 13B0!         CALLA     #strtok               ; [] |247| 
         0003d2 0000 
    1076                                                      ; [] |247| 
    1077 0003d4 03DC          TSTA      r12                   ; [] |247| 
    1078 0003d6 24B5          JEQ       $C$L50                ; [] |247| 
    1079                                                      ; [] |247| 
    1080            ;* --------------------------------------------------------------------------*
MSP430 Assembler PC v21.6.1 Mon Feb 24 13:22:57 2025

Copyright (c) 2003-2018 Texas Instruments Incorporated
cmd.asm                                                              PAGE   24

    1081                    .dwpsn  file "../src/cmd.c",line 250,column 17,is_stmt,isa 0
    1082 0003d8 1800!         MOVX.A    #$C$FSL2+0,0(SP)      ; [] |250| 
         0003da 40F1 
         0003dc 0000 
         0003de 0000 
    1083 0003e0 1800!         MOVX.A    #CMD_Command+2,4(SP)  ; [] |250| 
         0003e2 40F1 
         0003e4 0002 
         0003e6 0004 
    1084            $C$DW$57        .dwtag  DW_TAG_TI_branch
    1085                    .dwattr $C$DW$57, DW_AT_low_pc(0x00)
    1086                    .dwattr $C$DW$57, DW_AT_name("sscanf")
    1087                    .dwattr $C$DW$57, DW_AT_TI_call
    1088            
    1089 0003e8 13B0!         CALLA     #sscanf               ; [] |250| 
         0003ea 0000 
    1090                                                      ; [] |250| 
    1091 0003ec 931C          CMP.W     #1,r12                ; [] |250| 
    1092 0003ee 20CF          JNE       $C$L52                ; [] |250| 
    1093                                                      ; [] |250| 
    1094            ;* --------------------------------------------------------------------------*
    1095 0003f0 3CE4          JMP       $C$L57                ; [] |250| 
    1096                                                      ; [] |250| 
    1097            ;* --------------------------------------------------------------------------*
    1098                    .align  4
    1099 0003f4       $C$L42:    
    1100                    .dwpsn  file "../src/cmd.c",line 401,column 13,is_stmt,isa 0
    1101 0003f4 40B2          MOV.W     #6,&CMD_Command+0     ; [] |401| 
         0003f6 0006 
         0003f8 0000!
    1102                    .dwpsn  file "../src/cmd.c",line 402,column 13,is_stmt,isa 0
    1103 0003fa 430C          MOV.W     #0,r12                ; [] |402| 
    1104 0003fc 008D!         MOVX.A    #$C$FSL1+0,r13        ; [] |402| 
         0003fe 0000 
    1105            $C$DW$58        .dwtag  DW_TAG_TI_branch
    1106                    .dwattr $C$DW$58, DW_AT_low_pc(0x00)
    1107                    .dwattr $C$DW$58, DW_AT_name("strtok")
    1108                    .dwattr $C$DW$58, DW_AT_TI_call
    1109            
    1110 000400 13B0!         CALLA     #strtok               ; [] |402| 
         000402 0000 
    1111                                                      ; [] |402| 
    1112 000404 03DC          TSTA      r12                   ; [] |402| 
    1113 000406 249D          JEQ       $C$L50                ; [] |402| 
    1114                                                      ; [] |402| 
    1115            ;* --------------------------------------------------------------------------*
    1116                    .dwpsn  file "../src/cmd.c",line 405,column 17,is_stmt,isa 0
    1117 000408 1800!         MOVX.A    #$C$FSL2+0,0(SP)      ; [] |405| 
         00040a 40F1 
         00040c 0000 
         00040e 0000 
    1118 000410 1800!         MOVX.A    #CMD_Command+2,4(SP)  ; [] |405| 
         000412 40F1 
         000414 0002 
         000416 0004 
MSP430 Assembler PC v21.6.1 Mon Feb 24 13:22:57 2025

Copyright (c) 2003-2018 Texas Instruments Incorporated
cmd.asm                                                              PAGE   25

    1119            $C$DW$59        .dwtag  DW_TAG_TI_branch
    1120                    .dwattr $C$DW$59, DW_AT_low_pc(0x00)
    1121                    .dwattr $C$DW$59, DW_AT_name("sscanf")
    1122                    .dwattr $C$DW$59, DW_AT_TI_call
    1123            
    1124 000418 13B0!         CALLA     #sscanf               ; [] |405| 
         00041a 0000 
    1125                                                      ; [] |405| 
    1126 00041c 931C          CMP.W     #1,r12                ; [] |405| 
    1127 00041e 20B7          JNE       $C$L52                ; [] |405| 
    1128                                                      ; [] |405| 
    1129            ;* --------------------------------------------------------------------------*
    1130                    .dwpsn  file "../src/cmd.c",line 412,column 17,is_stmt,isa 0
    1131 000420 430C          MOV.W     #0,r12                ; [] |412| 
    1132 000422 008D!         MOVX.A    #$C$FSL1+0,r13        ; [] |412| 
         000424 0000 
    1133            $C$DW$60        .dwtag  DW_TAG_TI_branch
    1134                    .dwattr $C$DW$60, DW_AT_low_pc(0x00)
    1135                    .dwattr $C$DW$60, DW_AT_name("strtok")
    1136                    .dwattr $C$DW$60, DW_AT_TI_call
    1137            
    1138 000426 13B0!         CALLA     #strtok               ; [] |412| 
         000428 0000 
    1139                                                      ; [] |412| 
    1140 00042a 03DC          TSTA      r12                   ; [] |412| 
    1141 00042c 24B0          JEQ       $C$L52                ; [] |412| 
    1142                                                      ; [] |412| 
    1143            ;* --------------------------------------------------------------------------*
    1144                    .dwpsn  file "../src/cmd.c",line 419,column 17,is_stmt,isa 0
    1145 00042e 1800!         MOVX.A    #$C$FSL2+0,0(SP)      ; [] |419| 
         000430 40F1 
         000432 0000 
         000434 0000 
    1146 000436 1800!         MOVX.A    #CMD_Command+4,4(SP)  ; [] |419| 
         000438 40F1 
         00043a 0004 
         00043c 0004 
    1147            $C$DW$61        .dwtag  DW_TAG_TI_branch
    1148                    .dwattr $C$DW$61, DW_AT_low_pc(0x00)
    1149                    .dwattr $C$DW$61, DW_AT_name("sscanf")
    1150                    .dwattr $C$DW$61, DW_AT_TI_call
    1151            
    1152 00043e 13B0!         CALLA     #sscanf               ; [] |419| 
         000440 0000 
    1153                                                      ; [] |419| 
    1154 000442 931C          CMP.W     #1,r12                ; [] |419| 
    1155 000444 20A4          JNE       $C$L52                ; [] |419| 
    1156                                                      ; [] |419| 
    1157            ;* --------------------------------------------------------------------------*
    1158 000446 3CB9          JMP       $C$L57                ; [] |419| 
    1159                                                      ; [] |419| 
    1160            ;* --------------------------------------------------------------------------*
    1161                    .align  4
    1162 000448       $C$L43:    
    1163                    .dwpsn  file "../src/cmd.c",line 443,column 13,is_stmt,isa 0
MSP430 Assembler PC v21.6.1 Mon Feb 24 13:22:57 2025

Copyright (c) 2003-2018 Texas Instruments Incorporated
cmd.asm                                                              PAGE   26

    1164 000448 40B2          MOV.W     #7,&CMD_Command+0     ; [] |443| 
         00044a 0007 
         00044c 0000!
    1165                    .dwpsn  file "../src/cmd.c",line 444,column 13,is_stmt,isa 0
    1166 00044e 430C          MOV.W     #0,r12                ; [] |444| 
    1167 000450 008D!         MOVX.A    #$C$FSL1+0,r13        ; [] |444| 
         000452 0000 
    1168            $C$DW$62        .dwtag  DW_TAG_TI_branch
    1169                    .dwattr $C$DW$62, DW_AT_low_pc(0x00)
    1170                    .dwattr $C$DW$62, DW_AT_name("strtok")
    1171                    .dwattr $C$DW$62, DW_AT_TI_call
    1172            
    1173 000454 13B0!         CALLA     #strtok               ; [] |444| 
         000456 0000 
    1174                                                      ; [] |444| 
    1175 000458 03DC          TSTA      r12                   ; [] |444| 
    1176 00045a 2473          JEQ       $C$L50                ; [] |444| 
    1177                                                      ; [] |444| 
    1178            ;* --------------------------------------------------------------------------*
    1179                    .dwpsn  file "../src/cmd.c",line 447,column 17,is_stmt,isa 0
    1180 00045c 1800!         MOVX.A    #$C$FSL2+0,0(SP)      ; [] |447| 
         00045e 40F1 
         000460 0000 
         000462 0000 
    1181 000464 1800!         MOVX.A    #CMD_Command+2,4(SP)  ; [] |447| 
         000466 40F1 
         000468 0002 
         00046a 0004 
    1182            $C$DW$63        .dwtag  DW_TAG_TI_branch
    1183                    .dwattr $C$DW$63, DW_AT_low_pc(0x00)
    1184                    .dwattr $C$DW$63, DW_AT_name("sscanf")
    1185                    .dwattr $C$DW$63, DW_AT_TI_call
    1186            
    1187 00046c 13B0!         CALLA     #sscanf               ; [] |447| 
         00046e 0000 
    1188                                                      ; [] |447| 
    1189 000470 931C          CMP.W     #1,r12                ; [] |447| 
    1190 000472 208D          JNE       $C$L52                ; [] |447| 
    1191                                                      ; [] |447| 
    1192            ;* --------------------------------------------------------------------------*
    1193                    .dwpsn  file "../src/cmd.c",line 454,column 17,is_stmt,isa 0
    1194 000474 430C          MOV.W     #0,r12                ; [] |454| 
    1195 000476 008D!         MOVX.A    #$C$FSL1+0,r13        ; [] |454| 
         000478 0000 
    1196            $C$DW$64        .dwtag  DW_TAG_TI_branch
    1197                    .dwattr $C$DW$64, DW_AT_low_pc(0x00)
    1198                    .dwattr $C$DW$64, DW_AT_name("strtok")
    1199                    .dwattr $C$DW$64, DW_AT_TI_call
    1200            
    1201 00047a 13B0!         CALLA     #strtok               ; [] |454| 
         00047c 0000 
    1202                                                      ; [] |454| 
    1203 00047e 03DC          TSTA      r12                   ; [] |454| 
    1204 000480 2486          JEQ       $C$L52                ; [] |454| 
    1205                                                      ; [] |454| 
MSP430 Assembler PC v21.6.1 Mon Feb 24 13:22:57 2025

Copyright (c) 2003-2018 Texas Instruments Incorporated
cmd.asm                                                              PAGE   27

    1206            ;* --------------------------------------------------------------------------*
    1207                    .dwpsn  file "../src/cmd.c",line 461,column 17,is_stmt,isa 0
    1208 000482 1800!         MOVX.A    #$C$FSL2+0,0(SP)      ; [] |461| 
         000484 40F1 
         000486 0000 
         000488 0000 
    1209 00048a 1800!         MOVX.A    #CMD_Command+4,4(SP)  ; [] |461| 
         00048c 40F1 
         00048e 0004 
         000490 0004 
    1210            $C$DW$65        .dwtag  DW_TAG_TI_branch
    1211                    .dwattr $C$DW$65, DW_AT_low_pc(0x00)
    1212                    .dwattr $C$DW$65, DW_AT_name("sscanf")
    1213                    .dwattr $C$DW$65, DW_AT_TI_call
    1214            
    1215 000492 13B0!         CALLA     #sscanf               ; [] |461| 
         000494 0000 
    1216                                                      ; [] |461| 
    1217 000496 931C          CMP.W     #1,r12                ; [] |461| 
    1218 000498 207A          JNE       $C$L52                ; [] |461| 
    1219                                                      ; [] |461| 
    1220            ;* --------------------------------------------------------------------------*
    1221 00049a 3C8F          JMP       $C$L57                ; [] |461| 
    1222                                                      ; [] |461| 
    1223            ;* --------------------------------------------------------------------------*
    1224                    .align  4
    1225 00049c       $C$L44:    
    1226                    .dwpsn  file "../src/cmd.c",line 274,column 13,is_stmt,isa 0
    1227 00049c 42B2          MOV.W     #8,&CMD_Command+0     ; [] |274| 
         00049e 0000!
    1228                    .dwpsn  file "../src/cmd.c",line 275,column 13,is_stmt,isa 0
    1229 0004a0 430C          MOV.W     #0,r12                ; [] |275| 
    1230 0004a2 008D!         MOVX.A    #$C$FSL1+0,r13        ; [] |275| 
         0004a4 0000 
    1231            $C$DW$66        .dwtag  DW_TAG_TI_branch
    1232                    .dwattr $C$DW$66, DW_AT_low_pc(0x00)
    1233                    .dwattr $C$DW$66, DW_AT_name("strtok")
    1234                    .dwattr $C$DW$66, DW_AT_TI_call
    1235            
    1236 0004a6 13B0!         CALLA     #strtok               ; [] |275| 
         0004a8 0000 
    1237                                                      ; [] |275| 
    1238 0004aa 03DC          TSTA      r12                   ; [] |275| 
    1239 0004ac 244A          JEQ       $C$L50                ; [] |275| 
    1240                                                      ; [] |275| 
    1241            ;* --------------------------------------------------------------------------*
    1242                    .dwpsn  file "../src/cmd.c",line 278,column 17,is_stmt,isa 0
    1243 0004ae 1800!         MOVX.A    #$C$FSL2+0,0(SP)      ; [] |278| 
         0004b0 40F1 
         0004b2 0000 
         0004b4 0000 
    1244 0004b6 1800!         MOVX.A    #CMD_Command+2,4(SP)  ; [] |278| 
         0004b8 40F1 
         0004ba 0002 
         0004bc 0004 
MSP430 Assembler PC v21.6.1 Mon Feb 24 13:22:57 2025

Copyright (c) 2003-2018 Texas Instruments Incorporated
cmd.asm                                                              PAGE   28

    1245            $C$DW$67        .dwtag  DW_TAG_TI_branch
    1246                    .dwattr $C$DW$67, DW_AT_low_pc(0x00)
    1247                    .dwattr $C$DW$67, DW_AT_name("sscanf")
    1248                    .dwattr $C$DW$67, DW_AT_TI_call
    1249            
    1250 0004be 13B0!         CALLA     #sscanf               ; [] |278| 
         0004c0 0000 
    1251                                                      ; [] |278| 
    1252 0004c2 931C          CMP.W     #1,r12                ; [] |278| 
    1253 0004c4 2064          JNE       $C$L52                ; [] |278| 
    1254                                                      ; [] |278| 
    1255            ;* --------------------------------------------------------------------------*
    1256 0004c6 3C79          JMP       $C$L57                ; [] |278| 
    1257                                                      ; [] |278| 
    1258            ;* --------------------------------------------------------------------------*
    1259                    .align  4
    1260 0004c8       $C$L45:    
    1261                    .dwpsn  file "../src/cmd.c",line 330,column 13,is_stmt,isa 0
    1262 0004c8 40B2          MOV.W     #5,&CMD_Command+0     ; [] |330| 
         0004ca 0005 
         0004cc 0000!
    1263                    .dwpsn  file "../src/cmd.c",line 331,column 13,is_stmt,isa 0
    1264 0004ce 430C          MOV.W     #0,r12                ; [] |331| 
    1265 0004d0 008D!         MOVX.A    #$C$FSL1+0,r13        ; [] |331| 
         0004d2 0000 
    1266            $C$DW$68        .dwtag  DW_TAG_TI_branch
    1267                    .dwattr $C$DW$68, DW_AT_low_pc(0x00)
    1268                    .dwattr $C$DW$68, DW_AT_name("strtok")
    1269                    .dwattr $C$DW$68, DW_AT_TI_call
    1270            
    1271 0004d4 13B0!         CALLA     #strtok               ; [] |331| 
         0004d6 0000 
    1272                                                      ; [] |331| 
    1273 0004d8 03DC          TSTA      r12                   ; [] |331| 
    1274 0004da 2433          JEQ       $C$L50                ; [] |331| 
    1275                                                      ; [] |331| 
    1276            ;* --------------------------------------------------------------------------*
    1277                    .dwpsn  file "../src/cmd.c",line 334,column 17,is_stmt,isa 0
    1278 0004dc 1800!         MOVX.A    #$C$FSL2+0,0(SP)      ; [] |334| 
         0004de 40F1 
         0004e0 0000 
         0004e2 0000 
    1279 0004e4 1800!         MOVX.A    #CMD_Command+2,4(SP)  ; [] |334| 
         0004e6 40F1 
         0004e8 0002 
         0004ea 0004 
    1280            $C$DW$69        .dwtag  DW_TAG_TI_branch
    1281                    .dwattr $C$DW$69, DW_AT_low_pc(0x00)
    1282                    .dwattr $C$DW$69, DW_AT_name("sscanf")
    1283                    .dwattr $C$DW$69, DW_AT_TI_call
    1284            
    1285 0004ec 13B0!         CALLA     #sscanf               ; [] |334| 
         0004ee 0000 
    1286                                                      ; [] |334| 
    1287 0004f0 931C          CMP.W     #1,r12                ; [] |334| 
MSP430 Assembler PC v21.6.1 Mon Feb 24 13:22:57 2025

Copyright (c) 2003-2018 Texas Instruments Incorporated
cmd.asm                                                              PAGE   29

    1288 0004f2 204D          JNE       $C$L52                ; [] |334| 
    1289                                                      ; [] |334| 
    1290            ;* --------------------------------------------------------------------------*
    1291 0004f4 3C62          JMP       $C$L57                ; [] |334| 
    1292                                                      ; [] |334| 
    1293            ;* --------------------------------------------------------------------------*
    1294                    .align  4
    1295 0004f8       $C$L46:    
    1296                    .dwpsn  file "../src/cmd.c",line 159,column 13,is_stmt,isa 0
    1297 0004f8 43A2          MOV.W     #2,&CMD_Command+0     ; [] |159| 
         0004fa 0000!
    1298                    .dwpsn  file "../src/cmd.c",line 160,column 13,is_stmt,isa 0
    1299 0004fc 430C          MOV.W     #0,r12                ; [] |160| 
    1300 0004fe 008D!         MOVX.A    #$C$FSL1+0,r13        ; [] |160| 
         000500 0000 
    1301            $C$DW$70        .dwtag  DW_TAG_TI_branch
    1302                    .dwattr $C$DW$70, DW_AT_low_pc(0x00)
    1303                    .dwattr $C$DW$70, DW_AT_name("strtok")
    1304                    .dwattr $C$DW$70, DW_AT_TI_call
    1305            
    1306 000502 13B0!         CALLA     #strtok               ; [] |160| 
         000504 0000 
    1307                                                      ; [] |160| 
    1308 000506 03DC          TSTA      r12                   ; [] |160| 
    1309 000508 2005          JNE       $C$L48                ; [] |160| 
    1310                                                      ; [] |160| 
    1311            ;* --------------------------------------------------------------------------*
    1312 00050a       $C$L47:    
    1313                    .dwpsn  file "../src/cmd.c",line 181,column 17,is_stmt,isa 0
    1314 00050a 4382          MOV.W     #0,&CMD_Command+2     ; [] |181| 
         00050c 0002!
    1315                    .dwpsn  file "../src/cmd.c",line 576,column 9,is_stmt,isa 0
    1316 00050e 431C          MOV.W     #1,r12                ; [] |576| 
    1317 000510 3C62          JMP       $C$L59                ; [] |576| 
    1318                                                      ; [] |576| 
    1319            ;* --------------------------------------------------------------------------*
    1320                    .align  4
    1321 000514       $C$L48:    
    1322                    .dwpsn  file "../src/cmd.c",line 163,column 17,is_stmt,isa 0
    1323 000514 1800!         MOVX.A    #$C$FSL2+0,0(SP)      ; [] |163| 
         000516 40F1 
         000518 0000 
         00051a 0000 
    1324 00051c 1800!         MOVX.A    #CMD_Command+2,4(SP)  ; [] |163| 
         00051e 40F1 
         000520 0002 
         000522 0004 
    1325            $C$DW$71        .dwtag  DW_TAG_TI_branch
    1326                    .dwattr $C$DW$71, DW_AT_low_pc(0x00)
    1327                    .dwattr $C$DW$71, DW_AT_name("sscanf")
    1328                    .dwattr $C$DW$71, DW_AT_TI_call
    1329            
    1330 000524 13B0!         CALLA     #sscanf               ; [] |163| 
         000526 0000 
    1331                                                      ; [] |163| 
MSP430 Assembler PC v21.6.1 Mon Feb 24 13:22:57 2025

Copyright (c) 2003-2018 Texas Instruments Incorporated
cmd.asm                                                              PAGE   30

    1332 000528 931C          CMP.W     #1,r12                ; [] |163| 
    1333 00052a 2031          JNE       $C$L52                ; [] |163| 
    1334                                                      ; [] |163| 
    1335            ;* --------------------------------------------------------------------------*
    1336 00052c 3C46          JMP       $C$L57                ; [] |163| 
    1337                                                      ; [] |163| 
    1338            ;* --------------------------------------------------------------------------*
    1339                    .align  4
    1340 000530       $C$L49:    
    1341                    .dwpsn  file "../src/cmd.c",line 359,column 13,is_stmt,isa 0
    1342 000530 4392          MOV.W     #1,&CMD_Command+0     ; [] |359| 
         000532 0000!
    1343                    .dwpsn  file "../src/cmd.c",line 360,column 13,is_stmt,isa 0
    1344 000534 430C          MOV.W     #0,r12                ; [] |360| 
    1345 000536 008D!         MOVX.A    #$C$FSL1+0,r13        ; [] |360| 
         000538 0000 
    1346            $C$DW$72        .dwtag  DW_TAG_TI_branch
    1347                    .dwattr $C$DW$72, DW_AT_low_pc(0x00)
    1348                    .dwattr $C$DW$72, DW_AT_name("strtok")
    1349                    .dwattr $C$DW$72, DW_AT_TI_call
    1350            
    1351 00053a 13B0!         CALLA     #strtok               ; [] |360| 
         00053c 0000 
    1352                                                      ; [] |360| 
    1353 00053e 03DC          TSTA      r12                   ; [] |360| 
    1354 000540 2007          JNE       $C$L51                ; [] |360| 
    1355                                                      ; [] |360| 
    1356            ;* --------------------------------------------------------------------------*
    1357 000542       $C$L50:    
    1358                    .dwpsn  file "../src/cmd.c",line 395,column 17,is_stmt,isa 0
    1359 000542 4382          MOV.W     #0,&CMD_Command+0     ; [] |395| 
         000544 0000!
    1360                    .dwpsn  file "../src/cmd.c",line 396,column 17,is_stmt,isa 0
    1361 000546 4392          MOV.W     #1,&CMD_Command+2     ; [] |396| 
         000548 0002!
    1362                    .dwpsn  file "../src/cmd.c",line 397,column 17,is_stmt,isa 0
    1363 00054a 430C          MOV.W     #0,r12                ; [] |397| 
    1364 00054c 3C44          JMP       $C$L59                ; [] |397| 
    1365                                                      ; [] |397| 
    1366            ;* --------------------------------------------------------------------------*
    1367                    .align  4
    1368 000550       $C$L51:    
    1369                    .dwpsn  file "../src/cmd.c",line 363,column 17,is_stmt,isa 0
    1370 000550 1800!         MOVX.A    #$C$FSL2+0,0(SP)      ; [] |363| 
         000552 40F1 
         000554 0000 
         000556 0000 
    1371 000558 1800!         MOVX.A    #CMD_Command+2,4(SP)  ; [] |363| 
         00055a 40F1 
         00055c 0002 
         00055e 0004 
    1372            $C$DW$73        .dwtag  DW_TAG_TI_branch
    1373                    .dwattr $C$DW$73, DW_AT_low_pc(0x00)
    1374                    .dwattr $C$DW$73, DW_AT_name("sscanf")
    1375                    .dwattr $C$DW$73, DW_AT_TI_call
MSP430 Assembler PC v21.6.1 Mon Feb 24 13:22:57 2025

Copyright (c) 2003-2018 Texas Instruments Incorporated
cmd.asm                                                              PAGE   31

    1376            
    1377 000560 13B0!         CALLA     #sscanf               ; [] |363| 
         000562 0000 
    1378                                                      ; [] |363| 
    1379 000564 931C          CMP.W     #1,r12                ; [] |363| 
    1380 000566 2013          JNE       $C$L52                ; [] |363| 
    1381                                                      ; [] |363| 
    1382            ;* --------------------------------------------------------------------------*
    1383                    .dwpsn  file "../src/cmd.c",line 370,column 17,is_stmt,isa 0
    1384 000568 430C          MOV.W     #0,r12                ; [] |370| 
    1385 00056a 008D!         MOVX.A    #$C$FSL1+0,r13        ; [] |370| 
         00056c 0000 
    1386            $C$DW$74        .dwtag  DW_TAG_TI_branch
    1387                    .dwattr $C$DW$74, DW_AT_low_pc(0x00)
    1388                    .dwattr $C$DW$74, DW_AT_name("strtok")
    1389                    .dwattr $C$DW$74, DW_AT_TI_call
    1390            
    1391 00056e 13B0!         CALLA     #strtok               ; [] |370| 
         000570 0000 
    1392                                                      ; [] |370| 
    1393 000572 03DC          TSTA      r12                   ; [] |370| 
    1394 000574 240C          JEQ       $C$L52                ; [] |370| 
    1395                                                      ; [] |370| 
    1396            ;* --------------------------------------------------------------------------*
    1397                    .dwpsn  file "../src/cmd.c",line 377,column 17,is_stmt,isa 0
    1398 000576 1800!         MOVX.A    #$C$FSL2+0,0(SP)      ; [] |377| 
         000578 40F1 
         00057a 0000 
         00057c 0000 
    1399 00057e 1800!         MOVX.A    #CMD_Command+4,4(SP)  ; [] |377| 
         000580 40F1 
         000582 0004 
         000584 0004 
    1400            $C$DW$75        .dwtag  DW_TAG_TI_branch
    1401                    .dwattr $C$DW$75, DW_AT_low_pc(0x00)
    1402                    .dwattr $C$DW$75, DW_AT_name("sscanf")
    1403                    .dwattr $C$DW$75, DW_AT_TI_call
    1404            
    1405 000586 13B0!         CALLA     #sscanf               ; [] |377| 
         000588 0000 
    1406                                                      ; [] |377| 
    1407 00058a 931C          CMP.W     #1,r12                ; [] |377| 
    1408 00058c 2416          JEQ       $C$L57                ; [] |377| 
    1409                                                      ; [] |377| 
    1410            ;* --------------------------------------------------------------------------*
    1411 00058e       $C$L52:    
    1412                    .dwpsn  file "../src/cmd.c",line 380,column 21,is_stmt,isa 0
    1413 00058e 4382          MOV.W     #0,&CMD_Command+0     ; [] |380| 
         000590 0000!
    1414                    .dwpsn  file "../src/cmd.c",line 381,column 21,is_stmt,isa 0
    1415 000592 40B2          MOV.W     #3,&CMD_Command+2     ; [] |381| 
         000594 0003 
         000596 0002!
    1416                    .dwpsn  file "../src/cmd.c",line 382,column 21,is_stmt,isa 0
    1417 000598 430C          MOV.W     #0,r12                ; [] |382| 
MSP430 Assembler PC v21.6.1 Mon Feb 24 13:22:57 2025

Copyright (c) 2003-2018 Texas Instruments Incorporated
cmd.asm                                                              PAGE   32

    1418 00059a 3C1D          JMP       $C$L59                ; [] |382| 
    1419                                                      ; [] |382| 
    1420            ;* --------------------------------------------------------------------------*
    1421                    .align  4
    1422 00059c       $C$L53:    
    1423                    .dwpsn  file "../src/cmd.c",line 148,column 13,is_stmt,isa 0
    1424 00059c 40B2          MOV.W     #12,&CMD_Command+0    ; [] |148| 
         00059e 000C 
         0005a0 0000!
    1425                    .dwpsn  file "../src/cmd.c",line 149,column 13,is_stmt,isa 0
    1426 0005a2 3C0B          JMP       $C$L57                ; [] |149| 
    1427                                                      ; [] |149| 
    1428            ;* --------------------------------------------------------------------------*
    1429                    .align  4
    1430 0005a4       $C$L54:    
    1431                    .dwpsn  file "../src/cmd.c",line 138,column 13,is_stmt,isa 0
    1432 0005a4 40B2          MOV.W     #9,&CMD_Command+0     ; [] |138| 
         0005a6 0009 
         0005a8 0000!
    1433                    .dwpsn  file "../src/cmd.c",line 139,column 13,is_stmt,isa 0
    1434 0005aa 3C07          JMP       $C$L57                ; [] |139| 
    1435                                                      ; [] |139| 
    1436            ;* --------------------------------------------------------------------------*
    1437                    .align  4
    1438 0005ac       $C$L55:    
    1439                    .dwpsn  file "../src/cmd.c",line 118,column 13,is_stmt,isa 0
    1440 0005ac 40B2          MOV.W     #3,&CMD_Command+0     ; [] |118| 
         0005ae 0003 
         0005b0 0000!
    1441                    .dwpsn  file "../src/cmd.c",line 119,column 13,is_stmt,isa 0
    1442 0005b2 3C03          JMP       $C$L57                ; [] |119| 
    1443                                                      ; [] |119| 
    1444            ;* --------------------------------------------------------------------------*
    1445                    .align  4
    1446 0005b4       $C$L56:    
    1447                    .dwpsn  file "../src/cmd.c",line 128,column 13,is_stmt,isa 0
    1448 0005b4 40B2          MOV.W     #20,&CMD_Command+0    ; [] |128| 
         0005b6 0014 
         0005b8 0000!
    1449            ;* --------------------------------------------------------------------------*
    1450 0005ba       $C$L57:    
    1451                    .dwpsn  file "../src/cmd.c",line 384,column 17,is_stmt,isa 0
    1452 0005ba 430C          MOV.W     #0,r12                ; [] |384| 
    1453 0005bc 008D!         MOVX.A    #$C$FSL1+0,r13        ; [] |384| 
         0005be 0000 
    1454            $C$DW$76        .dwtag  DW_TAG_TI_branch
    1455                    .dwattr $C$DW$76, DW_AT_low_pc(0x00)
    1456                    .dwattr $C$DW$76, DW_AT_name("strtok")
    1457                    .dwattr $C$DW$76, DW_AT_TI_call
    1458            
    1459 0005c0 13B0!         CALLA     #strtok               ; [] |384| 
         0005c2 0000 
    1460                                                      ; [] |384| 
    1461 0005c4 03DC          TSTA      r12                   ; [] |384| 
    1462 0005c6 2406          JEQ       $C$L58                ; [] |384| 
MSP430 Assembler PC v21.6.1 Mon Feb 24 13:22:57 2025

Copyright (c) 2003-2018 Texas Instruments Incorporated
cmd.asm                                                              PAGE   33

    1463                                                      ; [] |384| 
    1464            ;* --------------------------------------------------------------------------*
    1465                    .dwpsn  file "../src/cmd.c",line 387,column 21,is_stmt,isa 0
    1466 0005c8 4382          MOV.W     #0,&CMD_Command+0     ; [] |387| 
         0005ca 0000!
    1467                    .dwpsn  file "../src/cmd.c",line 388,column 21,is_stmt,isa 0
    1468 0005cc 43A2          MOV.W     #2,&CMD_Command+2     ; [] |388| 
         0005ce 0002!
    1469                    .dwpsn  file "../src/cmd.c",line 389,column 21,is_stmt,isa 0
    1470 0005d0 430C          MOV.W     #0,r12                ; [] |389| 
    1471 0005d2 3C01          JMP       $C$L59                ; [] |389| 
    1472                                                      ; [] |389| 
    1473            ;* --------------------------------------------------------------------------*
    1474 0005d4       $C$L58:    
    1475                    .dwpsn  file "../src/cmd.c",line 576,column 9,is_stmt,isa 0
    1476 0005d4 431C          MOV.W     #1,r12                ; [] |576| 
    1477            ;* --------------------------------------------------------------------------*
    1478 0005d6       $C$L59:    
    1479 0005d6 00A1          ADDA      #28,SP                ; [] 
         0005d8 001C 
    1480                    .dwcfi  cfa_offset, 4
    1481            $C$DW$77        .dwtag  DW_TAG_TI_branch
    1482                    .dwattr $C$DW$77, DW_AT_low_pc(0x00)
    1483                    .dwattr $C$DW$77, DW_AT_TI_return
    1484            
    1485 0005da 0110          RETA      ; [] 
    1486                    ; [] 
    1487                    .dwattr $C$DW$15, DW_AT_TI_end_file("../src/cmd.c")
    1488                    .dwattr $C$DW$15, DW_AT_TI_end_line(0x249)
    1489                    .dwattr $C$DW$15, DW_AT_TI_end_column(0x01)
    1490                    .dwendentry
    1491                    .dwendtag $C$DW$15
    1492            
    1493            ;******************************************************************************
    1494            ;* FAR STRINGS                                                                *
    1495            ;******************************************************************************
    1496 000000               .sect   ".const:.string"
    1497                    .align  2
    1498 000000 002C  $C$FSL1:        .string ",",0
         000001 0000 
    1499                    .align  2
    1500 000002 0025  $C$FSL2:        .string "%u",0
         000003 0075 
         000004 0000 
    1501                    .align  2
    1502 000006 0025  $C$FSL3:        .string "%d-%d-%dT%d:%d:%dZ",0
         000007 0064 
         000008 002D 
         000009 0025 
         00000a 0064 
         00000b 002D 
         00000c 0025 
         00000d 0064 
         00000e 0054 
         00000f 0025 
MSP430 Assembler PC v21.6.1 Mon Feb 24 13:22:57 2025

Copyright (c) 2003-2018 Texas Instruments Incorporated
cmd.asm                                                              PAGE   34

         000010 0064 
         000011 003A 
         000012 0025 
         000013 0064 
         000014 003A 
         000015 0025 
         000016 0064 
         000017 005A 
         000018 0000 
    1503            ;*****************************************************************************
    1504            ;* UNDEFINED EXTERNAL REFERENCES                                             *
    1505            ;*****************************************************************************
    1506                    .global strtok
    1507                    .global sscanf
    1508                    .global __mspabi_slll_5
    1509            
    1510            ;******************************************************************************
    1511            ;* BUILD ATTRIBUTES                                                           *
    1512            ;******************************************************************************
    1513                    .battr "TI", Tag_File, 1, Tag_LPM_INFO(1)
    1514                    .battr "TI", Tag_File, 1, Tag_PORTS_INIT_INFO("012345678901ABCDEFGHIJ0000000000001111100000000
    1515                    .battr "TI", Tag_File, 1, Tag_LEA_INFO(1)
    1516                    .battr "TI", Tag_File, 1, Tag_HW_MPY32_INFO(2)
    1517                    .battr "TI", Tag_File, 1, Tag_HW_MPY_ISR_INFO(1)
    1518                    .battr "TI", Tag_File, 1, Tag_HW_MPY_INLINE_INFO(2)
    1519                    .battr "mspabi", Tag_File, 1, Tag_enum_size(3)
    1520            
    1521            ;******************************************************************************
    1522            ;* TYPE INFORMATION                                                           *
    1523            ;******************************************************************************
    1524            
    1525            $C$DW$T$24      .dwtag  DW_TAG_structure_type
    1526                    .dwattr $C$DW$T$24, DW_AT_byte_size(0x0c)
    1527            $C$DW$78        .dwtag  DW_TAG_member
    1528                    .dwattr $C$DW$78, DW_AT_type(*$C$DW$T$23)
    1529                    .dwattr $C$DW$78, DW_AT_name("year")
    1530                    .dwattr $C$DW$78, DW_AT_TI_symbol_name("year")
    1531                    .dwattr $C$DW$78, DW_AT_data_member_location[DW_OP_plus_uconst 0x0]
    1532                    .dwattr $C$DW$78, DW_AT_accessibility(DW_ACCESS_public)
    1533                    .dwattr $C$DW$78, DW_AT_decl_file("C:\Users\kyle_\Documents\CodeComposerStudio\PIXIE_MSP430\in
    1534                    .dwattr $C$DW$78, DW_AT_decl_line(0x2a)
    1535                    .dwattr $C$DW$78, DW_AT_decl_column(0x11)
    1536            
    1537            $C$DW$79        .dwtag  DW_TAG_member
    1538                    .dwattr $C$DW$79, DW_AT_type(*$C$DW$T$23)
    1539                    .dwattr $C$DW$79, DW_AT_name("month")
    1540                    .dwattr $C$DW$79, DW_AT_TI_symbol_name("month")
    1541                    .dwattr $C$DW$79, DW_AT_data_member_location[DW_OP_plus_uconst 0x2]
    1542                    .dwattr $C$DW$79, DW_AT_accessibility(DW_ACCESS_public)
    1543                    .dwattr $C$DW$79, DW_AT_decl_file("C:\Users\kyle_\Documents\CodeComposerStudio\PIXIE_MSP430\in
    1544                    .dwattr $C$DW$79, DW_AT_decl_line(0x2b)
    1545                    .dwattr $C$DW$79, DW_AT_decl_column(0x11)
    1546            
    1547            $C$DW$80        .dwtag  DW_TAG_member
    1548                    .dwattr $C$DW$80, DW_AT_type(*$C$DW$T$23)
MSP430 Assembler PC v21.6.1 Mon Feb 24 13:22:57 2025

Copyright (c) 2003-2018 Texas Instruments Incorporated
cmd.asm                                                              PAGE   35

    1549                    .dwattr $C$DW$80, DW_AT_name("day")
    1550                    .dwattr $C$DW$80, DW_AT_TI_symbol_name("day")
    1551                    .dwattr $C$DW$80, DW_AT_data_member_location[DW_OP_plus_uconst 0x4]
    1552                    .dwattr $C$DW$80, DW_AT_accessibility(DW_ACCESS_public)
    1553                    .dwattr $C$DW$80, DW_AT_decl_file("C:\Users\kyle_\Documents\CodeComposerStudio\PIXIE_MSP430\in
    1554                    .dwattr $C$DW$80, DW_AT_decl_line(0x2c)
    1555                    .dwattr $C$DW$80, DW_AT_decl_column(0x11)
    1556            
    1557            $C$DW$81        .dwtag  DW_TAG_member
    1558                    .dwattr $C$DW$81, DW_AT_type(*$C$DW$T$23)
    1559                    .dwattr $C$DW$81, DW_AT_name("hour")
    1560                    .dwattr $C$DW$81, DW_AT_TI_symbol_name("hour")
    1561                    .dwattr $C$DW$81, DW_AT_data_member_location[DW_OP_plus_uconst 0x6]
    1562                    .dwattr $C$DW$81, DW_AT_accessibility(DW_ACCESS_public)
    1563                    .dwattr $C$DW$81, DW_AT_decl_file("C:\Users\kyle_\Documents\CodeComposerStudio\PIXIE_MSP430\in
    1564                    .dwattr $C$DW$81, DW_AT_decl_line(0x2d)
    1565                    .dwattr $C$DW$81, DW_AT_decl_column(0x11)
    1566            
    1567            $C$DW$82        .dwtag  DW_TAG_member
    1568                    .dwattr $C$DW$82, DW_AT_type(*$C$DW$T$23)
    1569                    .dwattr $C$DW$82, DW_AT_name("min")
    1570                    .dwattr $C$DW$82, DW_AT_TI_symbol_name("min")
    1571                    .dwattr $C$DW$82, DW_AT_data_member_location[DW_OP_plus_uconst 0x8]
    1572                    .dwattr $C$DW$82, DW_AT_accessibility(DW_ACCESS_public)
    1573                    .dwattr $C$DW$82, DW_AT_decl_file("C:\Users\kyle_\Documents\CodeComposerStudio\PIXIE_MSP430\in
    1574                    .dwattr $C$DW$82, DW_AT_decl_line(0x2e)
    1575                    .dwattr $C$DW$82, DW_AT_decl_column(0x11)
    1576            
    1577            $C$DW$83        .dwtag  DW_TAG_member
    1578                    .dwattr $C$DW$83, DW_AT_type(*$C$DW$T$23)
    1579                    .dwattr $C$DW$83, DW_AT_name("sec")
    1580                    .dwattr $C$DW$83, DW_AT_TI_symbol_name("sec")
    1581                    .dwattr $C$DW$83, DW_AT_data_member_location[DW_OP_plus_uconst 0xa]
    1582                    .dwattr $C$DW$83, DW_AT_accessibility(DW_ACCESS_public)
    1583                    .dwattr $C$DW$83, DW_AT_decl_file("C:\Users\kyle_\Documents\CodeComposerStudio\PIXIE_MSP430\in
    1584                    .dwattr $C$DW$83, DW_AT_decl_line(0x2f)
    1585                    .dwattr $C$DW$83, DW_AT_decl_column(0x11)
    1586            
    1587                    .dwattr $C$DW$T$24, DW_AT_decl_file("C:\Users\kyle_\Documents\CodeComposerStudio\PIXIE_MSP430\
    1588                    .dwattr $C$DW$T$24, DW_AT_decl_line(0x29)
    1589                    .dwattr $C$DW$T$24, DW_AT_decl_column(0x01)
    1590                    .dwendtag $C$DW$T$24
    1591            
    1592            $C$DW$T$34      .dwtag  DW_TAG_typedef
    1593                    .dwattr $C$DW$T$34, DW_AT_name("CLK_TimeStamp")
    1594                    .dwattr $C$DW$T$34, DW_AT_type(*$C$DW$T$24)
    1595                    .dwattr $C$DW$T$34, DW_AT_language(DW_LANG_C)
    1596                    .dwattr $C$DW$T$34, DW_AT_decl_file("C:\Users\kyle_\Documents\CodeComposerStudio\PIXIE_MSP430\
    1597                    .dwattr $C$DW$T$34, DW_AT_decl_line(0x30)
    1598                    .dwattr $C$DW$T$34, DW_AT_decl_column(0x03)
    1599            
    1600            
    1601            $C$DW$T$25      .dwtag  DW_TAG_structure_type
    1602                    .dwattr $C$DW$T$25, DW_AT_byte_size(0x02)
    1603            $C$DW$84        .dwtag  DW_TAG_member
MSP430 Assembler PC v21.6.1 Mon Feb 24 13:22:57 2025

Copyright (c) 2003-2018 Texas Instruments Incorporated
cmd.asm                                                              PAGE   36

    1604                    .dwattr $C$DW$84, DW_AT_type(*$C$DW$T$23)
    1605                    .dwattr $C$DW$84, DW_AT_name("channel")
    1606                    .dwattr $C$DW$84, DW_AT_TI_symbol_name("channel")
    1607                    .dwattr $C$DW$84, DW_AT_data_member_location[DW_OP_plus_uconst 0x0]
    1608                    .dwattr $C$DW$84, DW_AT_accessibility(DW_ACCESS_public)
    1609                    .dwattr $C$DW$84, DW_AT_decl_file("C:/Users/kyle_/Documents/CodeComposerStudio/PIXIE_MSP430/in
    1610                    .dwattr $C$DW$84, DW_AT_decl_line(0x58)
    1611                    .dwattr $C$DW$84, DW_AT_decl_column(0x15)
    1612            
    1613                    .dwattr $C$DW$T$25, DW_AT_decl_file("C:/Users/kyle_/Documents/CodeComposerStudio/PIXIE_MSP430/
    1614                    .dwattr $C$DW$T$25, DW_AT_decl_line(0x57)
    1615                    .dwattr $C$DW$T$25, DW_AT_decl_column(0x01)
    1616                    .dwendtag $C$DW$T$25
    1617            
    1618            $C$DW$T$35      .dwtag  DW_TAG_typedef
    1619                    .dwattr $C$DW$T$35, DW_AT_name("CMD_ChannelArgs")
    1620                    .dwattr $C$DW$T$35, DW_AT_type(*$C$DW$T$25)
    1621                    .dwattr $C$DW$T$35, DW_AT_language(DW_LANG_C)
    1622                    .dwattr $C$DW$T$35, DW_AT_decl_file("C:/Users/kyle_/Documents/CodeComposerStudio/PIXIE_MSP430/
    1623                    .dwattr $C$DW$T$35, DW_AT_decl_line(0x59)
    1624                    .dwattr $C$DW$T$35, DW_AT_decl_column(0x03)
    1625            
    1626            
    1627            $C$DW$T$26      .dwtag  DW_TAG_structure_type
    1628                    .dwattr $C$DW$T$26, DW_AT_byte_size(0x04)
    1629            $C$DW$85        .dwtag  DW_TAG_member
    1630                    .dwattr $C$DW$85, DW_AT_type(*$C$DW$T$23)
    1631                    .dwattr $C$DW$85, DW_AT_name("channel")
    1632                    .dwattr $C$DW$85, DW_AT_TI_symbol_name("channel")
    1633                    .dwattr $C$DW$85, DW_AT_data_member_location[DW_OP_plus_uconst 0x0]
    1634                    .dwattr $C$DW$85, DW_AT_accessibility(DW_ACCESS_public)
    1635                    .dwattr $C$DW$85, DW_AT_decl_file("C:/Users/kyle_/Documents/CodeComposerStudio/PIXIE_MSP430/in
    1636                    .dwattr $C$DW$85, DW_AT_decl_line(0x5d)
    1637                    .dwattr $C$DW$85, DW_AT_decl_column(0x15)
    1638            
    1639            $C$DW$86        .dwtag  DW_TAG_member
    1640                    .dwattr $C$DW$86, DW_AT_type(*$C$DW$T$23)
    1641                    .dwattr $C$DW$86, DW_AT_name("value")
    1642                    .dwattr $C$DW$86, DW_AT_TI_symbol_name("value")
    1643                    .dwattr $C$DW$86, DW_AT_data_member_location[DW_OP_plus_uconst 0x2]
    1644                    .dwattr $C$DW$86, DW_AT_accessibility(DW_ACCESS_public)
    1645                    .dwattr $C$DW$86, DW_AT_decl_file("C:/Users/kyle_/Documents/CodeComposerStudio/PIXIE_MSP430/in
    1646                    .dwattr $C$DW$86, DW_AT_decl_line(0x5e)
    1647                    .dwattr $C$DW$86, DW_AT_decl_column(0x15)
    1648            
    1649                    .dwattr $C$DW$T$26, DW_AT_decl_file("C:/Users/kyle_/Documents/CodeComposerStudio/PIXIE_MSP430/
    1650                    .dwattr $C$DW$T$26, DW_AT_decl_line(0x5c)
    1651                    .dwattr $C$DW$T$26, DW_AT_decl_column(0x01)
    1652                    .dwendtag $C$DW$T$26
    1653            
    1654            $C$DW$T$36      .dwtag  DW_TAG_typedef
    1655                    .dwattr $C$DW$T$36, DW_AT_name("CMD_SettingArgs")
    1656                    .dwattr $C$DW$T$36, DW_AT_type(*$C$DW$T$26)
    1657                    .dwattr $C$DW$T$36, DW_AT_language(DW_LANG_C)
    1658                    .dwattr $C$DW$T$36, DW_AT_decl_file("C:/Users/kyle_/Documents/CodeComposerStudio/PIXIE_MSP430/
MSP430 Assembler PC v21.6.1 Mon Feb 24 13:22:57 2025

Copyright (c) 2003-2018 Texas Instruments Incorporated
cmd.asm                                                              PAGE   37

    1659                    .dwattr $C$DW$T$36, DW_AT_decl_line(0x5f)
    1660                    .dwattr $C$DW$T$36, DW_AT_decl_column(0x03)
    1661            
    1662            
    1663            $C$DW$T$27      .dwtag  DW_TAG_structure_type
    1664                    .dwattr $C$DW$T$27, DW_AT_byte_size(0x04)
    1665            $C$DW$87        .dwtag  DW_TAG_member
    1666                    .dwattr $C$DW$87, DW_AT_type(*$C$DW$T$23)
    1667                    .dwattr $C$DW$87, DW_AT_name("channel")
    1668                    .dwattr $C$DW$87, DW_AT_TI_symbol_name("channel")
    1669                    .dwattr $C$DW$87, DW_AT_data_member_location[DW_OP_plus_uconst 0x0]
    1670                    .dwattr $C$DW$87, DW_AT_accessibility(DW_ACCESS_public)
    1671                    .dwattr $C$DW$87, DW_AT_decl_file("C:/Users/kyle_/Documents/CodeComposerStudio/PIXIE_MSP430/in
    1672                    .dwattr $C$DW$87, DW_AT_decl_line(0x63)
    1673                    .dwattr $C$DW$87, DW_AT_decl_column(0x15)
    1674            
    1675            $C$DW$88        .dwtag  DW_TAG_member
    1676                    .dwattr $C$DW$88, DW_AT_type(*$C$DW$T$23)
    1677                    .dwattr $C$DW$88, DW_AT_name("duration")
    1678                    .dwattr $C$DW$88, DW_AT_TI_symbol_name("duration")
    1679                    .dwattr $C$DW$88, DW_AT_data_member_location[DW_OP_plus_uconst 0x2]
    1680                    .dwattr $C$DW$88, DW_AT_accessibility(DW_ACCESS_public)
    1681                    .dwattr $C$DW$88, DW_AT_decl_file("C:/Users/kyle_/Documents/CodeComposerStudio/PIXIE_MSP430/in
    1682                    .dwattr $C$DW$88, DW_AT_decl_line(0x64)
    1683                    .dwattr $C$DW$88, DW_AT_decl_column(0x15)
    1684            
    1685                    .dwattr $C$DW$T$27, DW_AT_decl_file("C:/Users/kyle_/Documents/CodeComposerStudio/PIXIE_MSP430/
    1686                    .dwattr $C$DW$T$27, DW_AT_decl_line(0x62)
    1687                    .dwattr $C$DW$T$27, DW_AT_decl_column(0x01)
    1688                    .dwendtag $C$DW$T$27
    1689            
    1690            $C$DW$T$37      .dwtag  DW_TAG_typedef
    1691                    .dwattr $C$DW$T$37, DW_AT_name("CMD_RunningArgs")
    1692                    .dwattr $C$DW$T$37, DW_AT_type(*$C$DW$T$27)
    1693                    .dwattr $C$DW$T$37, DW_AT_language(DW_LANG_C)
    1694                    .dwattr $C$DW$T$37, DW_AT_decl_file("C:/Users/kyle_/Documents/CodeComposerStudio/PIXIE_MSP430/
    1695                    .dwattr $C$DW$T$37, DW_AT_decl_line(0x65)
    1696                    .dwattr $C$DW$T$37, DW_AT_decl_column(0x03)
    1697            
    1698            
    1699            $C$DW$T$29      .dwtag  DW_TAG_structure_type
    1700                    .dwattr $C$DW$T$29, DW_AT_byte_size(0x0e)
    1701            $C$DW$89        .dwtag  DW_TAG_member
    1702                    .dwattr $C$DW$89, DW_AT_type(*$C$DW$T$23)
    1703                    .dwattr $C$DW$89, DW_AT_name("id")
    1704                    .dwattr $C$DW$89, DW_AT_TI_symbol_name("id")
    1705                    .dwattr $C$DW$89, DW_AT_data_member_location[DW_OP_plus_uconst 0x0]
    1706                    .dwattr $C$DW$89, DW_AT_accessibility(DW_ACCESS_public)
    1707                    .dwattr $C$DW$89, DW_AT_decl_file("C:/Users/kyle_/Documents/CodeComposerStudio/PIXIE_MSP430/in
    1708                    .dwattr $C$DW$89, DW_AT_decl_line(0x8a)
    1709                    .dwattr $C$DW$89, DW_AT_decl_column(0x15)
    1710            
    1711            $C$DW$90        .dwtag  DW_TAG_member
    1712                    .dwattr $C$DW$90, DW_AT_type(*$C$DW$T$28)
    1713                    .dwattr $C$DW$90, DW_AT_name("data")
MSP430 Assembler PC v21.6.1 Mon Feb 24 13:22:57 2025

Copyright (c) 2003-2018 Texas Instruments Incorporated
cmd.asm                                                              PAGE   38

    1714                    .dwattr $C$DW$90, DW_AT_TI_symbol_name("data")
    1715                    .dwattr $C$DW$90, DW_AT_data_member_location[DW_OP_plus_uconst 0x2]
    1716                    .dwattr $C$DW$90, DW_AT_accessibility(DW_ACCESS_public)
    1717                    .dwattr $C$DW$90, DW_AT_decl_file("C:/Users/kyle_/Documents/CodeComposerStudio/PIXIE_MSP430/in
    1718                    .dwattr $C$DW$90, DW_AT_decl_line(0x8b)
    1719                    .dwattr $C$DW$90, DW_AT_decl_column(0x15)
    1720            
    1721                    .dwattr $C$DW$T$29, DW_AT_decl_file("C:/Users/kyle_/Documents/CodeComposerStudio/PIXIE_MSP430/
    1722                    .dwattr $C$DW$T$29, DW_AT_decl_line(0x89)
    1723                    .dwattr $C$DW$T$29, DW_AT_decl_column(0x01)
    1724                    .dwendtag $C$DW$T$29
    1725            
    1726            $C$DW$T$41      .dwtag  DW_TAG_typedef
    1727                    .dwattr $C$DW$T$41, DW_AT_name("CMD_CommandContainer")
    1728                    .dwattr $C$DW$T$41, DW_AT_type(*$C$DW$T$29)
    1729                    .dwattr $C$DW$T$41, DW_AT_language(DW_LANG_C)
    1730                    .dwattr $C$DW$T$41, DW_AT_decl_file("C:/Users/kyle_/Documents/CodeComposerStudio/PIXIE_MSP430/
    1731                    .dwattr $C$DW$T$41, DW_AT_decl_line(0x8c)
    1732                    .dwattr $C$DW$T$41, DW_AT_decl_column(0x03)
    1733            
    1734            
    1735            $C$DW$T$30      .dwtag  DW_TAG_structure_type
    1736                    .dwattr $C$DW$T$30, DW_AT_byte_size(0x10)
    1737            $C$DW$91        .dwtag  DW_TAG_member
    1738                    .dwattr $C$DW$91, DW_AT_type(*$C$DW$T$14)
    1739                    .dwattr $C$DW$91, DW_AT_name("__max_align1")
    1740                    .dwattr $C$DW$91, DW_AT_TI_symbol_name("__max_align1")
    1741                    .dwattr $C$DW$91, DW_AT_data_member_location[DW_OP_plus_uconst 0x0]
    1742                    .dwattr $C$DW$91, DW_AT_accessibility(DW_ACCESS_public)
    1743                    .dwattr $C$DW$91, DW_AT_decl_file("C:/ti/ccs1250/ccs/tools/compiler/ti-cgt-msp430_21.6.1.LTS/i
    1744                    .dwattr $C$DW$91, DW_AT_decl_line(0x7b)
    1745                    .dwattr $C$DW$91, DW_AT_decl_column(0x0c)
    1746            
    1747            $C$DW$92        .dwtag  DW_TAG_member
    1748                    .dwattr $C$DW$92, DW_AT_type(*$C$DW$T$18)
    1749                    .dwattr $C$DW$92, DW_AT_name("__max_align2")
    1750                    .dwattr $C$DW$92, DW_AT_TI_symbol_name("__max_align2")
    1751                    .dwattr $C$DW$92, DW_AT_data_member_location[DW_OP_plus_uconst 0x8]
    1752                    .dwattr $C$DW$92, DW_AT_accessibility(DW_ACCESS_public)
    1753                    .dwattr $C$DW$92, DW_AT_decl_file("C:/ti/ccs1250/ccs/tools/compiler/ti-cgt-msp430_21.6.1.LTS/i
    1754                    .dwattr $C$DW$92, DW_AT_decl_line(0x7c)
    1755                    .dwattr $C$DW$92, DW_AT_decl_column(0x0e)
    1756            
    1757                    .dwattr $C$DW$T$30, DW_AT_decl_file("C:/ti/ccs1250/ccs/tools/compiler/ti-cgt-msp430_21.6.1.LTS
    1758                    .dwattr $C$DW$T$30, DW_AT_decl_line(0x7a)
    1759                    .dwattr $C$DW$T$30, DW_AT_decl_column(0x10)
    1760                    .dwendtag $C$DW$T$30
    1761            
    1762            $C$DW$T$43      .dwtag  DW_TAG_typedef
    1763                    .dwattr $C$DW$T$43, DW_AT_name("__max_align_t")
    1764                    .dwattr $C$DW$T$43, DW_AT_type(*$C$DW$T$30)
    1765                    .dwattr $C$DW$T$43, DW_AT_language(DW_LANG_C)
    1766                    .dwattr $C$DW$T$43, DW_AT_decl_file("C:/ti/ccs1250/ccs/tools/compiler/ti-cgt-msp430_21.6.1.LTS
    1767                    .dwattr $C$DW$T$43, DW_AT_decl_line(0x7d)
    1768                    .dwattr $C$DW$T$43, DW_AT_decl_column(0x03)
MSP430 Assembler PC v21.6.1 Mon Feb 24 13:22:57 2025

Copyright (c) 2003-2018 Texas Instruments Incorporated
cmd.asm                                                              PAGE   39

    1769            
    1770            
    1771            $C$DW$T$31      .dwtag  DW_TAG_structure_type
    1772                    .dwattr $C$DW$T$31, DW_AT_byte_size(0x04)
    1773            $C$DW$93        .dwtag  DW_TAG_member
    1774                    .dwattr $C$DW$93, DW_AT_type(*$C$DW$T$10)
    1775                    .dwattr $C$DW$93, DW_AT_name("quot")
    1776                    .dwattr $C$DW$93, DW_AT_TI_symbol_name("quot")
    1777                    .dwattr $C$DW$93, DW_AT_data_member_location[DW_OP_plus_uconst 0x0]
    1778                    .dwattr $C$DW$93, DW_AT_accessibility(DW_ACCESS_public)
    1779                    .dwattr $C$DW$93, DW_AT_decl_file("C:/ti/ccs1250/ccs/tools/compiler/ti-cgt-msp430_21.6.1.LTS/i
    1780                    .dwattr $C$DW$93, DW_AT_decl_line(0x56)
    1781                    .dwattr $C$DW$93, DW_AT_decl_column(0x16)
    1782            
    1783            $C$DW$94        .dwtag  DW_TAG_member
    1784                    .dwattr $C$DW$94, DW_AT_type(*$C$DW$T$10)
    1785                    .dwattr $C$DW$94, DW_AT_name("rem")
    1786                    .dwattr $C$DW$94, DW_AT_TI_symbol_name("rem")
    1787                    .dwattr $C$DW$94, DW_AT_data_member_location[DW_OP_plus_uconst 0x2]
    1788                    .dwattr $C$DW$94, DW_AT_accessibility(DW_ACCESS_public)
    1789                    .dwattr $C$DW$94, DW_AT_decl_file("C:/ti/ccs1250/ccs/tools/compiler/ti-cgt-msp430_21.6.1.LTS/i
    1790                    .dwattr $C$DW$94, DW_AT_decl_line(0x56)
    1791                    .dwattr $C$DW$94, DW_AT_decl_column(0x1c)
    1792            
    1793                    .dwattr $C$DW$T$31, DW_AT_decl_file("C:/ti/ccs1250/ccs/tools/compiler/ti-cgt-msp430_21.6.1.LTS
    1794                    .dwattr $C$DW$T$31, DW_AT_decl_line(0x56)
    1795                    .dwattr $C$DW$T$31, DW_AT_decl_column(0x10)
    1796                    .dwendtag $C$DW$T$31
    1797            
    1798            $C$DW$T$44      .dwtag  DW_TAG_typedef
    1799                    .dwattr $C$DW$T$44, DW_AT_name("div_t")
    1800                    .dwattr $C$DW$T$44, DW_AT_type(*$C$DW$T$31)
    1801                    .dwattr $C$DW$T$44, DW_AT_language(DW_LANG_C)
    1802                    .dwattr $C$DW$T$44, DW_AT_decl_file("C:/ti/ccs1250/ccs/tools/compiler/ti-cgt-msp430_21.6.1.LTS
    1803                    .dwattr $C$DW$T$44, DW_AT_decl_line(0x56)
    1804                    .dwattr $C$DW$T$44, DW_AT_decl_column(0x23)
    1805            
    1806            
    1807            $C$DW$T$32      .dwtag  DW_TAG_structure_type
    1808                    .dwattr $C$DW$T$32, DW_AT_byte_size(0x08)
    1809            $C$DW$95        .dwtag  DW_TAG_member
    1810                    .dwattr $C$DW$95, DW_AT_type(*$C$DW$T$12)
    1811                    .dwattr $C$DW$95, DW_AT_name("quot")
    1812                    .dwattr $C$DW$95, DW_AT_TI_symbol_name("quot")
    1813                    .dwattr $C$DW$95, DW_AT_data_member_location[DW_OP_plus_uconst 0x0]
    1814                    .dwattr $C$DW$95, DW_AT_accessibility(DW_ACCESS_public)
    1815                    .dwattr $C$DW$95, DW_AT_decl_file("C:/ti/ccs1250/ccs/tools/compiler/ti-cgt-msp430_21.6.1.LTS/i
    1816                    .dwattr $C$DW$95, DW_AT_decl_line(0x59)
    1817                    .dwattr $C$DW$95, DW_AT_decl_column(0x17)
    1818            
    1819            $C$DW$96        .dwtag  DW_TAG_member
    1820                    .dwattr $C$DW$96, DW_AT_type(*$C$DW$T$12)
    1821                    .dwattr $C$DW$96, DW_AT_name("rem")
    1822                    .dwattr $C$DW$96, DW_AT_TI_symbol_name("rem")
    1823                    .dwattr $C$DW$96, DW_AT_data_member_location[DW_OP_plus_uconst 0x4]
MSP430 Assembler PC v21.6.1 Mon Feb 24 13:22:57 2025

Copyright (c) 2003-2018 Texas Instruments Incorporated
cmd.asm                                                              PAGE   40

    1824                    .dwattr $C$DW$96, DW_AT_accessibility(DW_ACCESS_public)
    1825                    .dwattr $C$DW$96, DW_AT_decl_file("C:/ti/ccs1250/ccs/tools/compiler/ti-cgt-msp430_21.6.1.LTS/i
    1826                    .dwattr $C$DW$96, DW_AT_decl_line(0x59)
    1827                    .dwattr $C$DW$96, DW_AT_decl_column(0x1d)
    1828            
    1829                    .dwattr $C$DW$T$32, DW_AT_decl_file("C:/ti/ccs1250/ccs/tools/compiler/ti-cgt-msp430_21.6.1.LTS
    1830                    .dwattr $C$DW$T$32, DW_AT_decl_line(0x59)
    1831                    .dwattr $C$DW$T$32, DW_AT_decl_column(0x10)
    1832                    .dwendtag $C$DW$T$32
    1833            
    1834            $C$DW$T$45      .dwtag  DW_TAG_typedef
    1835                    .dwattr $C$DW$T$45, DW_AT_name("ldiv_t")
    1836                    .dwattr $C$DW$T$45, DW_AT_type(*$C$DW$T$32)
    1837                    .dwattr $C$DW$T$45, DW_AT_language(DW_LANG_C)
    1838                    .dwattr $C$DW$T$45, DW_AT_decl_file("C:/ti/ccs1250/ccs/tools/compiler/ti-cgt-msp430_21.6.1.LTS
    1839                    .dwattr $C$DW$T$45, DW_AT_decl_line(0x59)
    1840                    .dwattr $C$DW$T$45, DW_AT_decl_column(0x24)
    1841            
    1842            
    1843            $C$DW$T$33      .dwtag  DW_TAG_structure_type
    1844                    .dwattr $C$DW$T$33, DW_AT_byte_size(0x10)
    1845            $C$DW$97        .dwtag  DW_TAG_member
    1846                    .dwattr $C$DW$97, DW_AT_type(*$C$DW$T$14)
    1847                    .dwattr $C$DW$97, DW_AT_name("quot")
    1848                    .dwattr $C$DW$97, DW_AT_TI_symbol_name("quot")
    1849                    .dwattr $C$DW$97, DW_AT_data_member_location[DW_OP_plus_uconst 0x0]
    1850                    .dwattr $C$DW$97, DW_AT_accessibility(DW_ACCESS_public)
    1851                    .dwattr $C$DW$97, DW_AT_decl_file("C:/ti/ccs1250/ccs/tools/compiler/ti-cgt-msp430_21.6.1.LTS/i
    1852                    .dwattr $C$DW$97, DW_AT_decl_line(0x63)
    1853                    .dwattr $C$DW$97, DW_AT_decl_column(0x1c)
    1854            
    1855            $C$DW$98        .dwtag  DW_TAG_member
    1856                    .dwattr $C$DW$98, DW_AT_type(*$C$DW$T$14)
    1857                    .dwattr $C$DW$98, DW_AT_name("rem")
    1858                    .dwattr $C$DW$98, DW_AT_TI_symbol_name("rem")
    1859                    .dwattr $C$DW$98, DW_AT_data_member_location[DW_OP_plus_uconst 0x8]
    1860                    .dwattr $C$DW$98, DW_AT_accessibility(DW_ACCESS_public)
    1861                    .dwattr $C$DW$98, DW_AT_decl_file("C:/ti/ccs1250/ccs/tools/compiler/ti-cgt-msp430_21.6.1.LTS/i
    1862                    .dwattr $C$DW$98, DW_AT_decl_line(0x63)
    1863                    .dwattr $C$DW$98, DW_AT_decl_column(0x22)
    1864            
    1865                    .dwattr $C$DW$T$33, DW_AT_decl_file("C:/ti/ccs1250/ccs/tools/compiler/ti-cgt-msp430_21.6.1.LTS
    1866                    .dwattr $C$DW$T$33, DW_AT_decl_line(0x63)
    1867                    .dwattr $C$DW$T$33, DW_AT_decl_column(0x10)
    1868                    .dwendtag $C$DW$T$33
    1869            
    1870            $C$DW$T$46      .dwtag  DW_TAG_typedef
    1871                    .dwattr $C$DW$T$46, DW_AT_name("lldiv_t")
    1872                    .dwattr $C$DW$T$46, DW_AT_type(*$C$DW$T$33)
    1873                    .dwattr $C$DW$T$46, DW_AT_language(DW_LANG_C)
    1874                    .dwattr $C$DW$T$46, DW_AT_decl_file("C:/ti/ccs1250/ccs/tools/compiler/ti-cgt-msp430_21.6.1.LTS
    1875                    .dwattr $C$DW$T$46, DW_AT_decl_line(0x63)
    1876                    .dwattr $C$DW$T$46, DW_AT_decl_column(0x29)
    1877            
    1878            
MSP430 Assembler PC v21.6.1 Mon Feb 24 13:22:57 2025

Copyright (c) 2003-2018 Texas Instruments Incorporated
cmd.asm                                                              PAGE   41

    1879            $C$DW$T$38      .dwtag  DW_TAG_union_type
    1880                    .dwattr $C$DW$T$38, DW_AT_byte_size(0x0c)
    1881            $C$DW$99        .dwtag  DW_TAG_member
    1882                    .dwattr $C$DW$99, DW_AT_type(*$C$DW$T$23)
    1883                    .dwattr $C$DW$99, DW_AT_name("ERR")
    1884                    .dwattr $C$DW$99, DW_AT_TI_symbol_name("ERR")
    1885                    .dwattr $C$DW$99, DW_AT_data_member_location[DW_OP_plus_uconst 0x0]
    1886                    .dwattr $C$DW$99, DW_AT_accessibility(DW_ACCESS_public)
    1887                    .dwattr $C$DW$99, DW_AT_decl_file("C:/Users/kyle_/Documents/CodeComposerStudio/PIXIE_MSP430/in
    1888                    .dwattr $C$DW$99, DW_AT_decl_line(0x6e)
    1889                    .dwattr $C$DW$99, DW_AT_decl_column(0x15)
    1890            
    1891            $C$DW$100       .dwtag  DW_TAG_member
    1892                    .dwattr $C$DW$100, DW_AT_type(*$C$DW$T$34)
    1893                    .dwattr $C$DW$100, DW_AT_name("CLOCK")
    1894                    .dwattr $C$DW$100, DW_AT_TI_symbol_name("CLOCK")
    1895                    .dwattr $C$DW$100, DW_AT_data_member_location[DW_OP_plus_uconst 0x0]
    1896                    .dwattr $C$DW$100, DW_AT_accessibility(DW_ACCESS_public)
    1897                    .dwattr $C$DW$100, DW_AT_decl_file("C:/Users/kyle_/Documents/CodeComposerStudio/PIXIE_MSP430/i
    1898                    .dwattr $C$DW$100, DW_AT_decl_line(0x70)
    1899                    .dwattr $C$DW$100, DW_AT_decl_column(0x15)
    1900            
    1901            $C$DW$101       .dwtag  DW_TAG_member
    1902                    .dwattr $C$DW$101, DW_AT_type(*$C$DW$T$35)
    1903                    .dwattr $C$DW$101, DW_AT_name("HELP")
    1904                    .dwattr $C$DW$101, DW_AT_TI_symbol_name("HELP")
    1905                    .dwattr $C$DW$101, DW_AT_data_member_location[DW_OP_plus_uconst 0x0]
    1906                    .dwattr $C$DW$101, DW_AT_accessibility(DW_ACCESS_public)
    1907                    .dwattr $C$DW$101, DW_AT_decl_file("C:/Users/kyle_/Documents/CodeComposerStudio/PIXIE_MSP430/i
    1908                    .dwattr $C$DW$101, DW_AT_decl_line(0x72)
    1909                    .dwattr $C$DW$101, DW_AT_decl_column(0x15)
    1910            
    1911            $C$DW$102       .dwtag  DW_TAG_member
    1912                    .dwattr $C$DW$102, DW_AT_type(*$C$DW$T$35)
    1913                    .dwattr $C$DW$102, DW_AT_name("STATUS")
    1914                    .dwattr $C$DW$102, DW_AT_TI_symbol_name("STATUS")
    1915                    .dwattr $C$DW$102, DW_AT_data_member_location[DW_OP_plus_uconst 0x0]
    1916                    .dwattr $C$DW$102, DW_AT_accessibility(DW_ACCESS_public)
    1917                    .dwattr $C$DW$102, DW_AT_decl_file("C:/Users/kyle_/Documents/CodeComposerStudio/PIXIE_MSP430/i
    1918                    .dwattr $C$DW$102, DW_AT_decl_line(0x73)
    1919                    .dwattr $C$DW$102, DW_AT_decl_column(0x15)
    1920            
    1921            $C$DW$103       .dwtag  DW_TAG_member
    1922                    .dwattr $C$DW$103, DW_AT_type(*$C$DW$T$35)
    1923                    .dwattr $C$DW$103, DW_AT_name("GATTEN")
    1924                    .dwattr $C$DW$103, DW_AT_TI_symbol_name("GATTEN")
    1925                    .dwattr $C$DW$103, DW_AT_data_member_location[DW_OP_plus_uconst 0x0]
    1926                    .dwattr $C$DW$103, DW_AT_accessibility(DW_ACCESS_public)
    1927                    .dwattr $C$DW$103, DW_AT_decl_file("C:/Users/kyle_/Documents/CodeComposerStudio/PIXIE_MSP430/i
    1928                    .dwattr $C$DW$103, DW_AT_decl_line(0x74)
    1929                    .dwattr $C$DW$103, DW_AT_decl_column(0x15)
    1930            
    1931            $C$DW$104       .dwtag  DW_TAG_member
    1932                    .dwattr $C$DW$104, DW_AT_type(*$C$DW$T$35)
    1933                    .dwattr $C$DW$104, DW_AT_name("GGAIN")
MSP430 Assembler PC v21.6.1 Mon Feb 24 13:22:57 2025

Copyright (c) 2003-2018 Texas Instruments Incorporated
cmd.asm                                                              PAGE   42

    1934                    .dwattr $C$DW$104, DW_AT_TI_symbol_name("GGAIN")
    1935                    .dwattr $C$DW$104, DW_AT_data_member_location[DW_OP_plus_uconst 0x0]
    1936                    .dwattr $C$DW$104, DW_AT_accessibility(DW_ACCESS_public)
    1937                    .dwattr $C$DW$104, DW_AT_decl_file("C:/Users/kyle_/Documents/CodeComposerStudio/PIXIE_MSP430/i
    1938                    .dwattr $C$DW$104, DW_AT_decl_line(0x75)
    1939                    .dwattr $C$DW$104, DW_AT_decl_column(0x15)
    1940            
    1941            $C$DW$105       .dwtag  DW_TAG_member
    1942                    .dwattr $C$DW$105, DW_AT_type(*$C$DW$T$35)
    1943                    .dwattr $C$DW$105, DW_AT_name("GPGAIN")
    1944                    .dwattr $C$DW$105, DW_AT_TI_symbol_name("GPGAIN")
    1945                    .dwattr $C$DW$105, DW_AT_data_member_location[DW_OP_plus_uconst 0x0]
    1946                    .dwattr $C$DW$105, DW_AT_accessibility(DW_ACCESS_public)
    1947                    .dwattr $C$DW$105, DW_AT_decl_file("C:/Users/kyle_/Documents/CodeComposerStudio/PIXIE_MSP430/i
    1948                    .dwattr $C$DW$105, DW_AT_decl_line(0x76)
    1949                    .dwattr $C$DW$105, DW_AT_decl_column(0x15)
    1950            
    1951            $C$DW$106       .dwtag  DW_TAG_member
    1952                    .dwattr $C$DW$106, DW_AT_type(*$C$DW$T$35)
    1953                    .dwattr $C$DW$106, DW_AT_name("FLOOD")
    1954                    .dwattr $C$DW$106, DW_AT_TI_symbol_name("FLOOD")
    1955                    .dwattr $C$DW$106, DW_AT_data_member_location[DW_OP_plus_uconst 0x0]
    1956                    .dwattr $C$DW$106, DW_AT_accessibility(DW_ACCESS_public)
    1957                    .dwattr $C$DW$106, DW_AT_decl_file("C:/Users/kyle_/Documents/CodeComposerStudio/PIXIE_MSP430/i
    1958                    .dwattr $C$DW$106, DW_AT_decl_line(0x77)
    1959                    .dwattr $C$DW$106, DW_AT_decl_column(0x15)
    1960            
    1961            $C$DW$107       .dwtag  DW_TAG_member
    1962                    .dwattr $C$DW$107, DW_AT_type(*$C$DW$T$36)
    1963                    .dwattr $C$DW$107, DW_AT_name("SGAIN")
    1964                    .dwattr $C$DW$107, DW_AT_TI_symbol_name("SGAIN")
    1965                    .dwattr $C$DW$107, DW_AT_data_member_location[DW_OP_plus_uconst 0x0]
    1966                    .dwattr $C$DW$107, DW_AT_accessibility(DW_ACCESS_public)
    1967                    .dwattr $C$DW$107, DW_AT_decl_file("C:/Users/kyle_/Documents/CodeComposerStudio/PIXIE_MSP430/i
    1968                    .dwattr $C$DW$107, DW_AT_decl_line(0x79)
    1969                    .dwattr $C$DW$107, DW_AT_decl_column(0x15)
    1970            
    1971            $C$DW$108       .dwtag  DW_TAG_member
    1972                    .dwattr $C$DW$108, DW_AT_type(*$C$DW$T$36)
    1973                    .dwattr $C$DW$108, DW_AT_name("SPGAIN")
    1974                    .dwattr $C$DW$108, DW_AT_TI_symbol_name("SPGAIN")
    1975                    .dwattr $C$DW$108, DW_AT_data_member_location[DW_OP_plus_uconst 0x0]
    1976                    .dwattr $C$DW$108, DW_AT_accessibility(DW_ACCESS_public)
    1977                    .dwattr $C$DW$108, DW_AT_decl_file("C:/Users/kyle_/Documents/CodeComposerStudio/PIXIE_MSP430/i
    1978                    .dwattr $C$DW$108, DW_AT_decl_line(0x7a)
    1979                    .dwattr $C$DW$108, DW_AT_decl_column(0x15)
    1980            
    1981            $C$DW$109       .dwtag  DW_TAG_member
    1982                    .dwattr $C$DW$109, DW_AT_type(*$C$DW$T$36)
    1983                    .dwattr $C$DW$109, DW_AT_name("SATTEN")
    1984                    .dwattr $C$DW$109, DW_AT_TI_symbol_name("SATTEN")
    1985                    .dwattr $C$DW$109, DW_AT_data_member_location[DW_OP_plus_uconst 0x0]
    1986                    .dwattr $C$DW$109, DW_AT_accessibility(DW_ACCESS_public)
    1987                    .dwattr $C$DW$109, DW_AT_decl_file("C:/Users/kyle_/Documents/CodeComposerStudio/PIXIE_MSP430/i
    1988                    .dwattr $C$DW$109, DW_AT_decl_line(0x7b)
MSP430 Assembler PC v21.6.1 Mon Feb 24 13:22:57 2025

Copyright (c) 2003-2018 Texas Instruments Incorporated
cmd.asm                                                              PAGE   43

    1989                    .dwattr $C$DW$109, DW_AT_decl_column(0x15)
    1990            
    1991            $C$DW$110       .dwtag  DW_TAG_member
    1992                    .dwattr $C$DW$110, DW_AT_type(*$C$DW$T$37)
    1993                    .dwattr $C$DW$110, DW_AT_name("RUN")
    1994                    .dwattr $C$DW$110, DW_AT_TI_symbol_name("RUN")
    1995                    .dwattr $C$DW$110, DW_AT_data_member_location[DW_OP_plus_uconst 0x0]
    1996                    .dwattr $C$DW$110, DW_AT_accessibility(DW_ACCESS_public)
    1997                    .dwattr $C$DW$110, DW_AT_decl_file("C:/Users/kyle_/Documents/CodeComposerStudio/PIXIE_MSP430/i
    1998                    .dwattr $C$DW$110, DW_AT_decl_line(0x7d)
    1999                    .dwattr $C$DW$110, DW_AT_decl_column(0x15)
    2000            
    2001            $C$DW$111       .dwtag  DW_TAG_member
    2002                    .dwattr $C$DW$111, DW_AT_type(*$C$DW$T$37)
    2003                    .dwattr $C$DW$111, DW_AT_name("SPOOF")
    2004                    .dwattr $C$DW$111, DW_AT_TI_symbol_name("SPOOF")
    2005                    .dwattr $C$DW$111, DW_AT_data_member_location[DW_OP_plus_uconst 0x0]
    2006                    .dwattr $C$DW$111, DW_AT_accessibility(DW_ACCESS_public)
    2007                    .dwattr $C$DW$111, DW_AT_decl_file("C:/Users/kyle_/Documents/CodeComposerStudio/PIXIE_MSP430/i
    2008                    .dwattr $C$DW$111, DW_AT_decl_line(0x7e)
    2009                    .dwattr $C$DW$111, DW_AT_decl_column(0x15)
    2010            
    2011                    .dwattr $C$DW$T$38, DW_AT_decl_file("C:/Users/kyle_/Documents/CodeComposerStudio/PIXIE_MSP430/
    2012                    .dwattr $C$DW$T$38, DW_AT_decl_line(0x6d)
    2013                    .dwattr $C$DW$T$38, DW_AT_decl_column(0x01)
    2014                    .dwendtag $C$DW$T$38
    2015            
    2016            $C$DW$T$28      .dwtag  DW_TAG_typedef
    2017                    .dwattr $C$DW$T$28, DW_AT_name("CMD_CommandData")
    2018                    .dwattr $C$DW$T$28, DW_AT_type(*$C$DW$T$38)
    2019                    .dwattr $C$DW$T$28, DW_AT_language(DW_LANG_C)
    2020                    .dwattr $C$DW$T$28, DW_AT_decl_file("C:/Users/kyle_/Documents/CodeComposerStudio/PIXIE_MSP430/
    2021                    .dwattr $C$DW$T$28, DW_AT_decl_line(0x80)
    2022                    .dwattr $C$DW$T$28, DW_AT_decl_column(0x03)
    2023            
    2024            $C$DW$T$2       .dwtag  DW_TAG_unspecified_type
    2025                    .dwattr $C$DW$T$2, DW_AT_name("void")
    2026            
    2027            
    2028            $C$DW$T$47      .dwtag  DW_TAG_subroutine_type
    2029                    .dwattr $C$DW$T$47, DW_AT_language(DW_LANG_C)
    2030                    .dwendtag $C$DW$T$47
    2031            
    2032            $C$DW$T$48      .dwtag  DW_TAG_pointer_type
    2033                    .dwattr $C$DW$T$48, DW_AT_type(*$C$DW$T$47)
    2034                    .dwattr $C$DW$T$48, DW_AT_address_class(0x14)
    2035            
    2036            $C$DW$T$49      .dwtag  DW_TAG_typedef
    2037                    .dwattr $C$DW$T$49, DW_AT_name("__SFR_FARPTR")
    2038                    .dwattr $C$DW$T$49, DW_AT_type(*$C$DW$T$48)
    2039                    .dwattr $C$DW$T$49, DW_AT_language(DW_LANG_C)
    2040                    .dwattr $C$DW$T$49, DW_AT_decl_file("C:\ti\ccs1250\ccs\ccs_base\msp430\include\msp430fg6626.h"
    2041                    .dwattr $C$DW$T$49, DW_AT_decl_line(0x46)
    2042                    .dwattr $C$DW$T$49, DW_AT_decl_column(0x11)
    2043            
MSP430 Assembler PC v21.6.1 Mon Feb 24 13:22:57 2025

Copyright (c) 2003-2018 Texas Instruments Incorporated
cmd.asm                                                              PAGE   44

    2044            
    2045            $C$DW$T$50      .dwtag  DW_TAG_subroutine_type
    2046                    .dwattr $C$DW$T$50, DW_AT_language(DW_LANG_C)
    2047                    .dwendtag $C$DW$T$50
    2048            
    2049            $C$DW$T$51      .dwtag  DW_TAG_pointer_type
    2050                    .dwattr $C$DW$T$51, DW_AT_type(*$C$DW$T$50)
    2051                    .dwattr $C$DW$T$51, DW_AT_address_class(0x14)
    2052            
    2053            $C$DW$T$52      .dwtag  DW_TAG_typedef
    2054                    .dwattr $C$DW$T$52, DW_AT_name("__TI_atexit_fn")
    2055                    .dwattr $C$DW$T$52, DW_AT_type(*$C$DW$T$51)
    2056                    .dwattr $C$DW$T$52, DW_AT_language(DW_LANG_C)
    2057                    .dwattr $C$DW$T$52, DW_AT_decl_file("C:/ti/ccs1250/ccs/tools/compiler/ti-cgt-msp430_21.6.1.LTS
    2058                    .dwattr $C$DW$T$52, DW_AT_decl_line(0xcf)
    2059                    .dwattr $C$DW$T$52, DW_AT_decl_column(0x14)
    2060            
    2061            $C$DW$112       .dwtag  DW_TAG_TI_far_type
    2062                    .dwattr $C$DW$112, DW_AT_type(*$C$DW$T$2)
    2063            
    2064            $C$DW$T$53      .dwtag  DW_TAG_const_type
    2065                    .dwattr $C$DW$T$53, DW_AT_type(*$C$DW$112)
    2066            
    2067            $C$DW$T$54      .dwtag  DW_TAG_pointer_type
    2068                    .dwattr $C$DW$T$54, DW_AT_type(*$C$DW$T$53)
    2069                    .dwattr $C$DW$T$54, DW_AT_address_class(0x14)
    2070            
    2071            $C$DW$T$4       .dwtag  DW_TAG_base_type
    2072                    .dwattr $C$DW$T$4, DW_AT_encoding(DW_ATE_boolean)
    2073                    .dwattr $C$DW$T$4, DW_AT_name("bool")
    2074                    .dwattr $C$DW$T$4, DW_AT_byte_size(0x01)
    2075            
    2076            $C$DW$T$5       .dwtag  DW_TAG_base_type
    2077                    .dwattr $C$DW$T$5, DW_AT_encoding(DW_ATE_signed_char)
    2078                    .dwattr $C$DW$T$5, DW_AT_name("signed char")
    2079                    .dwattr $C$DW$T$5, DW_AT_byte_size(0x01)
    2080            
    2081            $C$DW$T$55      .dwtag  DW_TAG_typedef
    2082                    .dwattr $C$DW$T$55, DW_AT_name("__int8_t")
    2083                    .dwattr $C$DW$T$55, DW_AT_type(*$C$DW$T$5)
    2084                    .dwattr $C$DW$T$55, DW_AT_language(DW_LANG_C)
    2085                    .dwattr $C$DW$T$55, DW_AT_decl_file("C:/ti/ccs1250/ccs/tools/compiler/ti-cgt-msp430_21.6.1.LTS
    2086                    .dwattr $C$DW$T$55, DW_AT_decl_line(0x36)
    2087                    .dwattr $C$DW$T$55, DW_AT_decl_column(0x16)
    2088            
    2089            $C$DW$T$56      .dwtag  DW_TAG_typedef
    2090                    .dwattr $C$DW$T$56, DW_AT_name("__int_least8_t")
    2091                    .dwattr $C$DW$T$56, DW_AT_type(*$C$DW$T$55)
    2092                    .dwattr $C$DW$T$56, DW_AT_language(DW_LANG_C)
    2093                    .dwattr $C$DW$T$56, DW_AT_decl_file("C:/ti/ccs1250/ccs/tools/compiler/ti-cgt-msp430_21.6.1.LTS
    2094                    .dwattr $C$DW$T$56, DW_AT_decl_line(0x5a)
    2095                    .dwattr $C$DW$T$56, DW_AT_decl_column(0x12)
    2096            
    2097            $C$DW$T$57      .dwtag  DW_TAG_typedef
    2098                    .dwattr $C$DW$T$57, DW_AT_name("int_least8_t")
MSP430 Assembler PC v21.6.1 Mon Feb 24 13:22:57 2025

Copyright (c) 2003-2018 Texas Instruments Incorporated
cmd.asm                                                              PAGE   45

    2099                    .dwattr $C$DW$T$57, DW_AT_type(*$C$DW$T$56)
    2100                    .dwattr $C$DW$T$57, DW_AT_language(DW_LANG_C)
    2101                    .dwattr $C$DW$T$57, DW_AT_decl_file("C:/ti/ccs1250/ccs/tools/compiler/ti-cgt-msp430_21.6.1.LTS
    2102                    .dwattr $C$DW$T$57, DW_AT_decl_line(0x2a)
    2103                    .dwattr $C$DW$T$57, DW_AT_decl_column(0x19)
    2104            
    2105            $C$DW$T$58      .dwtag  DW_TAG_typedef
    2106                    .dwattr $C$DW$T$58, DW_AT_name("int8_t")
    2107                    .dwattr $C$DW$T$58, DW_AT_type(*$C$DW$T$55)
    2108                    .dwattr $C$DW$T$58, DW_AT_language(DW_LANG_C)
    2109                    .dwattr $C$DW$T$58, DW_AT_decl_file("C:/ti/ccs1250/ccs/tools/compiler/ti-cgt-msp430_21.6.1.LTS
    2110                    .dwattr $C$DW$T$58, DW_AT_decl_line(0x25)
    2111                    .dwattr $C$DW$T$58, DW_AT_decl_column(0x13)
    2112            
    2113            $C$DW$T$6       .dwtag  DW_TAG_base_type
    2114                    .dwattr $C$DW$T$6, DW_AT_encoding(DW_ATE_unsigned_char)
    2115                    .dwattr $C$DW$T$6, DW_AT_name("unsigned char")
    2116                    .dwattr $C$DW$T$6, DW_AT_byte_size(0x01)
    2117            
    2118            $C$DW$T$39      .dwtag  DW_TAG_pointer_type
    2119                    .dwattr $C$DW$T$39, DW_AT_type(*$C$DW$T$6)
    2120                    .dwattr $C$DW$T$39, DW_AT_address_class(0x14)
    2121            
    2122            $C$DW$T$68      .dwtag  DW_TAG_typedef
    2123                    .dwattr $C$DW$T$68, DW_AT_name("__uint8_t")
    2124                    .dwattr $C$DW$T$68, DW_AT_type(*$C$DW$T$6)
    2125                    .dwattr $C$DW$T$68, DW_AT_language(DW_LANG_C)
    2126                    .dwattr $C$DW$T$68, DW_AT_decl_file("C:/ti/ccs1250/ccs/tools/compiler/ti-cgt-msp430_21.6.1.LTS
    2127                    .dwattr $C$DW$T$68, DW_AT_decl_line(0x37)
    2128                    .dwattr $C$DW$T$68, DW_AT_decl_column(0x18)
    2129            
    2130            $C$DW$T$69      .dwtag  DW_TAG_typedef
    2131                    .dwattr $C$DW$T$69, DW_AT_name("__sa_family_t")
    2132                    .dwattr $C$DW$T$69, DW_AT_type(*$C$DW$T$68)
    2133                    .dwattr $C$DW$T$69, DW_AT_language(DW_LANG_C)
    2134                    .dwattr $C$DW$T$69, DW_AT_decl_file("C:/ti/ccs1250/ccs/tools/compiler/ti-cgt-msp430_21.6.1.LTS
    2135                    .dwattr $C$DW$T$69, DW_AT_decl_line(0x47)
    2136                    .dwattr $C$DW$T$69, DW_AT_decl_column(0x13)
    2137            
    2138            $C$DW$T$70      .dwtag  DW_TAG_typedef
    2139                    .dwattr $C$DW$T$70, DW_AT_name("__uint_least8_t")
    2140                    .dwattr $C$DW$T$70, DW_AT_type(*$C$DW$T$68)
    2141                    .dwattr $C$DW$T$70, DW_AT_language(DW_LANG_C)
    2142                    .dwattr $C$DW$T$70, DW_AT_decl_file("C:/ti/ccs1250/ccs/tools/compiler/ti-cgt-msp430_21.6.1.LTS
    2143                    .dwattr $C$DW$T$70, DW_AT_decl_line(0x74)
    2144                    .dwattr $C$DW$T$70, DW_AT_decl_column(0x13)
    2145            
    2146            $C$DW$T$71      .dwtag  DW_TAG_typedef
    2147                    .dwattr $C$DW$T$71, DW_AT_name("uint_least8_t")
    2148                    .dwattr $C$DW$T$71, DW_AT_type(*$C$DW$T$70)
    2149                    .dwattr $C$DW$T$71, DW_AT_language(DW_LANG_C)
    2150                    .dwattr $C$DW$T$71, DW_AT_decl_file("C:/ti/ccs1250/ccs/tools/compiler/ti-cgt-msp430_21.6.1.LTS
    2151                    .dwattr $C$DW$T$71, DW_AT_decl_line(0x2f)
    2152                    .dwattr $C$DW$T$71, DW_AT_decl_column(0x1a)
    2153            
MSP430 Assembler PC v21.6.1 Mon Feb 24 13:22:57 2025

Copyright (c) 2003-2018 Texas Instruments Incorporated
cmd.asm                                                              PAGE   46

    2154            $C$DW$T$72      .dwtag  DW_TAG_typedef
    2155                    .dwattr $C$DW$T$72, DW_AT_name("uint8_t")
    2156                    .dwattr $C$DW$T$72, DW_AT_type(*$C$DW$T$68)
    2157                    .dwattr $C$DW$T$72, DW_AT_language(DW_LANG_C)
    2158                    .dwattr $C$DW$T$72, DW_AT_decl_file("C:/ti/ccs1250/ccs/tools/compiler/ti-cgt-msp430_21.6.1.LTS
    2159                    .dwattr $C$DW$T$72, DW_AT_decl_line(0x3b)
    2160                    .dwattr $C$DW$T$72, DW_AT_decl_column(0x14)
    2161            
    2162            $C$DW$T$7       .dwtag  DW_TAG_base_type
    2163                    .dwattr $C$DW$T$7, DW_AT_encoding(DW_ATE_signed_char)
    2164                    .dwattr $C$DW$T$7, DW_AT_name("wchar_t")
    2165                    .dwattr $C$DW$T$7, DW_AT_byte_size(0x02)
    2166            
    2167            $C$DW$T$8       .dwtag  DW_TAG_base_type
    2168                    .dwattr $C$DW$T$8, DW_AT_encoding(DW_ATE_signed)
    2169                    .dwattr $C$DW$T$8, DW_AT_name("short")
    2170                    .dwattr $C$DW$T$8, DW_AT_byte_size(0x02)
    2171            
    2172            $C$DW$T$9       .dwtag  DW_TAG_base_type
    2173                    .dwattr $C$DW$T$9, DW_AT_encoding(DW_ATE_unsigned)
    2174                    .dwattr $C$DW$T$9, DW_AT_name("unsigned short")
    2175                    .dwattr $C$DW$T$9, DW_AT_byte_size(0x02)
    2176            
    2177            $C$DW$T$10      .dwtag  DW_TAG_base_type
    2178                    .dwattr $C$DW$T$10, DW_AT_encoding(DW_ATE_signed)
    2179                    .dwattr $C$DW$T$10, DW_AT_name("int")
    2180                    .dwattr $C$DW$T$10, DW_AT_byte_size(0x02)
    2181            
    2182            $C$DW$T$73      .dwtag  DW_TAG_typedef
    2183                    .dwattr $C$DW$T$73, DW_AT_name("_Mbstatet")
    2184                    .dwattr $C$DW$T$73, DW_AT_type(*$C$DW$T$10)
    2185                    .dwattr $C$DW$T$73, DW_AT_language(DW_LANG_C)
    2186                    .dwattr $C$DW$T$73, DW_AT_decl_file("C:/ti/ccs1250/ccs/tools/compiler/ti-cgt-msp430_21.6.1.LTS
    2187                    .dwattr $C$DW$T$73, DW_AT_decl_line(0x8f)
    2188                    .dwattr $C$DW$T$73, DW_AT_decl_column(0x0d)
    2189            
    2190            $C$DW$T$74      .dwtag  DW_TAG_typedef
    2191                    .dwattr $C$DW$T$74, DW_AT_name("__mbstate_t")
    2192                    .dwattr $C$DW$T$74, DW_AT_type(*$C$DW$T$73)
    2193                    .dwattr $C$DW$T$74, DW_AT_language(DW_LANG_C)
    2194                    .dwattr $C$DW$T$74, DW_AT_decl_file("C:/ti/ccs1250/ccs/tools/compiler/ti-cgt-msp430_21.6.1.LTS
    2195                    .dwattr $C$DW$T$74, DW_AT_decl_line(0x92)
    2196                    .dwattr $C$DW$T$74, DW_AT_decl_column(0x13)
    2197            
    2198            $C$DW$T$75      .dwtag  DW_TAG_typedef
    2199                    .dwattr $C$DW$T$75, DW_AT_name("__accmode_t")
    2200                    .dwattr $C$DW$T$75, DW_AT_type(*$C$DW$T$10)
    2201                    .dwattr $C$DW$T$75, DW_AT_language(DW_LANG_C)
    2202                    .dwattr $C$DW$T$75, DW_AT_decl_file("C:/ti/ccs1250/ccs/tools/compiler/ti-cgt-msp430_21.6.1.LTS
    2203                    .dwattr $C$DW$T$75, DW_AT_decl_line(0x3b)
    2204                    .dwattr $C$DW$T$75, DW_AT_decl_column(0x0e)
    2205            
    2206            
    2207            $C$DW$T$78      .dwtag  DW_TAG_subroutine_type
    2208                    .dwattr $C$DW$T$78, DW_AT_type(*$C$DW$T$10)
MSP430 Assembler PC v21.6.1 Mon Feb 24 13:22:57 2025

Copyright (c) 2003-2018 Texas Instruments Incorporated
cmd.asm                                                              PAGE   47

    2209                    .dwattr $C$DW$T$78, DW_AT_language(DW_LANG_C)
    2210            $C$DW$113       .dwtag  DW_TAG_formal_parameter
    2211                    .dwattr $C$DW$113, DW_AT_type(*$C$DW$T$54)
    2212            
    2213            $C$DW$114       .dwtag  DW_TAG_formal_parameter
    2214                    .dwattr $C$DW$114, DW_AT_type(*$C$DW$T$54)
    2215            
    2216                    .dwendtag $C$DW$T$78
    2217            
    2218            $C$DW$T$79      .dwtag  DW_TAG_pointer_type
    2219                    .dwattr $C$DW$T$79, DW_AT_type(*$C$DW$T$78)
    2220                    .dwattr $C$DW$T$79, DW_AT_address_class(0x14)
    2221            
    2222            $C$DW$T$80      .dwtag  DW_TAG_typedef
    2223                    .dwattr $C$DW$T$80, DW_AT_name("__TI_compar_fn")
    2224                    .dwattr $C$DW$T$80, DW_AT_type(*$C$DW$T$79)
    2225                    .dwattr $C$DW$T$80, DW_AT_language(DW_LANG_C)
    2226                    .dwattr $C$DW$T$80, DW_AT_decl_file("C:/ti/ccs1250/ccs/tools/compiler/ti-cgt-msp430_21.6.1.LTS
    2227                    .dwattr $C$DW$T$80, DW_AT_decl_line(0xd2)
    2228                    .dwattr $C$DW$T$80, DW_AT_decl_column(0x13)
    2229            
    2230            $C$DW$T$81      .dwtag  DW_TAG_typedef
    2231                    .dwattr $C$DW$T$81, DW_AT_name("__cpulevel_t")
    2232                    .dwattr $C$DW$T$81, DW_AT_type(*$C$DW$T$10)
    2233                    .dwattr $C$DW$T$81, DW_AT_language(DW_LANG_C)
    2234                    .dwattr $C$DW$T$81, DW_AT_decl_file("C:/ti/ccs1250/ccs/tools/compiler/ti-cgt-msp430_21.6.1.LTS
    2235                    .dwattr $C$DW$T$81, DW_AT_decl_line(0x50)
    2236                    .dwattr $C$DW$T$81, DW_AT_decl_column(0x0e)
    2237            
    2238            $C$DW$T$82      .dwtag  DW_TAG_typedef
    2239                    .dwattr $C$DW$T$82, DW_AT_name("__cpusetid_t")
    2240                    .dwattr $C$DW$T$82, DW_AT_type(*$C$DW$T$10)
    2241                    .dwattr $C$DW$T$82, DW_AT_language(DW_LANG_C)
    2242                    .dwattr $C$DW$T$82, DW_AT_decl_file("C:/ti/ccs1250/ccs/tools/compiler/ti-cgt-msp430_21.6.1.LTS
    2243                    .dwattr $C$DW$T$82, DW_AT_decl_line(0x51)
    2244                    .dwattr $C$DW$T$82, DW_AT_decl_column(0x0e)
    2245            
    2246            $C$DW$T$83      .dwtag  DW_TAG_typedef
    2247                    .dwattr $C$DW$T$83, DW_AT_name("__cpuwhich_t")
    2248                    .dwattr $C$DW$T$83, DW_AT_type(*$C$DW$T$10)
    2249                    .dwattr $C$DW$T$83, DW_AT_language(DW_LANG_C)
    2250                    .dwattr $C$DW$T$83, DW_AT_decl_file("C:/ti/ccs1250/ccs/tools/compiler/ti-cgt-msp430_21.6.1.LTS
    2251                    .dwattr $C$DW$T$83, DW_AT_decl_line(0x4f)
    2252                    .dwattr $C$DW$T$83, DW_AT_decl_column(0x0e)
    2253            
    2254            $C$DW$T$84      .dwtag  DW_TAG_typedef
    2255                    .dwattr $C$DW$T$84, DW_AT_name("__ct_rune_t")
    2256                    .dwattr $C$DW$T$84, DW_AT_type(*$C$DW$T$10)
    2257                    .dwattr $C$DW$T$84, DW_AT_language(DW_LANG_C)
    2258                    .dwattr $C$DW$T$84, DW_AT_decl_file("C:/ti/ccs1250/ccs/tools/compiler/ti-cgt-msp430_21.6.1.LTS
    2259                    .dwattr $C$DW$T$84, DW_AT_decl_line(0x69)
    2260                    .dwattr $C$DW$T$84, DW_AT_decl_column(0x0e)
    2261            
    2262            $C$DW$T$85      .dwtag  DW_TAG_typedef
    2263                    .dwattr $C$DW$T$85, DW_AT_name("__rune_t")
MSP430 Assembler PC v21.6.1 Mon Feb 24 13:22:57 2025

Copyright (c) 2003-2018 Texas Instruments Incorporated
cmd.asm                                                              PAGE   48

    2264                    .dwattr $C$DW$T$85, DW_AT_type(*$C$DW$T$84)
    2265                    .dwattr $C$DW$T$85, DW_AT_language(DW_LANG_C)
    2266                    .dwattr $C$DW$T$85, DW_AT_decl_file("C:/ti/ccs1250/ccs/tools/compiler/ti-cgt-msp430_21.6.1.LTS
    2267                    .dwattr $C$DW$T$85, DW_AT_decl_line(0x6c)
    2268                    .dwattr $C$DW$T$85, DW_AT_decl_column(0x15)
    2269            
    2270            $C$DW$T$86      .dwtag  DW_TAG_typedef
    2271                    .dwattr $C$DW$T$86, DW_AT_name("__wint_t")
    2272                    .dwattr $C$DW$T$86, DW_AT_type(*$C$DW$T$84)
    2273                    .dwattr $C$DW$T$86, DW_AT_language(DW_LANG_C)
    2274                    .dwattr $C$DW$T$86, DW_AT_decl_file("C:/ti/ccs1250/ccs/tools/compiler/ti-cgt-msp430_21.6.1.LTS
    2275                    .dwattr $C$DW$T$86, DW_AT_decl_line(0x6d)
    2276                    .dwattr $C$DW$T$86, DW_AT_decl_column(0x15)
    2277            
    2278            $C$DW$T$87      .dwtag  DW_TAG_typedef
    2279                    .dwattr $C$DW$T$87, DW_AT_name("__int16_t")
    2280                    .dwattr $C$DW$T$87, DW_AT_type(*$C$DW$T$10)
    2281                    .dwattr $C$DW$T$87, DW_AT_language(DW_LANG_C)
    2282                    .dwattr $C$DW$T$87, DW_AT_decl_file("C:/ti/ccs1250/ccs/tools/compiler/ti-cgt-msp430_21.6.1.LTS
    2283                    .dwattr $C$DW$T$87, DW_AT_decl_line(0x38)
    2284                    .dwattr $C$DW$T$87, DW_AT_decl_column(0x0f)
    2285            
    2286            $C$DW$T$88      .dwtag  DW_TAG_typedef
    2287                    .dwattr $C$DW$T$88, DW_AT_name("__int_fast16_t")
    2288                    .dwattr $C$DW$T$88, DW_AT_type(*$C$DW$T$87)
    2289                    .dwattr $C$DW$T$88, DW_AT_language(DW_LANG_C)
    2290                    .dwattr $C$DW$T$88, DW_AT_decl_file("C:/ti/ccs1250/ccs/tools/compiler/ti-cgt-msp430_21.6.1.LTS
    2291                    .dwattr $C$DW$T$88, DW_AT_decl_line(0x57)
    2292                    .dwattr $C$DW$T$88, DW_AT_decl_column(0x13)
    2293            
    2294            $C$DW$T$89      .dwtag  DW_TAG_typedef
    2295                    .dwattr $C$DW$T$89, DW_AT_name("int_fast16_t")
    2296                    .dwattr $C$DW$T$89, DW_AT_type(*$C$DW$T$88)
    2297                    .dwattr $C$DW$T$89, DW_AT_language(DW_LANG_C)
    2298                    .dwattr $C$DW$T$89, DW_AT_decl_file("C:/ti/ccs1250/ccs/tools/compiler/ti-cgt-msp430_21.6.1.LTS
    2299                    .dwattr $C$DW$T$89, DW_AT_decl_line(0x35)
    2300                    .dwattr $C$DW$T$89, DW_AT_decl_column(0x19)
    2301            
    2302            $C$DW$T$90      .dwtag  DW_TAG_typedef
    2303                    .dwattr $C$DW$T$90, DW_AT_name("__int_fast8_t")
    2304                    .dwattr $C$DW$T$90, DW_AT_type(*$C$DW$T$87)
    2305                    .dwattr $C$DW$T$90, DW_AT_language(DW_LANG_C)
    2306                    .dwattr $C$DW$T$90, DW_AT_decl_file("C:/ti/ccs1250/ccs/tools/compiler/ti-cgt-msp430_21.6.1.LTS
    2307                    .dwattr $C$DW$T$90, DW_AT_decl_line(0x56)
    2308                    .dwattr $C$DW$T$90, DW_AT_decl_column(0x13)
    2309            
    2310            $C$DW$T$91      .dwtag  DW_TAG_typedef
    2311                    .dwattr $C$DW$T$91, DW_AT_name("int_fast8_t")
    2312                    .dwattr $C$DW$T$91, DW_AT_type(*$C$DW$T$90)
    2313                    .dwattr $C$DW$T$91, DW_AT_language(DW_LANG_C)
    2314                    .dwattr $C$DW$T$91, DW_AT_decl_file("C:/ti/ccs1250/ccs/tools/compiler/ti-cgt-msp430_21.6.1.LTS
    2315                    .dwattr $C$DW$T$91, DW_AT_decl_line(0x34)
    2316                    .dwattr $C$DW$T$91, DW_AT_decl_column(0x18)
    2317            
    2318            $C$DW$T$92      .dwtag  DW_TAG_typedef
MSP430 Assembler PC v21.6.1 Mon Feb 24 13:22:57 2025

Copyright (c) 2003-2018 Texas Instruments Incorporated
cmd.asm                                                              PAGE   49

    2319                    .dwattr $C$DW$T$92, DW_AT_name("__int_least16_t")
    2320                    .dwattr $C$DW$T$92, DW_AT_type(*$C$DW$T$87)
    2321                    .dwattr $C$DW$T$92, DW_AT_language(DW_LANG_C)
    2322                    .dwattr $C$DW$T$92, DW_AT_decl_file("C:/ti/ccs1250/ccs/tools/compiler/ti-cgt-msp430_21.6.1.LTS
    2323                    .dwattr $C$DW$T$92, DW_AT_decl_line(0x5b)
    2324                    .dwattr $C$DW$T$92, DW_AT_decl_column(0x13)
    2325            
    2326            $C$DW$T$93      .dwtag  DW_TAG_typedef
    2327                    .dwattr $C$DW$T$93, DW_AT_name("int_least16_t")
    2328                    .dwattr $C$DW$T$93, DW_AT_type(*$C$DW$T$92)
    2329                    .dwattr $C$DW$T$93, DW_AT_language(DW_LANG_C)
    2330                    .dwattr $C$DW$T$93, DW_AT_decl_file("C:/ti/ccs1250/ccs/tools/compiler/ti-cgt-msp430_21.6.1.LTS
    2331                    .dwattr $C$DW$T$93, DW_AT_decl_line(0x2b)
    2332                    .dwattr $C$DW$T$93, DW_AT_decl_column(0x1a)
    2333            
    2334            $C$DW$T$94      .dwtag  DW_TAG_typedef
    2335                    .dwattr $C$DW$T$94, DW_AT_name("__register_t")
    2336                    .dwattr $C$DW$T$94, DW_AT_type(*$C$DW$T$87)
    2337                    .dwattr $C$DW$T$94, DW_AT_language(DW_LANG_C)
    2338                    .dwattr $C$DW$T$94, DW_AT_decl_file("C:/ti/ccs1250/ccs/tools/compiler/ti-cgt-msp430_21.6.1.LTS
    2339                    .dwattr $C$DW$T$94, DW_AT_decl_line(0x5f)
    2340                    .dwattr $C$DW$T$94, DW_AT_decl_column(0x13)
    2341            
    2342            $C$DW$T$95      .dwtag  DW_TAG_typedef
    2343                    .dwattr $C$DW$T$95, DW_AT_name("int16_t")
    2344                    .dwattr $C$DW$T$95, DW_AT_type(*$C$DW$T$87)
    2345                    .dwattr $C$DW$T$95, DW_AT_language(DW_LANG_C)
    2346                    .dwattr $C$DW$T$95, DW_AT_decl_file("C:/ti/ccs1250/ccs/tools/compiler/ti-cgt-msp430_21.6.1.LTS
    2347                    .dwattr $C$DW$T$95, DW_AT_decl_line(0x2b)
    2348                    .dwattr $C$DW$T$95, DW_AT_decl_column(0x14)
    2349            
    2350            $C$DW$T$96      .dwtag  DW_TAG_typedef
    2351                    .dwattr $C$DW$T$96, DW_AT_name("__nl_item")
    2352                    .dwattr $C$DW$T$96, DW_AT_type(*$C$DW$T$10)
    2353                    .dwattr $C$DW$T$96, DW_AT_language(DW_LANG_C)
    2354                    .dwattr $C$DW$T$96, DW_AT_decl_file("C:/ti/ccs1250/ccs/tools/compiler/ti-cgt-msp430_21.6.1.LTS
    2355                    .dwattr $C$DW$T$96, DW_AT_decl_line(0x3c)
    2356                    .dwattr $C$DW$T$96, DW_AT_decl_column(0x0e)
    2357            
    2358            $C$DW$T$97      .dwtag  DW_TAG_typedef
    2359                    .dwattr $C$DW$T$97, DW_AT_name("__ptrdiff_t")
    2360                    .dwattr $C$DW$T$97, DW_AT_type(*$C$DW$T$10)
    2361                    .dwattr $C$DW$T$97, DW_AT_language(DW_LANG_C)
    2362                    .dwattr $C$DW$T$97, DW_AT_decl_file("C:/ti/ccs1250/ccs/tools/compiler/ti-cgt-msp430_21.6.1.LTS
    2363                    .dwattr $C$DW$T$97, DW_AT_decl_line(0x5e)
    2364                    .dwattr $C$DW$T$97, DW_AT_decl_column(0x1c)
    2365            
    2366            $C$DW$T$11      .dwtag  DW_TAG_base_type
    2367                    .dwattr $C$DW$T$11, DW_AT_encoding(DW_ATE_unsigned)
    2368                    .dwattr $C$DW$T$11, DW_AT_name("unsigned int")
    2369                    .dwattr $C$DW$T$11, DW_AT_byte_size(0x02)
    2370            
    2371            $C$DW$T$98      .dwtag  DW_TAG_typedef
    2372                    .dwattr $C$DW$T$98, DW_AT_name("___wchar_t")
    2373                    .dwattr $C$DW$T$98, DW_AT_type(*$C$DW$T$11)
MSP430 Assembler PC v21.6.1 Mon Feb 24 13:22:57 2025

Copyright (c) 2003-2018 Texas Instruments Incorporated
cmd.asm                                                              PAGE   50

    2374                    .dwattr $C$DW$T$98, DW_AT_language(DW_LANG_C)
    2375                    .dwattr $C$DW$T$98, DW_AT_decl_file("C:/ti/ccs1250/ccs/tools/compiler/ti-cgt-msp430_21.6.1.LTS
    2376                    .dwattr $C$DW$T$98, DW_AT_decl_line(0x7d)
    2377                    .dwattr $C$DW$T$98, DW_AT_decl_column(0x1a)
    2378            
    2379            $C$DW$T$101     .dwtag  DW_TAG_typedef
    2380                    .dwattr $C$DW$T$101, DW_AT_name("__size_t")
    2381                    .dwattr $C$DW$T$101, DW_AT_type(*$C$DW$T$11)
    2382                    .dwattr $C$DW$T$101, DW_AT_language(DW_LANG_C)
    2383                    .dwattr $C$DW$T$101, DW_AT_decl_file("C:/ti/ccs1250/ccs/tools/compiler/ti-cgt-msp430_21.6.1.LT
    2384                    .dwattr $C$DW$T$101, DW_AT_decl_line(0x61)
    2385                    .dwattr $C$DW$T$101, DW_AT_decl_column(0x19)
    2386            
    2387            $C$DW$T$22      .dwtag  DW_TAG_typedef
    2388                    .dwattr $C$DW$T$22, DW_AT_name("__uint16_t")
    2389                    .dwattr $C$DW$T$22, DW_AT_type(*$C$DW$T$11)
    2390                    .dwattr $C$DW$T$22, DW_AT_language(DW_LANG_C)
    2391                    .dwattr $C$DW$T$22, DW_AT_decl_file("C:/ti/ccs1250/ccs/tools/compiler/ti-cgt-msp430_21.6.1.LTS
    2392                    .dwattr $C$DW$T$22, DW_AT_decl_line(0x39)
    2393                    .dwattr $C$DW$T$22, DW_AT_decl_column(0x17)
    2394            
    2395            $C$DW$T$102     .dwtag  DW_TAG_typedef
    2396                    .dwattr $C$DW$T$102, DW_AT_name("__mode_t")
    2397                    .dwattr $C$DW$T$102, DW_AT_type(*$C$DW$T$22)
    2398                    .dwattr $C$DW$T$102, DW_AT_language(DW_LANG_C)
    2399                    .dwattr $C$DW$T$102, DW_AT_decl_file("C:/ti/ccs1250/ccs/tools/compiler/ti-cgt-msp430_21.6.1.LT
    2400                    .dwattr $C$DW$T$102, DW_AT_decl_line(0x3a)
    2401                    .dwattr $C$DW$T$102, DW_AT_decl_column(0x14)
    2402            
    2403            $C$DW$T$103     .dwtag  DW_TAG_typedef
    2404                    .dwattr $C$DW$T$103, DW_AT_name("__u_register_t")
    2405                    .dwattr $C$DW$T$103, DW_AT_type(*$C$DW$T$22)
    2406                    .dwattr $C$DW$T$103, DW_AT_language(DW_LANG_C)
    2407                    .dwattr $C$DW$T$103, DW_AT_decl_file("C:/ti/ccs1250/ccs/tools/compiler/ti-cgt-msp430_21.6.1.LT
    2408                    .dwattr $C$DW$T$103, DW_AT_decl_line(0x78)
    2409                    .dwattr $C$DW$T$103, DW_AT_decl_column(0x14)
    2410            
    2411            $C$DW$T$104     .dwtag  DW_TAG_typedef
    2412                    .dwattr $C$DW$T$104, DW_AT_name("__uint_fast16_t")
    2413                    .dwattr $C$DW$T$104, DW_AT_type(*$C$DW$T$22)
    2414                    .dwattr $C$DW$T$104, DW_AT_language(DW_LANG_C)
    2415                    .dwattr $C$DW$T$104, DW_AT_decl_file("C:/ti/ccs1250/ccs/tools/compiler/ti-cgt-msp430_21.6.1.LT
    2416                    .dwattr $C$DW$T$104, DW_AT_decl_line(0x71)
    2417                    .dwattr $C$DW$T$104, DW_AT_decl_column(0x14)
    2418            
    2419            $C$DW$T$105     .dwtag  DW_TAG_typedef
    2420                    .dwattr $C$DW$T$105, DW_AT_name("uint_fast16_t")
    2421                    .dwattr $C$DW$T$105, DW_AT_type(*$C$DW$T$104)
    2422                    .dwattr $C$DW$T$105, DW_AT_language(DW_LANG_C)
    2423                    .dwattr $C$DW$T$105, DW_AT_decl_file("C:/ti/ccs1250/ccs/tools/compiler/ti-cgt-msp430_21.6.1.LT
    2424                    .dwattr $C$DW$T$105, DW_AT_decl_line(0x3a)
    2425                    .dwattr $C$DW$T$105, DW_AT_decl_column(0x1a)
    2426            
    2427            $C$DW$T$106     .dwtag  DW_TAG_typedef
    2428                    .dwattr $C$DW$T$106, DW_AT_name("__uint_fast8_t")
MSP430 Assembler PC v21.6.1 Mon Feb 24 13:22:57 2025

Copyright (c) 2003-2018 Texas Instruments Incorporated
cmd.asm                                                              PAGE   51

    2429                    .dwattr $C$DW$T$106, DW_AT_type(*$C$DW$T$22)
    2430                    .dwattr $C$DW$T$106, DW_AT_language(DW_LANG_C)
    2431                    .dwattr $C$DW$T$106, DW_AT_decl_file("C:/ti/ccs1250/ccs/tools/compiler/ti-cgt-msp430_21.6.1.LT
    2432                    .dwattr $C$DW$T$106, DW_AT_decl_line(0x70)
    2433                    .dwattr $C$DW$T$106, DW_AT_decl_column(0x14)
    2434            
    2435            $C$DW$T$107     .dwtag  DW_TAG_typedef
    2436                    .dwattr $C$DW$T$107, DW_AT_name("uint_fast8_t")
    2437                    .dwattr $C$DW$T$107, DW_AT_type(*$C$DW$T$106)
    2438                    .dwattr $C$DW$T$107, DW_AT_language(DW_LANG_C)
    2439                    .dwattr $C$DW$T$107, DW_AT_decl_file("C:/ti/ccs1250/ccs/tools/compiler/ti-cgt-msp430_21.6.1.LT
    2440                    .dwattr $C$DW$T$107, DW_AT_decl_line(0x39)
    2441                    .dwattr $C$DW$T$107, DW_AT_decl_column(0x19)
    2442            
    2443            $C$DW$T$108     .dwtag  DW_TAG_typedef
    2444                    .dwattr $C$DW$T$108, DW_AT_name("__uint_least16_t")
    2445                    .dwattr $C$DW$T$108, DW_AT_type(*$C$DW$T$22)
    2446                    .dwattr $C$DW$T$108, DW_AT_language(DW_LANG_C)
    2447                    .dwattr $C$DW$T$108, DW_AT_decl_file("C:/ti/ccs1250/ccs/tools/compiler/ti-cgt-msp430_21.6.1.LT
    2448                    .dwattr $C$DW$T$108, DW_AT_decl_line(0x75)
    2449                    .dwattr $C$DW$T$108, DW_AT_decl_column(0x14)
    2450            
    2451            $C$DW$T$109     .dwtag  DW_TAG_typedef
    2452                    .dwattr $C$DW$T$109, DW_AT_name("__char16_t")
    2453                    .dwattr $C$DW$T$109, DW_AT_type(*$C$DW$T$108)
    2454                    .dwattr $C$DW$T$109, DW_AT_language(DW_LANG_C)
    2455                    .dwattr $C$DW$T$109, DW_AT_decl_file("C:/ti/ccs1250/ccs/tools/compiler/ti-cgt-msp430_21.6.1.LT
    2456                    .dwattr $C$DW$T$109, DW_AT_decl_line(0x71)
    2457                    .dwattr $C$DW$T$109, DW_AT_decl_column(0x1a)
    2458            
    2459            $C$DW$T$110     .dwtag  DW_TAG_typedef
    2460                    .dwattr $C$DW$T$110, DW_AT_name("uint_least16_t")
    2461                    .dwattr $C$DW$T$110, DW_AT_type(*$C$DW$T$108)
    2462                    .dwattr $C$DW$T$110, DW_AT_language(DW_LANG_C)
    2463                    .dwattr $C$DW$T$110, DW_AT_decl_file("C:/ti/ccs1250/ccs/tools/compiler/ti-cgt-msp430_21.6.1.LT
    2464                    .dwattr $C$DW$T$110, DW_AT_decl_line(0x30)
    2465                    .dwattr $C$DW$T$110, DW_AT_decl_column(0x1a)
    2466            
    2467            $C$DW$T$23      .dwtag  DW_TAG_typedef
    2468                    .dwattr $C$DW$T$23, DW_AT_name("uint16_t")
    2469                    .dwattr $C$DW$T$23, DW_AT_type(*$C$DW$T$22)
    2470                    .dwattr $C$DW$T$23, DW_AT_language(DW_LANG_C)
    2471                    .dwattr $C$DW$T$23, DW_AT_decl_file("C:/ti/ccs1250/ccs/tools/compiler/ti-cgt-msp430_21.6.1.LTS
    2472                    .dwattr $C$DW$T$23, DW_AT_decl_line(0x41)
    2473                    .dwattr $C$DW$T$23, DW_AT_decl_column(0x15)
    2474            
    2475            $C$DW$T$112     .dwtag  DW_TAG_typedef
    2476                    .dwattr $C$DW$T$112, DW_AT_name("__useconds_t")
    2477                    .dwattr $C$DW$T$112, DW_AT_type(*$C$DW$T$11)
    2478                    .dwattr $C$DW$T$112, DW_AT_language(DW_LANG_C)
    2479                    .dwattr $C$DW$T$112, DW_AT_decl_file("C:/ti/ccs1250/ccs/tools/compiler/ti-cgt-msp430_21.6.1.LT
    2480                    .dwattr $C$DW$T$112, DW_AT_decl_line(0x4e)
    2481                    .dwattr $C$DW$T$112, DW_AT_decl_column(0x16)
    2482            
    2483            $C$DW$T$113     .dwtag  DW_TAG_typedef
MSP430 Assembler PC v21.6.1 Mon Feb 24 13:22:57 2025

Copyright (c) 2003-2018 Texas Instruments Incorporated
cmd.asm                                                              PAGE   52

    2484                    .dwattr $C$DW$T$113, DW_AT_name("size_t")
    2485                    .dwattr $C$DW$T$113, DW_AT_type(*$C$DW$T$11)
    2486                    .dwattr $C$DW$T$113, DW_AT_language(DW_LANG_C)
    2487                    .dwattr $C$DW$T$113, DW_AT_decl_file("C:/ti/ccs1250/ccs/tools/compiler/ti-cgt-msp430_21.6.1.LT
    2488                    .dwattr $C$DW$T$113, DW_AT_decl_line(0x4d)
    2489                    .dwattr $C$DW$T$113, DW_AT_decl_column(0x19)
    2490            
    2491            $C$DW$T$114     .dwtag  DW_TAG_typedef
    2492                    .dwattr $C$DW$T$114, DW_AT_name("wchar_t")
    2493                    .dwattr $C$DW$T$114, DW_AT_type(*$C$DW$T$11)
    2494                    .dwattr $C$DW$T$114, DW_AT_language(DW_LANG_C)
    2495                    .dwattr $C$DW$T$114, DW_AT_decl_file("C:/ti/ccs1250/ccs/tools/compiler/ti-cgt-msp430_21.6.1.LT
    2496                    .dwattr $C$DW$T$114, DW_AT_decl_line(0x83)
    2497                    .dwattr $C$DW$T$114, DW_AT_decl_column(0x1a)
    2498            
    2499            $C$DW$T$12      .dwtag  DW_TAG_base_type
    2500                    .dwattr $C$DW$T$12, DW_AT_encoding(DW_ATE_signed)
    2501                    .dwattr $C$DW$T$12, DW_AT_name("long")
    2502                    .dwattr $C$DW$T$12, DW_AT_byte_size(0x04)
    2503            
    2504            $C$DW$T$115     .dwtag  DW_TAG_typedef
    2505                    .dwattr $C$DW$T$115, DW_AT_name("__int32_t")
    2506                    .dwattr $C$DW$T$115, DW_AT_type(*$C$DW$T$12)
    2507                    .dwattr $C$DW$T$115, DW_AT_language(DW_LANG_C)
    2508                    .dwattr $C$DW$T$115, DW_AT_decl_file("C:/ti/ccs1250/ccs/tools/compiler/ti-cgt-msp430_21.6.1.LT
    2509                    .dwattr $C$DW$T$115, DW_AT_decl_line(0x3a)
    2510                    .dwattr $C$DW$T$115, DW_AT_decl_column(0x10)
    2511            
    2512            $C$DW$T$116     .dwtag  DW_TAG_typedef
    2513                    .dwattr $C$DW$T$116, DW_AT_name("__blksize_t")
    2514                    .dwattr $C$DW$T$116, DW_AT_type(*$C$DW$T$115)
    2515                    .dwattr $C$DW$T$116, DW_AT_language(DW_LANG_C)
    2516                    .dwattr $C$DW$T$116, DW_AT_decl_file("C:/ti/ccs1250/ccs/tools/compiler/ti-cgt-msp430_21.6.1.LT
    2517                    .dwattr $C$DW$T$116, DW_AT_decl_line(0x2f)
    2518                    .dwattr $C$DW$T$116, DW_AT_decl_column(0x13)
    2519            
    2520            $C$DW$T$117     .dwtag  DW_TAG_typedef
    2521                    .dwattr $C$DW$T$117, DW_AT_name("__clockid_t")
    2522                    .dwattr $C$DW$T$117, DW_AT_type(*$C$DW$T$115)
    2523                    .dwattr $C$DW$T$117, DW_AT_language(DW_LANG_C)
    2524                    .dwattr $C$DW$T$117, DW_AT_decl_file("C:/ti/ccs1250/ccs/tools/compiler/ti-cgt-msp430_21.6.1.LT
    2525                    .dwattr $C$DW$T$117, DW_AT_decl_line(0x31)
    2526                    .dwattr $C$DW$T$117, DW_AT_decl_column(0x13)
    2527            
    2528            $C$DW$T$118     .dwtag  DW_TAG_typedef
    2529                    .dwattr $C$DW$T$118, DW_AT_name("__critical_t")
    2530                    .dwattr $C$DW$T$118, DW_AT_type(*$C$DW$T$115)
    2531                    .dwattr $C$DW$T$118, DW_AT_language(DW_LANG_C)
    2532                    .dwattr $C$DW$T$118, DW_AT_decl_file("C:/ti/ccs1250/ccs/tools/compiler/ti-cgt-msp430_21.6.1.LT
    2533                    .dwattr $C$DW$T$118, DW_AT_decl_line(0x4b)
    2534                    .dwattr $C$DW$T$118, DW_AT_decl_column(0x13)
    2535            
    2536            $C$DW$T$119     .dwtag  DW_TAG_typedef
    2537                    .dwattr $C$DW$T$119, DW_AT_name("__int_fast32_t")
    2538                    .dwattr $C$DW$T$119, DW_AT_type(*$C$DW$T$115)
MSP430 Assembler PC v21.6.1 Mon Feb 24 13:22:57 2025

Copyright (c) 2003-2018 Texas Instruments Incorporated
cmd.asm                                                              PAGE   53

    2539                    .dwattr $C$DW$T$119, DW_AT_language(DW_LANG_C)
    2540                    .dwattr $C$DW$T$119, DW_AT_decl_file("C:/ti/ccs1250/ccs/tools/compiler/ti-cgt-msp430_21.6.1.LT
    2541                    .dwattr $C$DW$T$119, DW_AT_decl_line(0x58)
    2542                    .dwattr $C$DW$T$119, DW_AT_decl_column(0x13)
    2543            
    2544            $C$DW$T$120     .dwtag  DW_TAG_typedef
    2545                    .dwattr $C$DW$T$120, DW_AT_name("int_fast32_t")
    2546                    .dwattr $C$DW$T$120, DW_AT_type(*$C$DW$T$119)
    2547                    .dwattr $C$DW$T$120, DW_AT_language(DW_LANG_C)
    2548                    .dwattr $C$DW$T$120, DW_AT_decl_file("C:/ti/ccs1250/ccs/tools/compiler/ti-cgt-msp430_21.6.1.LT
    2549                    .dwattr $C$DW$T$120, DW_AT_decl_line(0x36)
    2550                    .dwattr $C$DW$T$120, DW_AT_decl_column(0x19)
    2551            
    2552            $C$DW$T$121     .dwtag  DW_TAG_typedef
    2553                    .dwattr $C$DW$T$121, DW_AT_name("__int_least32_t")
    2554                    .dwattr $C$DW$T$121, DW_AT_type(*$C$DW$T$115)
    2555                    .dwattr $C$DW$T$121, DW_AT_language(DW_LANG_C)
    2556                    .dwattr $C$DW$T$121, DW_AT_decl_file("C:/ti/ccs1250/ccs/tools/compiler/ti-cgt-msp430_21.6.1.LT
    2557                    .dwattr $C$DW$T$121, DW_AT_decl_line(0x5c)
    2558                    .dwattr $C$DW$T$121, DW_AT_decl_column(0x13)
    2559            
    2560            $C$DW$T$122     .dwtag  DW_TAG_typedef
    2561                    .dwattr $C$DW$T$122, DW_AT_name("int_least32_t")
    2562                    .dwattr $C$DW$T$122, DW_AT_type(*$C$DW$T$121)
    2563                    .dwattr $C$DW$T$122, DW_AT_language(DW_LANG_C)
    2564                    .dwattr $C$DW$T$122, DW_AT_decl_file("C:/ti/ccs1250/ccs/tools/compiler/ti-cgt-msp430_21.6.1.LT
    2565                    .dwattr $C$DW$T$122, DW_AT_decl_line(0x2c)
    2566                    .dwattr $C$DW$T$122, DW_AT_decl_column(0x1a)
    2567            
    2568            $C$DW$T$123     .dwtag  DW_TAG_typedef
    2569                    .dwattr $C$DW$T$123, DW_AT_name("__intfptr_t")
    2570                    .dwattr $C$DW$T$123, DW_AT_type(*$C$DW$T$115)
    2571                    .dwattr $C$DW$T$123, DW_AT_language(DW_LANG_C)
    2572                    .dwattr $C$DW$T$123, DW_AT_decl_file("C:/ti/ccs1250/ccs/tools/compiler/ti-cgt-msp430_21.6.1.LT
    2573                    .dwattr $C$DW$T$123, DW_AT_decl_line(0x4e)
    2574                    .dwattr $C$DW$T$123, DW_AT_decl_column(0x13)
    2575            
    2576            $C$DW$T$124     .dwtag  DW_TAG_typedef
    2577                    .dwattr $C$DW$T$124, DW_AT_name("__intptr_t")
    2578                    .dwattr $C$DW$T$124, DW_AT_type(*$C$DW$T$115)
    2579                    .dwattr $C$DW$T$124, DW_AT_language(DW_LANG_C)
    2580                    .dwattr $C$DW$T$124, DW_AT_decl_file("C:/ti/ccs1250/ccs/tools/compiler/ti-cgt-msp430_21.6.1.LT
    2581                    .dwattr $C$DW$T$124, DW_AT_decl_line(0x51)
    2582                    .dwattr $C$DW$T$124, DW_AT_decl_column(0x13)
    2583            
    2584            $C$DW$T$125     .dwtag  DW_TAG_typedef
    2585                    .dwattr $C$DW$T$125, DW_AT_name("intptr_t")
    2586                    .dwattr $C$DW$T$125, DW_AT_type(*$C$DW$T$124)
    2587                    .dwattr $C$DW$T$125, DW_AT_language(DW_LANG_C)
    2588                    .dwattr $C$DW$T$125, DW_AT_decl_file("C:/ti/ccs1250/ccs/tools/compiler/ti-cgt-msp430_21.6.1.LT
    2589                    .dwattr $C$DW$T$125, DW_AT_decl_line(0x50)
    2590                    .dwattr $C$DW$T$125, DW_AT_decl_column(0x15)
    2591            
    2592            $C$DW$T$126     .dwtag  DW_TAG_typedef
    2593                    .dwattr $C$DW$T$126, DW_AT_name("__lwpid_t")
MSP430 Assembler PC v21.6.1 Mon Feb 24 13:22:57 2025

Copyright (c) 2003-2018 Texas Instruments Incorporated
cmd.asm                                                              PAGE   54

    2594                    .dwattr $C$DW$T$126, DW_AT_type(*$C$DW$T$115)
    2595                    .dwattr $C$DW$T$126, DW_AT_language(DW_LANG_C)
    2596                    .dwattr $C$DW$T$126, DW_AT_decl_file("C:/ti/ccs1250/ccs/tools/compiler/ti-cgt-msp430_21.6.1.LT
    2597                    .dwattr $C$DW$T$126, DW_AT_decl_line(0x39)
    2598                    .dwattr $C$DW$T$126, DW_AT_decl_column(0x13)
    2599            
    2600            $C$DW$T$127     .dwtag  DW_TAG_typedef
    2601                    .dwattr $C$DW$T$127, DW_AT_name("__pid_t")
    2602                    .dwattr $C$DW$T$127, DW_AT_type(*$C$DW$T$115)
    2603                    .dwattr $C$DW$T$127, DW_AT_language(DW_LANG_C)
    2604                    .dwattr $C$DW$T$127, DW_AT_decl_file("C:/ti/ccs1250/ccs/tools/compiler/ti-cgt-msp430_21.6.1.LT
    2605                    .dwattr $C$DW$T$127, DW_AT_decl_line(0x40)
    2606                    .dwattr $C$DW$T$127, DW_AT_decl_column(0x13)
    2607            
    2608            $C$DW$T$128     .dwtag  DW_TAG_typedef
    2609                    .dwattr $C$DW$T$128, DW_AT_name("__segsz_t")
    2610                    .dwattr $C$DW$T$128, DW_AT_type(*$C$DW$T$115)
    2611                    .dwattr $C$DW$T$128, DW_AT_language(DW_LANG_C)
    2612                    .dwattr $C$DW$T$128, DW_AT_decl_file("C:/ti/ccs1250/ccs/tools/compiler/ti-cgt-msp430_21.6.1.LT
    2613                    .dwattr $C$DW$T$128, DW_AT_decl_line(0x60)
    2614                    .dwattr $C$DW$T$128, DW_AT_decl_column(0x13)
    2615            
    2616            $C$DW$T$129     .dwtag  DW_TAG_typedef
    2617                    .dwattr $C$DW$T$129, DW_AT_name("__ssize_t")
    2618                    .dwattr $C$DW$T$129, DW_AT_type(*$C$DW$T$115)
    2619                    .dwattr $C$DW$T$129, DW_AT_language(DW_LANG_C)
    2620                    .dwattr $C$DW$T$129, DW_AT_decl_file("C:/ti/ccs1250/ccs/tools/compiler/ti-cgt-msp430_21.6.1.LT
    2621                    .dwattr $C$DW$T$129, DW_AT_decl_line(0x62)
    2622                    .dwattr $C$DW$T$129, DW_AT_decl_column(0x13)
    2623            
    2624            $C$DW$T$130     .dwtag  DW_TAG_typedef
    2625                    .dwattr $C$DW$T$130, DW_AT_name("int32_t")
    2626                    .dwattr $C$DW$T$130, DW_AT_type(*$C$DW$T$115)
    2627                    .dwattr $C$DW$T$130, DW_AT_language(DW_LANG_C)
    2628                    .dwattr $C$DW$T$130, DW_AT_decl_file("C:/ti/ccs1250/ccs/tools/compiler/ti-cgt-msp430_21.6.1.LT
    2629                    .dwattr $C$DW$T$130, DW_AT_decl_line(0x30)
    2630                    .dwattr $C$DW$T$130, DW_AT_decl_column(0x14)
    2631            
    2632            $C$DW$T$131     .dwtag  DW_TAG_typedef
    2633                    .dwattr $C$DW$T$131, DW_AT_name("__key_t")
    2634                    .dwattr $C$DW$T$131, DW_AT_type(*$C$DW$T$12)
    2635                    .dwattr $C$DW$T$131, DW_AT_language(DW_LANG_C)
    2636                    .dwattr $C$DW$T$131, DW_AT_decl_file("C:/ti/ccs1250/ccs/tools/compiler/ti-cgt-msp430_21.6.1.LT
    2637                    .dwattr $C$DW$T$131, DW_AT_decl_line(0x38)
    2638                    .dwattr $C$DW$T$131, DW_AT_decl_column(0x0f)
    2639            
    2640            $C$DW$T$132     .dwtag  DW_TAG_typedef
    2641                    .dwattr $C$DW$T$132, DW_AT_name("__suseconds_t")
    2642                    .dwattr $C$DW$T$132, DW_AT_type(*$C$DW$T$12)
    2643                    .dwattr $C$DW$T$132, DW_AT_language(DW_LANG_C)
    2644                    .dwattr $C$DW$T$132, DW_AT_decl_file("C:/ti/ccs1250/ccs/tools/compiler/ti-cgt-msp430_21.6.1.LT
    2645                    .dwattr $C$DW$T$132, DW_AT_decl_line(0x4a)
    2646                    .dwattr $C$DW$T$132, DW_AT_decl_column(0x0f)
    2647            
    2648            $C$DW$T$133     .dwtag  DW_TAG_typedef
MSP430 Assembler PC v21.6.1 Mon Feb 24 13:22:57 2025

Copyright (c) 2003-2018 Texas Instruments Incorporated
cmd.asm                                                              PAGE   55

    2649                    .dwattr $C$DW$T$133, DW_AT_name("_off_t")
    2650                    .dwattr $C$DW$T$133, DW_AT_type(*$C$DW$T$12)
    2651                    .dwattr $C$DW$T$133, DW_AT_language(DW_LANG_C)
    2652                    .dwattr $C$DW$T$133, DW_AT_decl_file("C:/ti/ccs1250/ccs/tools/compiler/ti-cgt-msp430_21.6.1.LT
    2653                    .dwattr $C$DW$T$133, DW_AT_decl_line(0x8d)
    2654                    .dwattr $C$DW$T$133, DW_AT_decl_column(0x12)
    2655            
    2656            $C$DW$T$134     .dwtag  DW_TAG_typedef
    2657                    .dwattr $C$DW$T$134, DW_AT_name("__off_t")
    2658                    .dwattr $C$DW$T$134, DW_AT_type(*$C$DW$T$133)
    2659                    .dwattr $C$DW$T$134, DW_AT_language(DW_LANG_C)
    2660                    .dwattr $C$DW$T$134, DW_AT_decl_file("C:/ti/ccs1250/ccs/tools/compiler/ti-cgt-msp430_21.6.1.LT
    2661                    .dwattr $C$DW$T$134, DW_AT_decl_line(0x3e)
    2662                    .dwattr $C$DW$T$134, DW_AT_decl_column(0x18)
    2663            
    2664            $C$DW$T$135     .dwtag  DW_TAG_typedef
    2665                    .dwattr $C$DW$T$135, DW_AT_name("fpos_t")
    2666                    .dwattr $C$DW$T$135, DW_AT_type(*$C$DW$T$12)
    2667                    .dwattr $C$DW$T$135, DW_AT_language(DW_LANG_C)
    2668                    .dwattr $C$DW$T$135, DW_AT_decl_file("C:/ti/ccs1250/ccs/tools/compiler/ti-cgt-msp430_21.6.1.LT
    2669                    .dwattr $C$DW$T$135, DW_AT_decl_line(0x6b)
    2670                    .dwattr $C$DW$T$135, DW_AT_decl_column(0x0e)
    2671            
    2672            $C$DW$T$136     .dwtag  DW_TAG_typedef
    2673                    .dwattr $C$DW$T$136, DW_AT_name("off_t")
    2674                    .dwattr $C$DW$T$136, DW_AT_type(*$C$DW$T$12)
    2675                    .dwattr $C$DW$T$136, DW_AT_language(DW_LANG_C)
    2676                    .dwattr $C$DW$T$136, DW_AT_decl_file("C:/ti/ccs1250/ccs/tools/compiler/ti-cgt-msp430_21.6.1.LT
    2677                    .dwattr $C$DW$T$136, DW_AT_decl_line(0x74)
    2678                    .dwattr $C$DW$T$136, DW_AT_decl_column(0x0e)
    2679            
    2680            $C$DW$T$13      .dwtag  DW_TAG_base_type
    2681                    .dwattr $C$DW$T$13, DW_AT_encoding(DW_ATE_unsigned)
    2682                    .dwattr $C$DW$T$13, DW_AT_name("unsigned long")
    2683                    .dwattr $C$DW$T$13, DW_AT_byte_size(0x04)
    2684            
    2685            $C$DW$T$138     .dwtag  DW_TAG_typedef
    2686                    .dwattr $C$DW$T$138, DW_AT_name("__uint32_t")
    2687                    .dwattr $C$DW$T$138, DW_AT_type(*$C$DW$T$13)
    2688                    .dwattr $C$DW$T$138, DW_AT_language(DW_LANG_C)
    2689                    .dwattr $C$DW$T$138, DW_AT_decl_file("C:/ti/ccs1250/ccs/tools/compiler/ti-cgt-msp430_21.6.1.LT
    2690                    .dwattr $C$DW$T$138, DW_AT_decl_line(0x3b)
    2691                    .dwattr $C$DW$T$138, DW_AT_decl_column(0x18)
    2692            
    2693            $C$DW$T$139     .dwtag  DW_TAG_typedef
    2694                    .dwattr $C$DW$T$139, DW_AT_name("__clock_t")
    2695                    .dwattr $C$DW$T$139, DW_AT_type(*$C$DW$T$138)
    2696                    .dwattr $C$DW$T$139, DW_AT_language(DW_LANG_C)
    2697                    .dwattr $C$DW$T$139, DW_AT_decl_file("C:/ti/ccs1250/ccs/tools/compiler/ti-cgt-msp430_21.6.1.LT
    2698                    .dwattr $C$DW$T$139, DW_AT_decl_line(0x4a)
    2699                    .dwattr $C$DW$T$139, DW_AT_decl_column(0x14)
    2700            
    2701            $C$DW$T$140     .dwtag  DW_TAG_typedef
    2702                    .dwattr $C$DW$T$140, DW_AT_name("__fflags_t")
    2703                    .dwattr $C$DW$T$140, DW_AT_type(*$C$DW$T$138)
MSP430 Assembler PC v21.6.1 Mon Feb 24 13:22:57 2025

Copyright (c) 2003-2018 Texas Instruments Incorporated
cmd.asm                                                              PAGE   56

    2704                    .dwattr $C$DW$T$140, DW_AT_language(DW_LANG_C)
    2705                    .dwattr $C$DW$T$140, DW_AT_decl_file("C:/ti/ccs1250/ccs/tools/compiler/ti-cgt-msp430_21.6.1.LT
    2706                    .dwattr $C$DW$T$140, DW_AT_decl_line(0x32)
    2707                    .dwattr $C$DW$T$140, DW_AT_decl_column(0x14)
    2708            
    2709            $C$DW$T$141     .dwtag  DW_TAG_typedef
    2710                    .dwattr $C$DW$T$141, DW_AT_name("__fixpt_t")
    2711                    .dwattr $C$DW$T$141, DW_AT_type(*$C$DW$T$138)
    2712                    .dwattr $C$DW$T$141, DW_AT_language(DW_LANG_C)
    2713                    .dwattr $C$DW$T$141, DW_AT_decl_file("C:/ti/ccs1250/ccs/tools/compiler/ti-cgt-msp430_21.6.1.LT
    2714                    .dwattr $C$DW$T$141, DW_AT_decl_line(0x81)
    2715                    .dwattr $C$DW$T$141, DW_AT_decl_column(0x14)
    2716            
    2717            $C$DW$T$142     .dwtag  DW_TAG_typedef
    2718                    .dwattr $C$DW$T$142, DW_AT_name("__gid_t")
    2719                    .dwattr $C$DW$T$142, DW_AT_type(*$C$DW$T$138)
    2720                    .dwattr $C$DW$T$142, DW_AT_language(DW_LANG_C)
    2721                    .dwattr $C$DW$T$142, DW_AT_decl_file("C:/ti/ccs1250/ccs/tools/compiler/ti-cgt-msp430_21.6.1.LT
    2722                    .dwattr $C$DW$T$142, DW_AT_decl_line(0x35)
    2723                    .dwattr $C$DW$T$142, DW_AT_decl_column(0x14)
    2724            
    2725            $C$DW$T$143     .dwtag  DW_TAG_typedef
    2726                    .dwattr $C$DW$T$143, DW_AT_name("__socklen_t")
    2727                    .dwattr $C$DW$T$143, DW_AT_type(*$C$DW$T$138)
    2728                    .dwattr $C$DW$T$143, DW_AT_language(DW_LANG_C)
    2729                    .dwattr $C$DW$T$143, DW_AT_decl_file("C:/ti/ccs1250/ccs/tools/compiler/ti-cgt-msp430_21.6.1.LT
    2730                    .dwattr $C$DW$T$143, DW_AT_decl_line(0x49)
    2731                    .dwattr $C$DW$T$143, DW_AT_decl_column(0x14)
    2732            
    2733            $C$DW$T$144     .dwtag  DW_TAG_typedef
    2734                    .dwattr $C$DW$T$144, DW_AT_name("__time_t")
    2735                    .dwattr $C$DW$T$144, DW_AT_type(*$C$DW$T$138)
    2736                    .dwattr $C$DW$T$144, DW_AT_language(DW_LANG_C)
    2737                    .dwattr $C$DW$T$144, DW_AT_decl_file("C:/ti/ccs1250/ccs/tools/compiler/ti-cgt-msp430_21.6.1.LT
    2738                    .dwattr $C$DW$T$144, DW_AT_decl_line(0x66)
    2739                    .dwattr $C$DW$T$144, DW_AT_decl_column(0x19)
    2740            
    2741            $C$DW$T$145     .dwtag  DW_TAG_typedef
    2742                    .dwattr $C$DW$T$145, DW_AT_name("__uid_t")
    2743                    .dwattr $C$DW$T$145, DW_AT_type(*$C$DW$T$138)
    2744                    .dwattr $C$DW$T$145, DW_AT_language(DW_LANG_C)
    2745                    .dwattr $C$DW$T$145, DW_AT_decl_file("C:/ti/ccs1250/ccs/tools/compiler/ti-cgt-msp430_21.6.1.LT
    2746                    .dwattr $C$DW$T$145, DW_AT_decl_line(0x4d)
    2747                    .dwattr $C$DW$T$145, DW_AT_decl_column(0x14)
    2748            
    2749            $C$DW$T$146     .dwtag  DW_TAG_typedef
    2750                    .dwattr $C$DW$T$146, DW_AT_name("__uint_fast32_t")
    2751                    .dwattr $C$DW$T$146, DW_AT_type(*$C$DW$T$138)
    2752                    .dwattr $C$DW$T$146, DW_AT_language(DW_LANG_C)
    2753                    .dwattr $C$DW$T$146, DW_AT_decl_file("C:/ti/ccs1250/ccs/tools/compiler/ti-cgt-msp430_21.6.1.LT
    2754                    .dwattr $C$DW$T$146, DW_AT_decl_line(0x72)
    2755                    .dwattr $C$DW$T$146, DW_AT_decl_column(0x14)
    2756            
    2757            $C$DW$T$147     .dwtag  DW_TAG_typedef
    2758                    .dwattr $C$DW$T$147, DW_AT_name("uint_fast32_t")
MSP430 Assembler PC v21.6.1 Mon Feb 24 13:22:57 2025

Copyright (c) 2003-2018 Texas Instruments Incorporated
cmd.asm                                                              PAGE   57

    2759                    .dwattr $C$DW$T$147, DW_AT_type(*$C$DW$T$146)
    2760                    .dwattr $C$DW$T$147, DW_AT_language(DW_LANG_C)
    2761                    .dwattr $C$DW$T$147, DW_AT_decl_file("C:/ti/ccs1250/ccs/tools/compiler/ti-cgt-msp430_21.6.1.LT
    2762                    .dwattr $C$DW$T$147, DW_AT_decl_line(0x3b)
    2763                    .dwattr $C$DW$T$147, DW_AT_decl_column(0x1a)
    2764            
    2765            $C$DW$T$148     .dwtag  DW_TAG_typedef
    2766                    .dwattr $C$DW$T$148, DW_AT_name("__uint_least32_t")
    2767                    .dwattr $C$DW$T$148, DW_AT_type(*$C$DW$T$138)
    2768                    .dwattr $C$DW$T$148, DW_AT_language(DW_LANG_C)
    2769                    .dwattr $C$DW$T$148, DW_AT_decl_file("C:/ti/ccs1250/ccs/tools/compiler/ti-cgt-msp430_21.6.1.LT
    2770                    .dwattr $C$DW$T$148, DW_AT_decl_line(0x76)
    2771                    .dwattr $C$DW$T$148, DW_AT_decl_column(0x14)
    2772            
    2773            $C$DW$T$149     .dwtag  DW_TAG_typedef
    2774                    .dwattr $C$DW$T$149, DW_AT_name("__char32_t")
    2775                    .dwattr $C$DW$T$149, DW_AT_type(*$C$DW$T$148)
    2776                    .dwattr $C$DW$T$149, DW_AT_language(DW_LANG_C)
    2777                    .dwattr $C$DW$T$149, DW_AT_decl_file("C:/ti/ccs1250/ccs/tools/compiler/ti-cgt-msp430_21.6.1.LT
    2778                    .dwattr $C$DW$T$149, DW_AT_decl_line(0x72)
    2779                    .dwattr $C$DW$T$149, DW_AT_decl_column(0x1a)
    2780            
    2781            $C$DW$T$150     .dwtag  DW_TAG_typedef
    2782                    .dwattr $C$DW$T$150, DW_AT_name("uint_least32_t")
    2783                    .dwattr $C$DW$T$150, DW_AT_type(*$C$DW$T$148)
    2784                    .dwattr $C$DW$T$150, DW_AT_language(DW_LANG_C)
    2785                    .dwattr $C$DW$T$150, DW_AT_decl_file("C:/ti/ccs1250/ccs/tools/compiler/ti-cgt-msp430_21.6.1.LT
    2786                    .dwattr $C$DW$T$150, DW_AT_decl_line(0x31)
    2787                    .dwattr $C$DW$T$150, DW_AT_decl_column(0x1a)
    2788            
    2789            $C$DW$T$151     .dwtag  DW_TAG_typedef
    2790                    .dwattr $C$DW$T$151, DW_AT_name("__uintfptr_t")
    2791                    .dwattr $C$DW$T$151, DW_AT_type(*$C$DW$T$138)
    2792                    .dwattr $C$DW$T$151, DW_AT_language(DW_LANG_C)
    2793                    .dwattr $C$DW$T$151, DW_AT_decl_file("C:/ti/ccs1250/ccs/tools/compiler/ti-cgt-msp430_21.6.1.LT
    2794                    .dwattr $C$DW$T$151, DW_AT_decl_line(0x68)
    2795                    .dwattr $C$DW$T$151, DW_AT_decl_column(0x14)
    2796            
    2797            $C$DW$T$152     .dwtag  DW_TAG_typedef
    2798                    .dwattr $C$DW$T$152, DW_AT_name("__uintptr_t")
    2799                    .dwattr $C$DW$T$152, DW_AT_type(*$C$DW$T$138)
    2800                    .dwattr $C$DW$T$152, DW_AT_language(DW_LANG_C)
    2801                    .dwattr $C$DW$T$152, DW_AT_decl_file("C:/ti/ccs1250/ccs/tools/compiler/ti-cgt-msp430_21.6.1.LT
    2802                    .dwattr $C$DW$T$152, DW_AT_decl_line(0x6b)
    2803                    .dwattr $C$DW$T$152, DW_AT_decl_column(0x14)
    2804            
    2805            $C$DW$T$153     .dwtag  DW_TAG_typedef
    2806                    .dwattr $C$DW$T$153, DW_AT_name("uintptr_t")
    2807                    .dwattr $C$DW$T$153, DW_AT_type(*$C$DW$T$152)
    2808                    .dwattr $C$DW$T$153, DW_AT_language(DW_LANG_C)
    2809                    .dwattr $C$DW$T$153, DW_AT_decl_file("C:/ti/ccs1250/ccs/tools/compiler/ti-cgt-msp430_21.6.1.LT
    2810                    .dwattr $C$DW$T$153, DW_AT_decl_line(0x54)
    2811                    .dwattr $C$DW$T$153, DW_AT_decl_column(0x16)
    2812            
    2813            $C$DW$T$154     .dwtag  DW_TAG_typedef
MSP430 Assembler PC v21.6.1 Mon Feb 24 13:22:57 2025

Copyright (c) 2003-2018 Texas Instruments Incorporated
cmd.asm                                                              PAGE   58

    2814                    .dwattr $C$DW$T$154, DW_AT_name("__vm_offset_t")
    2815                    .dwattr $C$DW$T$154, DW_AT_type(*$C$DW$T$138)
    2816                    .dwattr $C$DW$T$154, DW_AT_language(DW_LANG_C)
    2817                    .dwattr $C$DW$T$154, DW_AT_decl_file("C:/ti/ccs1250/ccs/tools/compiler/ti-cgt-msp430_21.6.1.LT
    2818                    .dwattr $C$DW$T$154, DW_AT_decl_line(0x79)
    2819                    .dwattr $C$DW$T$154, DW_AT_decl_column(0x14)
    2820            
    2821            $C$DW$T$155     .dwtag  DW_TAG_typedef
    2822                    .dwattr $C$DW$T$155, DW_AT_name("__vm_paddr_t")
    2823                    .dwattr $C$DW$T$155, DW_AT_type(*$C$DW$T$138)
    2824                    .dwattr $C$DW$T$155, DW_AT_language(DW_LANG_C)
    2825                    .dwattr $C$DW$T$155, DW_AT_decl_file("C:/ti/ccs1250/ccs/tools/compiler/ti-cgt-msp430_21.6.1.LT
    2826                    .dwattr $C$DW$T$155, DW_AT_decl_line(0x7a)
    2827                    .dwattr $C$DW$T$155, DW_AT_decl_column(0x14)
    2828            
    2829            $C$DW$T$156     .dwtag  DW_TAG_typedef
    2830                    .dwattr $C$DW$T$156, DW_AT_name("__vm_size_t")
    2831                    .dwattr $C$DW$T$156, DW_AT_type(*$C$DW$T$138)
    2832                    .dwattr $C$DW$T$156, DW_AT_language(DW_LANG_C)
    2833                    .dwattr $C$DW$T$156, DW_AT_decl_file("C:/ti/ccs1250/ccs/tools/compiler/ti-cgt-msp430_21.6.1.LT
    2834                    .dwattr $C$DW$T$156, DW_AT_decl_line(0x7b)
    2835                    .dwattr $C$DW$T$156, DW_AT_decl_column(0x14)
    2836            
    2837            $C$DW$T$157     .dwtag  DW_TAG_typedef
    2838                    .dwattr $C$DW$T$157, DW_AT_name("uint32_t")
    2839                    .dwattr $C$DW$T$157, DW_AT_type(*$C$DW$T$138)
    2840                    .dwattr $C$DW$T$157, DW_AT_language(DW_LANG_C)
    2841                    .dwattr $C$DW$T$157, DW_AT_decl_file("C:/ti/ccs1250/ccs/tools/compiler/ti-cgt-msp430_21.6.1.LT
    2842                    .dwattr $C$DW$T$157, DW_AT_decl_line(0x46)
    2843                    .dwattr $C$DW$T$157, DW_AT_decl_column(0x15)
    2844            
    2845            $C$DW$T$14      .dwtag  DW_TAG_base_type
    2846                    .dwattr $C$DW$T$14, DW_AT_encoding(DW_ATE_signed)
    2847                    .dwattr $C$DW$T$14, DW_AT_name("long long")
    2848                    .dwattr $C$DW$T$14, DW_AT_byte_size(0x08)
    2849            
    2850            $C$DW$T$159     .dwtag  DW_TAG_typedef
    2851                    .dwattr $C$DW$T$159, DW_AT_name("__int64_t")
    2852                    .dwattr $C$DW$T$159, DW_AT_type(*$C$DW$T$14)
    2853                    .dwattr $C$DW$T$159, DW_AT_language(DW_LANG_C)
    2854                    .dwattr $C$DW$T$159, DW_AT_decl_file("C:/ti/ccs1250/ccs/tools/compiler/ti-cgt-msp430_21.6.1.LT
    2855                    .dwattr $C$DW$T$159, DW_AT_decl_line(0x40)
    2856                    .dwattr $C$DW$T$159, DW_AT_decl_column(0x14)
    2857            
    2858            $C$DW$T$160     .dwtag  DW_TAG_typedef
    2859                    .dwattr $C$DW$T$160, DW_AT_name("__blkcnt_t")
    2860                    .dwattr $C$DW$T$160, DW_AT_type(*$C$DW$T$159)
    2861                    .dwattr $C$DW$T$160, DW_AT_language(DW_LANG_C)
    2862                    .dwattr $C$DW$T$160, DW_AT_decl_file("C:/ti/ccs1250/ccs/tools/compiler/ti-cgt-msp430_21.6.1.LT
    2863                    .dwattr $C$DW$T$160, DW_AT_decl_line(0x30)
    2864                    .dwattr $C$DW$T$160, DW_AT_decl_column(0x13)
    2865            
    2866            $C$DW$T$161     .dwtag  DW_TAG_typedef
    2867                    .dwattr $C$DW$T$161, DW_AT_name("__id_t")
    2868                    .dwattr $C$DW$T$161, DW_AT_type(*$C$DW$T$159)
MSP430 Assembler PC v21.6.1 Mon Feb 24 13:22:57 2025

Copyright (c) 2003-2018 Texas Instruments Incorporated
cmd.asm                                                              PAGE   59

    2869                    .dwattr $C$DW$T$161, DW_AT_language(DW_LANG_C)
    2870                    .dwattr $C$DW$T$161, DW_AT_decl_file("C:/ti/ccs1250/ccs/tools/compiler/ti-cgt-msp430_21.6.1.LT
    2871                    .dwattr $C$DW$T$161, DW_AT_decl_line(0x36)
    2872                    .dwattr $C$DW$T$161, DW_AT_decl_column(0x13)
    2873            
    2874            $C$DW$T$162     .dwtag  DW_TAG_typedef
    2875                    .dwattr $C$DW$T$162, DW_AT_name("__int_fast64_t")
    2876                    .dwattr $C$DW$T$162, DW_AT_type(*$C$DW$T$159)
    2877                    .dwattr $C$DW$T$162, DW_AT_language(DW_LANG_C)
    2878                    .dwattr $C$DW$T$162, DW_AT_decl_file("C:/ti/ccs1250/ccs/tools/compiler/ti-cgt-msp430_21.6.1.LT
    2879                    .dwattr $C$DW$T$162, DW_AT_decl_line(0x59)
    2880                    .dwattr $C$DW$T$162, DW_AT_decl_column(0x13)
    2881            
    2882            $C$DW$T$163     .dwtag  DW_TAG_typedef
    2883                    .dwattr $C$DW$T$163, DW_AT_name("int_fast64_t")
    2884                    .dwattr $C$DW$T$163, DW_AT_type(*$C$DW$T$162)
    2885                    .dwattr $C$DW$T$163, DW_AT_language(DW_LANG_C)
    2886                    .dwattr $C$DW$T$163, DW_AT_decl_file("C:/ti/ccs1250/ccs/tools/compiler/ti-cgt-msp430_21.6.1.LT
    2887                    .dwattr $C$DW$T$163, DW_AT_decl_line(0x37)
    2888                    .dwattr $C$DW$T$163, DW_AT_decl_column(0x19)
    2889            
    2890            $C$DW$T$164     .dwtag  DW_TAG_typedef
    2891                    .dwattr $C$DW$T$164, DW_AT_name("__int_least64_t")
    2892                    .dwattr $C$DW$T$164, DW_AT_type(*$C$DW$T$159)
    2893                    .dwattr $C$DW$T$164, DW_AT_language(DW_LANG_C)
    2894                    .dwattr $C$DW$T$164, DW_AT_decl_file("C:/ti/ccs1250/ccs/tools/compiler/ti-cgt-msp430_21.6.1.LT
    2895                    .dwattr $C$DW$T$164, DW_AT_decl_line(0x5d)
    2896                    .dwattr $C$DW$T$164, DW_AT_decl_column(0x13)
    2897            
    2898            $C$DW$T$165     .dwtag  DW_TAG_typedef
    2899                    .dwattr $C$DW$T$165, DW_AT_name("int_least64_t")
    2900                    .dwattr $C$DW$T$165, DW_AT_type(*$C$DW$T$164)
    2901                    .dwattr $C$DW$T$165, DW_AT_language(DW_LANG_C)
    2902                    .dwattr $C$DW$T$165, DW_AT_decl_file("C:/ti/ccs1250/ccs/tools/compiler/ti-cgt-msp430_21.6.1.LT
    2903                    .dwattr $C$DW$T$165, DW_AT_decl_line(0x2d)
    2904                    .dwattr $C$DW$T$165, DW_AT_decl_column(0x1a)
    2905            
    2906            $C$DW$T$166     .dwtag  DW_TAG_typedef
    2907                    .dwattr $C$DW$T$166, DW_AT_name("__intmax_t")
    2908                    .dwattr $C$DW$T$166, DW_AT_type(*$C$DW$T$159)
    2909                    .dwattr $C$DW$T$166, DW_AT_language(DW_LANG_C)
    2910                    .dwattr $C$DW$T$166, DW_AT_decl_file("C:/ti/ccs1250/ccs/tools/compiler/ti-cgt-msp430_21.6.1.LT
    2911                    .dwattr $C$DW$T$166, DW_AT_decl_line(0x4f)
    2912                    .dwattr $C$DW$T$166, DW_AT_decl_column(0x13)
    2913            
    2914            $C$DW$T$167     .dwtag  DW_TAG_typedef
    2915                    .dwattr $C$DW$T$167, DW_AT_name("intmax_t")
    2916                    .dwattr $C$DW$T$167, DW_AT_type(*$C$DW$T$166)
    2917                    .dwattr $C$DW$T$167, DW_AT_language(DW_LANG_C)
    2918                    .dwattr $C$DW$T$167, DW_AT_decl_file("C:/ti/ccs1250/ccs/tools/compiler/ti-cgt-msp430_21.6.1.LT
    2919                    .dwattr $C$DW$T$167, DW_AT_decl_line(0x58)
    2920                    .dwattr $C$DW$T$167, DW_AT_decl_column(0x15)
    2921            
    2922            $C$DW$T$168     .dwtag  DW_TAG_typedef
    2923                    .dwattr $C$DW$T$168, DW_AT_name("__off64_t")
MSP430 Assembler PC v21.6.1 Mon Feb 24 13:22:57 2025

Copyright (c) 2003-2018 Texas Instruments Incorporated
cmd.asm                                                              PAGE   60

    2924                    .dwattr $C$DW$T$168, DW_AT_type(*$C$DW$T$159)
    2925                    .dwattr $C$DW$T$168, DW_AT_language(DW_LANG_C)
    2926                    .dwattr $C$DW$T$168, DW_AT_decl_file("C:/ti/ccs1250/ccs/tools/compiler/ti-cgt-msp430_21.6.1.LT
    2927                    .dwattr $C$DW$T$168, DW_AT_decl_line(0x3f)
    2928                    .dwattr $C$DW$T$168, DW_AT_decl_column(0x13)
    2929            
    2930            $C$DW$T$169     .dwtag  DW_TAG_typedef
    2931                    .dwattr $C$DW$T$169, DW_AT_name("__rlim_t")
    2932                    .dwattr $C$DW$T$169, DW_AT_type(*$C$DW$T$159)
    2933                    .dwattr $C$DW$T$169, DW_AT_language(DW_LANG_C)
    2934                    .dwattr $C$DW$T$169, DW_AT_decl_file("C:/ti/ccs1250/ccs/tools/compiler/ti-cgt-msp430_21.6.1.LT
    2935                    .dwattr $C$DW$T$169, DW_AT_decl_line(0x41)
    2936                    .dwattr $C$DW$T$169, DW_AT_decl_column(0x13)
    2937            
    2938            $C$DW$T$170     .dwtag  DW_TAG_typedef
    2939                    .dwattr $C$DW$T$170, DW_AT_name("int64_t")
    2940                    .dwattr $C$DW$T$170, DW_AT_type(*$C$DW$T$159)
    2941                    .dwattr $C$DW$T$170, DW_AT_language(DW_LANG_C)
    2942                    .dwattr $C$DW$T$170, DW_AT_decl_file("C:/ti/ccs1250/ccs/tools/compiler/ti-cgt-msp430_21.6.1.LT
    2943                    .dwattr $C$DW$T$170, DW_AT_decl_line(0x35)
    2944                    .dwattr $C$DW$T$170, DW_AT_decl_column(0x14)
    2945            
    2946            $C$DW$T$15      .dwtag  DW_TAG_base_type
    2947                    .dwattr $C$DW$T$15, DW_AT_encoding(DW_ATE_unsigned)
    2948                    .dwattr $C$DW$T$15, DW_AT_name("unsigned long long")
    2949                    .dwattr $C$DW$T$15, DW_AT_byte_size(0x08)
    2950            
    2951            $C$DW$T$171     .dwtag  DW_TAG_typedef
    2952                    .dwattr $C$DW$T$171, DW_AT_name("__uint64_t")
    2953                    .dwattr $C$DW$T$171, DW_AT_type(*$C$DW$T$15)
    2954                    .dwattr $C$DW$T$171, DW_AT_language(DW_LANG_C)
    2955                    .dwattr $C$DW$T$171, DW_AT_decl_file("C:/ti/ccs1250/ccs/tools/compiler/ti-cgt-msp430_21.6.1.LT
    2956                    .dwattr $C$DW$T$171, DW_AT_decl_line(0x45)
    2957                    .dwattr $C$DW$T$171, DW_AT_decl_column(0x1c)
    2958            
    2959            $C$DW$T$172     .dwtag  DW_TAG_typedef
    2960                    .dwattr $C$DW$T$172, DW_AT_name("__dev_t")
    2961                    .dwattr $C$DW$T$172, DW_AT_type(*$C$DW$T$171)
    2962                    .dwattr $C$DW$T$172, DW_AT_language(DW_LANG_C)
    2963                    .dwattr $C$DW$T$172, DW_AT_decl_file("C:/ti/ccs1250/ccs/tools/compiler/ti-cgt-msp430_21.6.1.LT
    2964                    .dwattr $C$DW$T$172, DW_AT_decl_line(0x7f)
    2965                    .dwattr $C$DW$T$172, DW_AT_decl_column(0x14)
    2966            
    2967            $C$DW$T$173     .dwtag  DW_TAG_typedef
    2968                    .dwattr $C$DW$T$173, DW_AT_name("__fsblkcnt_t")
    2969                    .dwattr $C$DW$T$173, DW_AT_type(*$C$DW$T$171)
    2970                    .dwattr $C$DW$T$173, DW_AT_language(DW_LANG_C)
    2971                    .dwattr $C$DW$T$173, DW_AT_decl_file("C:/ti/ccs1250/ccs/tools/compiler/ti-cgt-msp430_21.6.1.LT
    2972                    .dwattr $C$DW$T$173, DW_AT_decl_line(0x33)
    2973                    .dwattr $C$DW$T$173, DW_AT_decl_column(0x14)
    2974            
    2975            $C$DW$T$174     .dwtag  DW_TAG_typedef
    2976                    .dwattr $C$DW$T$174, DW_AT_name("__fsfilcnt_t")
    2977                    .dwattr $C$DW$T$174, DW_AT_type(*$C$DW$T$171)
    2978                    .dwattr $C$DW$T$174, DW_AT_language(DW_LANG_C)
MSP430 Assembler PC v21.6.1 Mon Feb 24 13:22:57 2025

Copyright (c) 2003-2018 Texas Instruments Incorporated
cmd.asm                                                              PAGE   61

    2979                    .dwattr $C$DW$T$174, DW_AT_decl_file("C:/ti/ccs1250/ccs/tools/compiler/ti-cgt-msp430_21.6.1.LT
    2980                    .dwattr $C$DW$T$174, DW_AT_decl_line(0x34)
    2981                    .dwattr $C$DW$T$174, DW_AT_decl_column(0x14)
    2982            
    2983            $C$DW$T$175     .dwtag  DW_TAG_typedef
    2984                    .dwattr $C$DW$T$175, DW_AT_name("__ino_t")
    2985                    .dwattr $C$DW$T$175, DW_AT_type(*$C$DW$T$171)
    2986                    .dwattr $C$DW$T$175, DW_AT_language(DW_LANG_C)
    2987                    .dwattr $C$DW$T$175, DW_AT_decl_file("C:/ti/ccs1250/ccs/tools/compiler/ti-cgt-msp430_21.6.1.LT
    2988                    .dwattr $C$DW$T$175, DW_AT_decl_line(0x37)
    2989                    .dwattr $C$DW$T$175, DW_AT_decl_column(0x14)
    2990            
    2991            $C$DW$T$176     .dwtag  DW_TAG_typedef
    2992                    .dwattr $C$DW$T$176, DW_AT_name("__nlink_t")
    2993                    .dwattr $C$DW$T$176, DW_AT_type(*$C$DW$T$171)
    2994                    .dwattr $C$DW$T$176, DW_AT_language(DW_LANG_C)
    2995                    .dwattr $C$DW$T$176, DW_AT_decl_file("C:/ti/ccs1250/ccs/tools/compiler/ti-cgt-msp430_21.6.1.LT
    2996                    .dwattr $C$DW$T$176, DW_AT_decl_line(0x3d)
    2997                    .dwattr $C$DW$T$176, DW_AT_decl_column(0x14)
    2998            
    2999            $C$DW$T$177     .dwtag  DW_TAG_typedef
    3000                    .dwattr $C$DW$T$177, DW_AT_name("__uint_fast64_t")
    3001                    .dwattr $C$DW$T$177, DW_AT_type(*$C$DW$T$171)
    3002                    .dwattr $C$DW$T$177, DW_AT_language(DW_LANG_C)
    3003                    .dwattr $C$DW$T$177, DW_AT_decl_file("C:/ti/ccs1250/ccs/tools/compiler/ti-cgt-msp430_21.6.1.LT
    3004                    .dwattr $C$DW$T$177, DW_AT_decl_line(0x73)
    3005                    .dwattr $C$DW$T$177, DW_AT_decl_column(0x14)
    3006            
    3007            $C$DW$T$178     .dwtag  DW_TAG_typedef
    3008                    .dwattr $C$DW$T$178, DW_AT_name("uint_fast64_t")
    3009                    .dwattr $C$DW$T$178, DW_AT_type(*$C$DW$T$177)
    3010                    .dwattr $C$DW$T$178, DW_AT_language(DW_LANG_C)
    3011                    .dwattr $C$DW$T$178, DW_AT_decl_file("C:/ti/ccs1250/ccs/tools/compiler/ti-cgt-msp430_21.6.1.LT
    3012                    .dwattr $C$DW$T$178, DW_AT_decl_line(0x3c)
    3013                    .dwattr $C$DW$T$178, DW_AT_decl_column(0x1a)
    3014            
    3015            $C$DW$T$179     .dwtag  DW_TAG_typedef
    3016                    .dwattr $C$DW$T$179, DW_AT_name("__uint_least64_t")
    3017                    .dwattr $C$DW$T$179, DW_AT_type(*$C$DW$T$171)
    3018                    .dwattr $C$DW$T$179, DW_AT_language(DW_LANG_C)
    3019                    .dwattr $C$DW$T$179, DW_AT_decl_file("C:/ti/ccs1250/ccs/tools/compiler/ti-cgt-msp430_21.6.1.LT
    3020                    .dwattr $C$DW$T$179, DW_AT_decl_line(0x77)
    3021                    .dwattr $C$DW$T$179, DW_AT_decl_column(0x14)
    3022            
    3023            $C$DW$T$180     .dwtag  DW_TAG_typedef
    3024                    .dwattr $C$DW$T$180, DW_AT_name("uint_least64_t")
    3025                    .dwattr $C$DW$T$180, DW_AT_type(*$C$DW$T$179)
    3026                    .dwattr $C$DW$T$180, DW_AT_language(DW_LANG_C)
    3027                    .dwattr $C$DW$T$180, DW_AT_decl_file("C:/ti/ccs1250/ccs/tools/compiler/ti-cgt-msp430_21.6.1.LT
    3028                    .dwattr $C$DW$T$180, DW_AT_decl_line(0x32)
    3029                    .dwattr $C$DW$T$180, DW_AT_decl_column(0x1a)
    3030            
    3031            $C$DW$T$181     .dwtag  DW_TAG_typedef
    3032                    .dwattr $C$DW$T$181, DW_AT_name("__uintmax_t")
    3033                    .dwattr $C$DW$T$181, DW_AT_type(*$C$DW$T$171)
MSP430 Assembler PC v21.6.1 Mon Feb 24 13:22:57 2025

Copyright (c) 2003-2018 Texas Instruments Incorporated
cmd.asm                                                              PAGE   62

    3034                    .dwattr $C$DW$T$181, DW_AT_language(DW_LANG_C)
    3035                    .dwattr $C$DW$T$181, DW_AT_decl_file("C:/ti/ccs1250/ccs/tools/compiler/ti-cgt-msp430_21.6.1.LT
    3036                    .dwattr $C$DW$T$181, DW_AT_decl_line(0x69)
    3037                    .dwattr $C$DW$T$181, DW_AT_decl_column(0x14)
    3038            
    3039            $C$DW$T$182     .dwtag  DW_TAG_typedef
    3040                    .dwattr $C$DW$T$182, DW_AT_name("__rman_res_t")
    3041                    .dwattr $C$DW$T$182, DW_AT_type(*$C$DW$T$181)
    3042                    .dwattr $C$DW$T$182, DW_AT_language(DW_LANG_C)
    3043                    .dwattr $C$DW$T$182, DW_AT_decl_file("C:/ti/ccs1250/ccs/tools/compiler/ti-cgt-msp430_21.6.1.LT
    3044                    .dwattr $C$DW$T$182, DW_AT_decl_line(0x9a)
    3045                    .dwattr $C$DW$T$182, DW_AT_decl_column(0x19)
    3046            
    3047            $C$DW$T$183     .dwtag  DW_TAG_typedef
    3048                    .dwattr $C$DW$T$183, DW_AT_name("uintmax_t")
    3049                    .dwattr $C$DW$T$183, DW_AT_type(*$C$DW$T$181)
    3050                    .dwattr $C$DW$T$183, DW_AT_language(DW_LANG_C)
    3051                    .dwattr $C$DW$T$183, DW_AT_decl_file("C:/ti/ccs1250/ccs/tools/compiler/ti-cgt-msp430_21.6.1.LT
    3052                    .dwattr $C$DW$T$183, DW_AT_decl_line(0x5c)
    3053                    .dwattr $C$DW$T$183, DW_AT_decl_column(0x16)
    3054            
    3055            $C$DW$T$184     .dwtag  DW_TAG_typedef
    3056                    .dwattr $C$DW$T$184, DW_AT_name("uint64_t")
    3057                    .dwattr $C$DW$T$184, DW_AT_type(*$C$DW$T$171)
    3058                    .dwattr $C$DW$T$184, DW_AT_language(DW_LANG_C)
    3059                    .dwattr $C$DW$T$184, DW_AT_decl_file("C:/ti/ccs1250/ccs/tools/compiler/ti-cgt-msp430_21.6.1.LT
    3060                    .dwattr $C$DW$T$184, DW_AT_decl_line(0x4b)
    3061                    .dwattr $C$DW$T$184, DW_AT_decl_column(0x15)
    3062            
    3063            $C$DW$T$16      .dwtag  DW_TAG_base_type
    3064                    .dwattr $C$DW$T$16, DW_AT_encoding(DW_ATE_float)
    3065                    .dwattr $C$DW$T$16, DW_AT_name("float")
    3066                    .dwattr $C$DW$T$16, DW_AT_byte_size(0x04)
    3067            
    3068            $C$DW$T$185     .dwtag  DW_TAG_typedef
    3069                    .dwattr $C$DW$T$185, DW_AT_name("__float_t")
    3070                    .dwattr $C$DW$T$185, DW_AT_type(*$C$DW$T$16)
    3071                    .dwattr $C$DW$T$185, DW_AT_language(DW_LANG_C)
    3072                    .dwattr $C$DW$T$185, DW_AT_decl_file("C:/ti/ccs1250/ccs/tools/compiler/ti-cgt-msp430_21.6.1.LT
    3073                    .dwattr $C$DW$T$185, DW_AT_decl_line(0x4d)
    3074                    .dwattr $C$DW$T$185, DW_AT_decl_column(0x10)
    3075            
    3076            $C$DW$T$17      .dwtag  DW_TAG_base_type
    3077                    .dwattr $C$DW$T$17, DW_AT_encoding(DW_ATE_float)
    3078                    .dwattr $C$DW$T$17, DW_AT_name("double")
    3079                    .dwattr $C$DW$T$17, DW_AT_byte_size(0x08)
    3080            
    3081            $C$DW$T$186     .dwtag  DW_TAG_typedef
    3082                    .dwattr $C$DW$T$186, DW_AT_name("__double_t")
    3083                    .dwattr $C$DW$T$186, DW_AT_type(*$C$DW$T$17)
    3084                    .dwattr $C$DW$T$186, DW_AT_language(DW_LANG_C)
    3085                    .dwattr $C$DW$T$186, DW_AT_decl_file("C:/ti/ccs1250/ccs/tools/compiler/ti-cgt-msp430_21.6.1.LT
    3086                    .dwattr $C$DW$T$186, DW_AT_decl_line(0x4c)
    3087                    .dwattr $C$DW$T$186, DW_AT_decl_column(0x11)
    3088            
MSP430 Assembler PC v21.6.1 Mon Feb 24 13:22:57 2025

Copyright (c) 2003-2018 Texas Instruments Incorporated
cmd.asm                                                              PAGE   63

    3089            $C$DW$T$18      .dwtag  DW_TAG_base_type
    3090                    .dwattr $C$DW$T$18, DW_AT_encoding(DW_ATE_float)
    3091                    .dwattr $C$DW$T$18, DW_AT_name("long double")
    3092                    .dwattr $C$DW$T$18, DW_AT_byte_size(0x08)
    3093            
    3094            $C$DW$T$60      .dwtag  DW_TAG_pointer_type
    3095                    .dwattr $C$DW$T$60, DW_AT_type(*$C$DW$T$6)
    3096                    .dwattr $C$DW$T$60, DW_AT_address_class(0x14)
    3097            
    3098            $C$DW$115       .dwtag  DW_TAG_TI_far_type
    3099                    .dwattr $C$DW$115, DW_AT_type(*$C$DW$T$60)
    3100            
    3101            $C$DW$T$61      .dwtag  DW_TAG_restrict_type
    3102                    .dwattr $C$DW$T$61, DW_AT_type(*$C$DW$115)
    3103            
    3104            $C$DW$T$189     .dwtag  DW_TAG_typedef
    3105                    .dwattr $C$DW$T$189, DW_AT_name("__va_list")
    3106                    .dwattr $C$DW$T$189, DW_AT_type(*$C$DW$T$60)
    3107                    .dwattr $C$DW$T$189, DW_AT_language(DW_LANG_C)
    3108                    .dwattr $C$DW$T$189, DW_AT_decl_file("C:/ti/ccs1250/ccs/tools/compiler/ti-cgt-msp430_21.6.1.LT
    3109                    .dwattr $C$DW$T$189, DW_AT_decl_line(0x92)
    3110                    .dwattr $C$DW$T$189, DW_AT_decl_column(0x0f)
    3111            
    3112            $C$DW$T$190     .dwtag  DW_TAG_typedef
    3113                    .dwattr $C$DW$T$190, DW_AT_name("va_list")
    3114                    .dwattr $C$DW$T$190, DW_AT_type(*$C$DW$T$189)
    3115                    .dwattr $C$DW$T$190, DW_AT_language(DW_LANG_C)
    3116                    .dwattr $C$DW$T$190, DW_AT_decl_file("C:/ti/ccs1250/ccs/tools/compiler/ti-cgt-msp430_21.6.1.LT
    3117                    .dwattr $C$DW$T$190, DW_AT_decl_line(0x33)
    3118                    .dwattr $C$DW$T$190, DW_AT_decl_column(0x13)
    3119            
    3120            $C$DW$116       .dwtag  DW_TAG_TI_far_type
    3121                    .dwattr $C$DW$116, DW_AT_type(*$C$DW$T$6)
    3122            
    3123            $C$DW$T$62      .dwtag  DW_TAG_const_type
    3124                    .dwattr $C$DW$T$62, DW_AT_type(*$C$DW$116)
    3125            
    3126            $C$DW$T$63      .dwtag  DW_TAG_pointer_type
    3127                    .dwattr $C$DW$T$63, DW_AT_type(*$C$DW$T$62)
    3128                    .dwattr $C$DW$T$63, DW_AT_address_class(0x14)
    3129            
    3130            $C$DW$117       .dwtag  DW_TAG_TI_far_type
    3131                    .dwattr $C$DW$117, DW_AT_type(*$C$DW$T$63)
    3132            
    3133            $C$DW$T$64      .dwtag  DW_TAG_restrict_type
    3134                    .dwattr $C$DW$T$64, DW_AT_type(*$C$DW$117)
    3135            
    3136            
    3137            $C$DW$T$19      .dwtag  DW_TAG_structure_type
    3138                    .dwattr $C$DW$T$19, DW_AT_name("__mq")
    3139                    .dwattr $C$DW$T$19, DW_AT_declaration
    3140                    .dwattr $C$DW$T$19, DW_AT_decl_file("C:/ti/ccs1250/ccs/tools/compiler/ti-cgt-msp430_21.6.1.LTS
    3141                    .dwattr $C$DW$T$19, DW_AT_decl_line(0x4c)
    3142                    .dwattr $C$DW$T$19, DW_AT_decl_column(0x10)
    3143                    .dwendtag $C$DW$T$19
MSP430 Assembler PC v21.6.1 Mon Feb 24 13:22:57 2025

Copyright (c) 2003-2018 Texas Instruments Incorporated
cmd.asm                                                              PAGE   64

    3144            
    3145            $C$DW$T$191     .dwtag  DW_TAG_pointer_type
    3146                    .dwattr $C$DW$T$191, DW_AT_type(*$C$DW$T$19)
    3147                    .dwattr $C$DW$T$191, DW_AT_address_class(0x14)
    3148            
    3149            $C$DW$T$192     .dwtag  DW_TAG_typedef
    3150                    .dwattr $C$DW$T$192, DW_AT_name("__mqd_t")
    3151                    .dwattr $C$DW$T$192, DW_AT_type(*$C$DW$T$191)
    3152                    .dwattr $C$DW$T$192, DW_AT_language(DW_LANG_C)
    3153                    .dwattr $C$DW$T$192, DW_AT_decl_file("C:/ti/ccs1250/ccs/tools/compiler/ti-cgt-msp430_21.6.1.LT
    3154                    .dwattr $C$DW$T$192, DW_AT_decl_line(0x4c)
    3155                    .dwattr $C$DW$T$192, DW_AT_decl_column(0x16)
    3156            
    3157            
    3158            $C$DW$T$40      .dwtag  DW_TAG_structure_type
    3159                    .dwattr $C$DW$T$40, DW_AT_name("__sFILE")
    3160                    .dwattr $C$DW$T$40, DW_AT_byte_size(0x14)
    3161            $C$DW$118       .dwtag  DW_TAG_member
    3162                    .dwattr $C$DW$118, DW_AT_type(*$C$DW$T$10)
    3163                    .dwattr $C$DW$118, DW_AT_name("fd")
    3164                    .dwattr $C$DW$118, DW_AT_TI_symbol_name("fd")
    3165                    .dwattr $C$DW$118, DW_AT_data_member_location[DW_OP_plus_uconst 0x0]
    3166                    .dwattr $C$DW$118, DW_AT_accessibility(DW_ACCESS_public)
    3167                    .dwattr $C$DW$118, DW_AT_decl_file("C:/ti/ccs1250/ccs/tools/compiler/ti-cgt-msp430_21.6.1.LTS/
    3168                    .dwattr $C$DW$118, DW_AT_decl_line(0x52)
    3169                    .dwattr $C$DW$118, DW_AT_decl_column(0x0b)
    3170            
    3171            $C$DW$119       .dwtag  DW_TAG_member
    3172                    .dwattr $C$DW$119, DW_AT_type(*$C$DW$T$39)
    3173                    .dwattr $C$DW$119, DW_AT_name("buf")
    3174                    .dwattr $C$DW$119, DW_AT_TI_symbol_name("buf")
    3175                    .dwattr $C$DW$119, DW_AT_data_member_location[DW_OP_plus_uconst 0x2]
    3176                    .dwattr $C$DW$119, DW_AT_accessibility(DW_ACCESS_public)
    3177                    .dwattr $C$DW$119, DW_AT_decl_file("C:/ti/ccs1250/ccs/tools/compiler/ti-cgt-msp430_21.6.1.LTS/
    3178                    .dwattr $C$DW$119, DW_AT_decl_line(0x53)
    3179                    .dwattr $C$DW$119, DW_AT_decl_column(0x16)
    3180            
    3181            $C$DW$120       .dwtag  DW_TAG_member
    3182                    .dwattr $C$DW$120, DW_AT_type(*$C$DW$T$39)
    3183                    .dwattr $C$DW$120, DW_AT_name("pos")
    3184                    .dwattr $C$DW$120, DW_AT_TI_symbol_name("pos")
    3185                    .dwattr $C$DW$120, DW_AT_data_member_location[DW_OP_plus_uconst 0x6]
    3186                    .dwattr $C$DW$120, DW_AT_accessibility(DW_ACCESS_public)
    3187                    .dwattr $C$DW$120, DW_AT_decl_file("C:/ti/ccs1250/ccs/tools/compiler/ti-cgt-msp430_21.6.1.LTS/
    3188                    .dwattr $C$DW$120, DW_AT_decl_line(0x54)
    3189                    .dwattr $C$DW$120, DW_AT_decl_column(0x16)
    3190            
    3191            $C$DW$121       .dwtag  DW_TAG_member
    3192                    .dwattr $C$DW$121, DW_AT_type(*$C$DW$T$39)
    3193                    .dwattr $C$DW$121, DW_AT_name("bufend")
    3194                    .dwattr $C$DW$121, DW_AT_TI_symbol_name("bufend")
    3195                    .dwattr $C$DW$121, DW_AT_data_member_location[DW_OP_plus_uconst 0xa]
    3196                    .dwattr $C$DW$121, DW_AT_accessibility(DW_ACCESS_public)
    3197                    .dwattr $C$DW$121, DW_AT_decl_file("C:/ti/ccs1250/ccs/tools/compiler/ti-cgt-msp430_21.6.1.LTS/
    3198                    .dwattr $C$DW$121, DW_AT_decl_line(0x55)
MSP430 Assembler PC v21.6.1 Mon Feb 24 13:22:57 2025

Copyright (c) 2003-2018 Texas Instruments Incorporated
cmd.asm                                                              PAGE   65

    3199                    .dwattr $C$DW$121, DW_AT_decl_column(0x16)
    3200            
    3201            $C$DW$122       .dwtag  DW_TAG_member
    3202                    .dwattr $C$DW$122, DW_AT_type(*$C$DW$T$39)
    3203                    .dwattr $C$DW$122, DW_AT_name("buff_stop")
    3204                    .dwattr $C$DW$122, DW_AT_TI_symbol_name("buff_stop")
    3205                    .dwattr $C$DW$122, DW_AT_data_member_location[DW_OP_plus_uconst 0xe]
    3206                    .dwattr $C$DW$122, DW_AT_accessibility(DW_ACCESS_public)
    3207                    .dwattr $C$DW$122, DW_AT_decl_file("C:/ti/ccs1250/ccs/tools/compiler/ti-cgt-msp430_21.6.1.LTS/
    3208                    .dwattr $C$DW$122, DW_AT_decl_line(0x56)
    3209                    .dwattr $C$DW$122, DW_AT_decl_column(0x16)
    3210            
    3211            $C$DW$123       .dwtag  DW_TAG_member
    3212                    .dwattr $C$DW$123, DW_AT_type(*$C$DW$T$11)
    3213                    .dwattr $C$DW$123, DW_AT_name("flags")
    3214                    .dwattr $C$DW$123, DW_AT_TI_symbol_name("flags")
    3215                    .dwattr $C$DW$123, DW_AT_data_member_location[DW_OP_plus_uconst 0x12]
    3216                    .dwattr $C$DW$123, DW_AT_accessibility(DW_ACCESS_public)
    3217                    .dwattr $C$DW$123, DW_AT_decl_file("C:/ti/ccs1250/ccs/tools/compiler/ti-cgt-msp430_21.6.1.LTS/
    3218                    .dwattr $C$DW$123, DW_AT_decl_line(0x57)
    3219                    .dwattr $C$DW$123, DW_AT_decl_column(0x16)
    3220            
    3221                    .dwattr $C$DW$T$40, DW_AT_decl_file("C:/ti/ccs1250/ccs/tools/compiler/ti-cgt-msp430_21.6.1.LTS
    3222                    .dwattr $C$DW$T$40, DW_AT_decl_line(0x51)
    3223                    .dwattr $C$DW$T$40, DW_AT_decl_column(0x08)
    3224                    .dwendtag $C$DW$T$40
    3225            
    3226            $C$DW$T$193     .dwtag  DW_TAG_typedef
    3227                    .dwattr $C$DW$T$193, DW_AT_name("FILE")
    3228                    .dwattr $C$DW$T$193, DW_AT_type(*$C$DW$T$40)
    3229                    .dwattr $C$DW$T$193, DW_AT_language(DW_LANG_C)
    3230                    .dwattr $C$DW$T$193, DW_AT_decl_file("C:/ti/ccs1250/ccs/tools/compiler/ti-cgt-msp430_21.6.1.LT
    3231                    .dwattr $C$DW$T$193, DW_AT_decl_line(0x5c)
    3232                    .dwattr $C$DW$T$193, DW_AT_decl_column(0x18)
    3233            
    3234            
    3235            $C$DW$T$20      .dwtag  DW_TAG_structure_type
    3236                    .dwattr $C$DW$T$20, DW_AT_name("__timer")
    3237                    .dwattr $C$DW$T$20, DW_AT_declaration
    3238                    .dwattr $C$DW$T$20, DW_AT_decl_file("C:/ti/ccs1250/ccs/tools/compiler/ti-cgt-msp430_21.6.1.LTS
    3239                    .dwattr $C$DW$T$20, DW_AT_decl_line(0x4b)
    3240                    .dwattr $C$DW$T$20, DW_AT_decl_column(0x10)
    3241                    .dwendtag $C$DW$T$20
    3242            
    3243            $C$DW$T$194     .dwtag  DW_TAG_pointer_type
    3244                    .dwattr $C$DW$T$194, DW_AT_type(*$C$DW$T$20)
    3245                    .dwattr $C$DW$T$194, DW_AT_address_class(0x14)
    3246            
    3247            $C$DW$T$195     .dwtag  DW_TAG_typedef
    3248                    .dwattr $C$DW$T$195, DW_AT_name("__timer_t")
    3249                    .dwattr $C$DW$T$195, DW_AT_type(*$C$DW$T$194)
    3250                    .dwattr $C$DW$T$195, DW_AT_language(DW_LANG_C)
    3251                    .dwattr $C$DW$T$195, DW_AT_decl_file("C:/ti/ccs1250/ccs/tools/compiler/ti-cgt-msp430_21.6.1.LT
    3252                    .dwattr $C$DW$T$195, DW_AT_decl_line(0x4b)
    3253                    .dwattr $C$DW$T$195, DW_AT_decl_column(0x19)
MSP430 Assembler PC v21.6.1 Mon Feb 24 13:22:57 2025

Copyright (c) 2003-2018 Texas Instruments Incorporated
cmd.asm                                                              PAGE   66

    3254            
    3255            
    3256            $C$DW$T$21      .dwtag  DW_TAG_structure_type
    3257                    .dwattr $C$DW$T$21, DW_AT_name("_xlocale")
